
pingisproj.elf:     file format elf32-littlearm

Sections:
Idx Name          Size      VMA       LMA       File off  Algn
  0 .text         00008d9c  00080000  00080000  00008000  2**3
                  CONTENTS, ALLOC, LOAD, READONLY, CODE
  1 .ARM.exidx    00000008  00088d9c  00088d9c  00010d9c  2**2
                  CONTENTS, ALLOC, LOAD, READONLY, DATA
  2 .relocate     000009a8  20070000  00088da4  00018000  2**3
                  CONTENTS, ALLOC, LOAD, CODE
  3 .bss          0000a4f0  200709a8  00089750  000189a8  2**3
                  ALLOC
  4 .stack        00002000  2007ae98  00093c40  000189a8  2**0
                  ALLOC
  5 .ARM.attributes 00000029  00000000  00000000  000189a8  2**0
                  CONTENTS, READONLY
  6 .comment      0000005b  00000000  00000000  000189d1  2**0
                  CONTENTS, READONLY
  7 .debug_frame  00001330  00000000  00000000  00018a2c  2**2
                  CONTENTS, READONLY, DEBUGGING

Disassembly of section .text:

00080000 <_sfixed>:
   80000:	2007ce98 	.word	0x2007ce98
   80004:	000822d1 	.word	0x000822d1
   80008:	000822cd 	.word	0x000822cd
   8000c:	000822cd 	.word	0x000822cd
   80010:	000822cd 	.word	0x000822cd
   80014:	000822cd 	.word	0x000822cd
   80018:	000822cd 	.word	0x000822cd
	...
   8002c:	00080771 	.word	0x00080771
   80030:	000822cd 	.word	0x000822cd
   80034:	00000000 	.word	0x00000000
   80038:	000807ed 	.word	0x000807ed
   8003c:	00080829 	.word	0x00080829
   80040:	000822cd 	.word	0x000822cd
   80044:	000822cd 	.word	0x000822cd
   80048:	000822cd 	.word	0x000822cd
   8004c:	000822cd 	.word	0x000822cd
   80050:	000822cd 	.word	0x000822cd
   80054:	000822cd 	.word	0x000822cd
   80058:	000822cd 	.word	0x000822cd
   8005c:	000822cd 	.word	0x000822cd
   80060:	000822cd 	.word	0x000822cd
   80064:	000822cd 	.word	0x000822cd
   80068:	00000000 	.word	0x00000000
   8006c:	00082181 	.word	0x00082181
   80070:	00082195 	.word	0x00082195
   80074:	000821a9 	.word	0x000821a9
   80078:	000821bd 	.word	0x000821bd
	...
   80084:	000801e9 	.word	0x000801e9
   80088:	000822cd 	.word	0x000822cd
   8008c:	000822cd 	.word	0x000822cd
   80090:	000822cd 	.word	0x000822cd
   80094:	000822cd 	.word	0x000822cd
   80098:	000822cd 	.word	0x000822cd
   8009c:	000822cd 	.word	0x000822cd
   800a0:	000822cd 	.word	0x000822cd
   800a4:	00000000 	.word	0x00000000
   800a8:	000822cd 	.word	0x000822cd
   800ac:	000822cd 	.word	0x000822cd
   800b0:	000822cd 	.word	0x000822cd
   800b4:	000822cd 	.word	0x000822cd
   800b8:	000822cd 	.word	0x000822cd
   800bc:	000822cd 	.word	0x000822cd
   800c0:	000822cd 	.word	0x000822cd
   800c4:	000822cd 	.word	0x000822cd
   800c8:	000822cd 	.word	0x000822cd
   800cc:	000822cd 	.word	0x000822cd
   800d0:	000822cd 	.word	0x000822cd
   800d4:	000822cd 	.word	0x000822cd
   800d8:	000822cd 	.word	0x000822cd
   800dc:	000822cd 	.word	0x000822cd
   800e0:	000822cd 	.word	0x000822cd
   800e4:	000822cd 	.word	0x000822cd
   800e8:	000822cd 	.word	0x000822cd
   800ec:	000822cd 	.word	0x000822cd
   800f0:	000822cd 	.word	0x000822cd

000800f4 <__do_global_dtors_aux>:
   800f4:	b510      	push	{r4, lr}
   800f6:	4c05      	ldr	r4, [pc, #20]	; (8010c <__do_global_dtors_aux+0x18>)
   800f8:	7823      	ldrb	r3, [r4, #0]
   800fa:	b933      	cbnz	r3, 8010a <__do_global_dtors_aux+0x16>
   800fc:	4b04      	ldr	r3, [pc, #16]	; (80110 <__do_global_dtors_aux+0x1c>)
   800fe:	b113      	cbz	r3, 80106 <__do_global_dtors_aux+0x12>
   80100:	4804      	ldr	r0, [pc, #16]	; (80114 <__do_global_dtors_aux+0x20>)
   80102:	f3af 8000 	nop.w
   80106:	2301      	movs	r3, #1
   80108:	7023      	strb	r3, [r4, #0]
   8010a:	bd10      	pop	{r4, pc}
   8010c:	200709a8 	.word	0x200709a8
   80110:	00000000 	.word	0x00000000
   80114:	00088da4 	.word	0x00088da4

00080118 <frame_dummy>:
   80118:	4b08      	ldr	r3, [pc, #32]	; (8013c <frame_dummy+0x24>)
   8011a:	b510      	push	{r4, lr}
   8011c:	b11b      	cbz	r3, 80126 <frame_dummy+0xe>
   8011e:	4808      	ldr	r0, [pc, #32]	; (80140 <frame_dummy+0x28>)
   80120:	4908      	ldr	r1, [pc, #32]	; (80144 <frame_dummy+0x2c>)
   80122:	f3af 8000 	nop.w
   80126:	4808      	ldr	r0, [pc, #32]	; (80148 <frame_dummy+0x30>)
   80128:	6803      	ldr	r3, [r0, #0]
   8012a:	b903      	cbnz	r3, 8012e <frame_dummy+0x16>
   8012c:	bd10      	pop	{r4, pc}
   8012e:	4b07      	ldr	r3, [pc, #28]	; (8014c <frame_dummy+0x34>)
   80130:	2b00      	cmp	r3, #0
   80132:	d0fb      	beq.n	8012c <frame_dummy+0x14>
   80134:	e8bd 4010 	ldmia.w	sp!, {r4, lr}
   80138:	4718      	bx	r3
   8013a:	bf00      	nop
   8013c:	00000000 	.word	0x00000000
   80140:	00088da4 	.word	0x00088da4
   80144:	200709ac 	.word	0x200709ac
   80148:	00088da4 	.word	0x00088da4
   8014c:	00000000 	.word	0x00000000

00080150 <adc_config>:
   80150:	b538      	push	{r3, r4, r5, lr}
   80152:	4c0f      	ldr	r4, [pc, #60]	; (80190 <adc_config+0x40>)
   80154:	4b0f      	ldr	r3, [pc, #60]	; (80194 <adc_config+0x44>)
   80156:	2025      	movs	r0, #37	; 0x25
   80158:	4798      	blx	r3
   8015a:	4d0f      	ldr	r5, [pc, #60]	; (80198 <adc_config+0x48>)
   8015c:	4620      	mov	r0, r4
   8015e:	490f      	ldr	r1, [pc, #60]	; (8019c <adc_config+0x4c>)
   80160:	4a0f      	ldr	r2, [pc, #60]	; (801a0 <adc_config+0x50>)
   80162:	2300      	movs	r3, #0
   80164:	47a8      	blx	r5
   80166:	2100      	movs	r1, #0
   80168:	460a      	mov	r2, r1
   8016a:	4620      	mov	r0, r4
   8016c:	460b      	mov	r3, r1
   8016e:	4d0d      	ldr	r5, [pc, #52]	; (801a4 <adc_config+0x54>)
   80170:	47a8      	blx	r5
   80172:	4620      	mov	r0, r4
   80174:	2110      	movs	r1, #16
   80176:	4b0c      	ldr	r3, [pc, #48]	; (801a8 <adc_config+0x58>)
   80178:	4798      	blx	r3
   8017a:	4620      	mov	r0, r4
   8017c:	210a      	movs	r1, #10
   8017e:	4b0b      	ldr	r3, [pc, #44]	; (801ac <adc_config+0x5c>)
   80180:	4798      	blx	r3
   80182:	2100      	movs	r1, #0
   80184:	4620      	mov	r0, r4
   80186:	460a      	mov	r2, r1
   80188:	4b09      	ldr	r3, [pc, #36]	; (801b0 <adc_config+0x60>)
   8018a:	4798      	blx	r3
   8018c:	bd38      	pop	{r3, r4, r5, pc}
   8018e:	bf00      	nop
   80190:	400c0000 	.word	0x400c0000
   80194:	00082291 	.word	0x00082291
   80198:	00081b15 	.word	0x00081b15
   8019c:	0a037a00 	.word	0x0a037a00
   801a0:	01312d00 	.word	0x01312d00
   801a4:	00081b65 	.word	0x00081b65
   801a8:	00081b47 	.word	0x00081b47
   801ac:	00081b85 	.word	0x00081b85
   801b0:	00081b57 	.word	0x00081b57

000801b4 <_read>:
   801b4:	b570      	push	{r4, r5, r6, lr}
   801b6:	460e      	mov	r6, r1
   801b8:	4614      	mov	r4, r2
   801ba:	b970      	cbnz	r0, 801da <_read+0x26>
   801bc:	4615      	mov	r5, r2
   801be:	1b61      	subs	r1, r4, r5
   801c0:	2d00      	cmp	r5, #0
   801c2:	4431      	add	r1, r6
   801c4:	dd06      	ble.n	801d4 <_read+0x20>
   801c6:	4b06      	ldr	r3, [pc, #24]	; (801e0 <_read+0x2c>)
   801c8:	3d01      	subs	r5, #1
   801ca:	6818      	ldr	r0, [r3, #0]
   801cc:	4b05      	ldr	r3, [pc, #20]	; (801e4 <_read+0x30>)
   801ce:	681b      	ldr	r3, [r3, #0]
   801d0:	4798      	blx	r3
   801d2:	e7f4      	b.n	801be <_read+0xa>
   801d4:	ea24 70e4 	bic.w	r0, r4, r4, asr #31
   801d8:	bd70      	pop	{r4, r5, r6, pc}
   801da:	f04f 30ff 	mov.w	r0, #4294967295
   801de:	bd70      	pop	{r4, r5, r6, pc}
   801e0:	2007adb4 	.word	0x2007adb4
   801e4:	2007adac 	.word	0x2007adac

000801e8 <USART0_Handler>:
   801e8:	b537      	push	{r0, r1, r2, r4, r5, lr}
   801ea:	4b11      	ldr	r3, [pc, #68]	; (80230 <USART0_Handler+0x48>)
   801ec:	f10d 0107 	add.w	r1, sp, #7
   801f0:	2201      	movs	r2, #1
   801f2:	4810      	ldr	r0, [pc, #64]	; (80234 <USART0_Handler+0x4c>)
   801f4:	4798      	blx	r3
   801f6:	b672      	cpsid	i
   801f8:	f3bf 8f5f 	dmb	sy
   801fc:	490e      	ldr	r1, [pc, #56]	; (80238 <USART0_Handler+0x50>)
   801fe:	f89d 5007 	ldrb.w	r5, [sp, #7]
   80202:	780b      	ldrb	r3, [r1, #0]
   80204:	4c0d      	ldr	r4, [pc, #52]	; (8023c <USART0_Handler+0x54>)
   80206:	2b9b      	cmp	r3, #155	; 0x9b
   80208:	4a0d      	ldr	r2, [pc, #52]	; (80240 <USART0_Handler+0x58>)
   8020a:	54e5      	strb	r5, [r4, r3]
   8020c:	bf18      	it	ne
   8020e:	3301      	addne	r3, #1
   80210:	f04f 0000 	mov.w	r0, #0
   80214:	bf18      	it	ne
   80216:	700b      	strbne	r3, [r1, #0]
   80218:	f04f 0301 	mov.w	r3, #1
   8021c:	7010      	strb	r0, [r2, #0]
   8021e:	bf08      	it	eq
   80220:	7008      	strbeq	r0, [r1, #0]
   80222:	7013      	strb	r3, [r2, #0]
   80224:	f3bf 8f5f 	dmb	sy
   80228:	b662      	cpsie	i
   8022a:	b003      	add	sp, #12
   8022c:	bd30      	pop	{r4, r5, pc}
   8022e:	bf00      	nop
   80230:	00081bbd 	.word	0x00081bbd
   80234:	40098000 	.word	0x40098000
   80238:	20070a60 	.word	0x20070a60
   8023c:	200709c4 	.word	0x200709c4
   80240:	200700f8 	.word	0x200700f8

00080244 <motorshield_init>:
   80244:	4b09      	ldr	r3, [pc, #36]	; (8026c <motorshield_init+0x28>)
   80246:	f04f 6280 	mov.w	r2, #67108864	; 0x4000000
   8024a:	615a      	str	r2, [r3, #20]
   8024c:	f8c3 20a0 	str.w	r2, [r3, #160]	; 0xa0
   80250:	4a07      	ldr	r2, [pc, #28]	; (80270 <motorshield_init+0x2c>)
   80252:	f44f 0180 	mov.w	r1, #4194304	; 0x400000
   80256:	6111      	str	r1, [r2, #16]
   80258:	f8c2 10a0 	str.w	r1, [r2, #160]	; 0xa0
   8025c:	6351      	str	r1, [r2, #52]	; 0x34
   8025e:	f04f 6200 	mov.w	r2, #134217728	; 0x8000000
   80262:	611a      	str	r2, [r3, #16]
   80264:	f8c3 20a0 	str.w	r2, [r3, #160]	; 0xa0
   80268:	631a      	str	r2, [r3, #48]	; 0x30
   8026a:	4770      	bx	lr
   8026c:	400e1000 	.word	0x400e1000
   80270:	400e1200 	.word	0x400e1200

00080274 <pwm_config>:
   80274:	b51f      	push	{r0, r1, r2, r3, r4, lr}
   80276:	2024      	movs	r0, #36	; 0x24
   80278:	4b17      	ldr	r3, [pc, #92]	; (802d8 <pwm_config+0x64>)
   8027a:	4798      	blx	r3
   8027c:	4604      	mov	r4, r0
   8027e:	2800      	cmp	r0, #0
   80280:	d126      	bne.n	802d0 <pwm_config+0x5c>
   80282:	4816      	ldr	r0, [pc, #88]	; (802dc <pwm_config+0x68>)
   80284:	4621      	mov	r1, r4
   80286:	4b16      	ldr	r3, [pc, #88]	; (802e0 <pwm_config+0x6c>)
   80288:	4798      	blx	r3
   8028a:	4b16      	ldr	r3, [pc, #88]	; (802e4 <pwm_config+0x70>)
   8028c:	a901      	add	r1, sp, #4
   8028e:	9301      	str	r3, [sp, #4]
   80290:	4b15      	ldr	r3, [pc, #84]	; (802e8 <pwm_config+0x74>)
   80292:	4812      	ldr	r0, [pc, #72]	; (802dc <pwm_config+0x68>)
   80294:	9303      	str	r3, [sp, #12]
   80296:	4b15      	ldr	r3, [pc, #84]	; (802ec <pwm_config+0x78>)
   80298:	9402      	str	r4, [sp, #8]
   8029a:	4798      	blx	r3
   8029c:	4914      	ldr	r1, [pc, #80]	; (802f0 <pwm_config+0x7c>)
   8029e:	230b      	movs	r3, #11
   802a0:	604b      	str	r3, [r1, #4]
   802a2:	f240 33e7 	movw	r3, #999	; 0x3e7
   802a6:	480d      	ldr	r0, [pc, #52]	; (802dc <pwm_config+0x68>)
   802a8:	610b      	str	r3, [r1, #16]
   802aa:	4b12      	ldr	r3, [pc, #72]	; (802f4 <pwm_config+0x80>)
   802ac:	810c      	strh	r4, [r1, #8]
   802ae:	728c      	strb	r4, [r1, #10]
   802b0:	60cc      	str	r4, [r1, #12]
   802b2:	600c      	str	r4, [r1, #0]
   802b4:	4798      	blx	r3
   802b6:	4810      	ldr	r0, [pc, #64]	; (802f8 <pwm_config+0x84>)
   802b8:	f04f 5180 	mov.w	r1, #268435456	; 0x10000000
   802bc:	f44f 3280 	mov.w	r2, #65536	; 0x10000
   802c0:	4b0e      	ldr	r3, [pc, #56]	; (802fc <pwm_config+0x88>)
   802c2:	4798      	blx	r3
   802c4:	4805      	ldr	r0, [pc, #20]	; (802dc <pwm_config+0x68>)
   802c6:	4621      	mov	r1, r4
   802c8:	4b0d      	ldr	r3, [pc, #52]	; (80300 <pwm_config+0x8c>)
   802ca:	4798      	blx	r3
   802cc:	4620      	mov	r0, r4
   802ce:	e000      	b.n	802d2 <pwm_config+0x5e>
   802d0:	2001      	movs	r0, #1
   802d2:	b004      	add	sp, #16
   802d4:	bd10      	pop	{r4, pc}
   802d6:	bf00      	nop
   802d8:	00082291 	.word	0x00082291
   802dc:	40094000 	.word	0x40094000
   802e0:	00081e03 	.word	0x00081e03
   802e4:	000f3e58 	.word	0x000f3e58
   802e8:	0501bd00 	.word	0x0501bd00
   802ec:	00081ca5 	.word	0x00081ca5
   802f0:	20070a64 	.word	0x20070a64
   802f4:	00081ce5 	.word	0x00081ce5
   802f8:	400e1000 	.word	0x400e1000
   802fc:	00081f45 	.word	0x00081f45
   80300:	00081dfb 	.word	0x00081dfb

00080304 <pwm_set_value>:
   80304:	f240 32e7 	movw	r2, #999	; 0x3e7
   80308:	b508      	push	{r3, lr}
   8030a:	4282      	cmp	r2, r0
   8030c:	bf28      	it	cs
   8030e:	4602      	movcs	r2, r0
   80310:	4902      	ldr	r1, [pc, #8]	; (8031c <pwm_set_value+0x18>)
   80312:	4b03      	ldr	r3, [pc, #12]	; (80320 <pwm_set_value+0x1c>)
   80314:	4803      	ldr	r0, [pc, #12]	; (80324 <pwm_set_value+0x20>)
   80316:	4798      	blx	r3
   80318:	bd08      	pop	{r3, pc}
   8031a:	bf00      	nop
   8031c:	20070a64 	.word	0x20070a64
   80320:	00081ddd 	.word	0x00081ddd
   80324:	40094000 	.word	0x40094000

00080328 <task_com>:
   80328:	b530      	push	{r4, r5, lr}
   8032a:	b09b      	sub	sp, #108	; 0x6c
   8032c:	2100      	movs	r1, #0
   8032e:	2264      	movs	r2, #100	; 0x64
   80330:	4b12      	ldr	r3, [pc, #72]	; (8037c <task_com+0x54>)
   80332:	a801      	add	r0, sp, #4
   80334:	4798      	blx	r3
   80336:	4b12      	ldr	r3, [pc, #72]	; (80380 <task_com+0x58>)
   80338:	4798      	blx	r3
   8033a:	9000      	str	r0, [sp, #0]
   8033c:	4c11      	ldr	r4, [pc, #68]	; (80384 <task_com+0x5c>)
   8033e:	2100      	movs	r1, #0
   80340:	6820      	ldr	r0, [r4, #0]
   80342:	f04f 32ff 	mov.w	r2, #4294967295
   80346:	460b      	mov	r3, r1
   80348:	4d0f      	ldr	r5, [pc, #60]	; (80388 <task_com+0x60>)
   8034a:	47a8      	blx	r5
   8034c:	b180      	cbz	r0, 80370 <task_com+0x48>
   8034e:	4b0f      	ldr	r3, [pc, #60]	; (8038c <task_com+0x64>)
   80350:	a901      	add	r1, sp, #4
   80352:	220a      	movs	r2, #10
   80354:	8818      	ldrh	r0, [r3, #0]
   80356:	4b0e      	ldr	r3, [pc, #56]	; (80390 <task_com+0x68>)
   80358:	4798      	blx	r3
   8035a:	4d0e      	ldr	r5, [pc, #56]	; (80394 <task_com+0x6c>)
   8035c:	a801      	add	r0, sp, #4
   8035e:	47a8      	blx	r5
   80360:	480d      	ldr	r0, [pc, #52]	; (80398 <task_com+0x70>)
   80362:	47a8      	blx	r5
   80364:	2100      	movs	r1, #0
   80366:	6820      	ldr	r0, [r4, #0]
   80368:	460a      	mov	r2, r1
   8036a:	460b      	mov	r3, r1
   8036c:	4c0b      	ldr	r4, [pc, #44]	; (8039c <task_com+0x74>)
   8036e:	47a0      	blx	r4
   80370:	4668      	mov	r0, sp
   80372:	2132      	movs	r1, #50	; 0x32
   80374:	4b0a      	ldr	r3, [pc, #40]	; (803a0 <task_com+0x78>)
   80376:	4798      	blx	r3
   80378:	e7e0      	b.n	8033c <task_com+0x14>
   8037a:	bf00      	nop
   8037c:	00082dc5 	.word	0x00082dc5
   80380:	0008117d 	.word	0x0008117d
   80384:	20070100 	.word	0x20070100
   80388:	00080d41 	.word	0x00080d41
   8038c:	2007ac48 	.word	0x2007ac48
   80390:	00082cd5 	.word	0x00082cd5
   80394:	00082c7d 	.word	0x00082c7d
   80398:	00088940 	.word	0x00088940
   8039c:	00080ba9 	.word	0x00080ba9
   803a0:	00081371 	.word	0x00081371

000803a4 <task_reg>:
   803a4:	b537      	push	{r0, r1, r2, r4, r5, lr}
   803a6:	4b18      	ldr	r3, [pc, #96]	; (80408 <task_reg+0x64>)
   803a8:	881d      	ldrh	r5, [r3, #0]
   803aa:	4b18      	ldr	r3, [pc, #96]	; (8040c <task_reg+0x68>)
   803ac:	4798      	blx	r3
   803ae:	9001      	str	r0, [sp, #4]
   803b0:	4817      	ldr	r0, [pc, #92]	; (80410 <task_reg+0x6c>)
   803b2:	4b18      	ldr	r3, [pc, #96]	; (80414 <task_reg+0x70>)
   803b4:	4798      	blx	r3
   803b6:	4b18      	ldr	r3, [pc, #96]	; (80418 <task_reg+0x74>)
   803b8:	4815      	ldr	r0, [pc, #84]	; (80410 <task_reg+0x6c>)
   803ba:	4798      	blx	r3
   803bc:	01c3      	lsls	r3, r0, #7
   803be:	d5fa      	bpl.n	803b6 <task_reg+0x12>
   803c0:	4b16      	ldr	r3, [pc, #88]	; (8041c <task_reg+0x78>)
   803c2:	4813      	ldr	r0, [pc, #76]	; (80410 <task_reg+0x6c>)
   803c4:	4798      	blx	r3
   803c6:	230a      	movs	r3, #10
   803c8:	b280      	uxth	r0, r0
   803ca:	fbb0 f0f3 	udiv	r0, r0, r3
   803ce:	4b14      	ldr	r3, [pc, #80]	; (80420 <task_reg+0x7c>)
   803d0:	f833 4010 	ldrh.w	r4, [r3, r0, lsl #1]
   803d4:	4b13      	ldr	r3, [pc, #76]	; (80424 <task_reg+0x80>)
   803d6:	8818      	ldrh	r0, [r3, #0]
   803d8:	4b13      	ldr	r3, [pc, #76]	; (80428 <task_reg+0x84>)
   803da:	1b00      	subs	r0, r0, r4
   803dc:	b200      	sxth	r0, r0
   803de:	4798      	blx	r3
   803e0:	4b12      	ldr	r3, [pc, #72]	; (8042c <task_reg+0x88>)
   803e2:	6819      	ldr	r1, [r3, #0]
   803e4:	4b12      	ldr	r3, [pc, #72]	; (80430 <task_reg+0x8c>)
   803e6:	4798      	blx	r3
   803e8:	4b12      	ldr	r3, [pc, #72]	; (80434 <task_reg+0x90>)
   803ea:	4601      	mov	r1, r0
   803ec:	4812      	ldr	r0, [pc, #72]	; (80438 <task_reg+0x94>)
   803ee:	4798      	blx	r3
   803f0:	4b12      	ldr	r3, [pc, #72]	; (8043c <task_reg+0x98>)
   803f2:	4798      	blx	r3
   803f4:	4b12      	ldr	r3, [pc, #72]	; (80440 <task_reg+0x9c>)
   803f6:	b280      	uxth	r0, r0
   803f8:	801c      	strh	r4, [r3, #0]
   803fa:	4b12      	ldr	r3, [pc, #72]	; (80444 <task_reg+0xa0>)
   803fc:	4798      	blx	r3
   803fe:	a801      	add	r0, sp, #4
   80400:	4629      	mov	r1, r5
   80402:	4b11      	ldr	r3, [pc, #68]	; (80448 <task_reg+0xa4>)
   80404:	4798      	blx	r3
   80406:	e7d3      	b.n	803b0 <task_reg+0xc>
   80408:	2007ae8c 	.word	0x2007ae8c
   8040c:	0008117d 	.word	0x0008117d
   80410:	400c0000 	.word	0x400c0000
   80414:	00081b7f 	.word	0x00081b7f
   80418:	00081b91 	.word	0x00081b91
   8041c:	00081b8d 	.word	0x00081b8d
   80420:	2007acae 	.word	0x2007acae
   80424:	2007ae80 	.word	0x2007ae80
   80428:	000827ed 	.word	0x000827ed
   8042c:	2007ae90 	.word	0x2007ae90
   80430:	00082895 	.word	0x00082895
   80434:	00082681 	.word	0x00082681
   80438:	43fa0000 	.word	0x43fa0000
   8043c:	00082b81 	.word	0x00082b81
   80440:	2007ac48 	.word	0x2007ac48
   80444:	00080305 	.word	0x00080305
   80448:	00081371 	.word	0x00081371

0008044c <usart_serial_getchar>:
   8044c:	b513      	push	{r0, r1, r4, lr}
   8044e:	2300      	movs	r3, #0
   80450:	9301      	str	r3, [sp, #4]
   80452:	4b1b      	ldr	r3, [pc, #108]	; (804c0 <usart_serial_getchar+0x74>)
   80454:	460c      	mov	r4, r1
   80456:	4298      	cmp	r0, r3
   80458:	d106      	bne.n	80468 <usart_serial_getchar+0x1c>
   8045a:	4819      	ldr	r0, [pc, #100]	; (804c0 <usart_serial_getchar+0x74>)
   8045c:	4621      	mov	r1, r4
   8045e:	4b19      	ldr	r3, [pc, #100]	; (804c4 <usart_serial_getchar+0x78>)
   80460:	4798      	blx	r3
   80462:	2800      	cmp	r0, #0
   80464:	d1f9      	bne.n	8045a <usart_serial_getchar+0xe>
   80466:	e028      	b.n	804ba <usart_serial_getchar+0x6e>
   80468:	4b17      	ldr	r3, [pc, #92]	; (804c8 <usart_serial_getchar+0x7c>)
   8046a:	4298      	cmp	r0, r3
   8046c:	d106      	bne.n	8047c <usart_serial_getchar+0x30>
   8046e:	4816      	ldr	r0, [pc, #88]	; (804c8 <usart_serial_getchar+0x7c>)
   80470:	a901      	add	r1, sp, #4
   80472:	4b16      	ldr	r3, [pc, #88]	; (804cc <usart_serial_getchar+0x80>)
   80474:	4798      	blx	r3
   80476:	2800      	cmp	r0, #0
   80478:	d1f9      	bne.n	8046e <usart_serial_getchar+0x22>
   8047a:	e01c      	b.n	804b6 <usart_serial_getchar+0x6a>
   8047c:	4b14      	ldr	r3, [pc, #80]	; (804d0 <usart_serial_getchar+0x84>)
   8047e:	4298      	cmp	r0, r3
   80480:	d106      	bne.n	80490 <usart_serial_getchar+0x44>
   80482:	4813      	ldr	r0, [pc, #76]	; (804d0 <usart_serial_getchar+0x84>)
   80484:	a901      	add	r1, sp, #4
   80486:	4b11      	ldr	r3, [pc, #68]	; (804cc <usart_serial_getchar+0x80>)
   80488:	4798      	blx	r3
   8048a:	2800      	cmp	r0, #0
   8048c:	d1f9      	bne.n	80482 <usart_serial_getchar+0x36>
   8048e:	e012      	b.n	804b6 <usart_serial_getchar+0x6a>
   80490:	4b10      	ldr	r3, [pc, #64]	; (804d4 <usart_serial_getchar+0x88>)
   80492:	4298      	cmp	r0, r3
   80494:	d106      	bne.n	804a4 <usart_serial_getchar+0x58>
   80496:	480f      	ldr	r0, [pc, #60]	; (804d4 <usart_serial_getchar+0x88>)
   80498:	a901      	add	r1, sp, #4
   8049a:	4b0c      	ldr	r3, [pc, #48]	; (804cc <usart_serial_getchar+0x80>)
   8049c:	4798      	blx	r3
   8049e:	2800      	cmp	r0, #0
   804a0:	d1f9      	bne.n	80496 <usart_serial_getchar+0x4a>
   804a2:	e008      	b.n	804b6 <usart_serial_getchar+0x6a>
   804a4:	4b0c      	ldr	r3, [pc, #48]	; (804d8 <usart_serial_getchar+0x8c>)
   804a6:	4298      	cmp	r0, r3
   804a8:	d107      	bne.n	804ba <usart_serial_getchar+0x6e>
   804aa:	480b      	ldr	r0, [pc, #44]	; (804d8 <usart_serial_getchar+0x8c>)
   804ac:	a901      	add	r1, sp, #4
   804ae:	4b07      	ldr	r3, [pc, #28]	; (804cc <usart_serial_getchar+0x80>)
   804b0:	4798      	blx	r3
   804b2:	2800      	cmp	r0, #0
   804b4:	d1f9      	bne.n	804aa <usart_serial_getchar+0x5e>
   804b6:	9b01      	ldr	r3, [sp, #4]
   804b8:	7023      	strb	r3, [r4, #0]
   804ba:	b002      	add	sp, #8
   804bc:	bd10      	pop	{r4, pc}
   804be:	bf00      	nop
   804c0:	400e0800 	.word	0x400e0800
   804c4:	00081e4f 	.word	0x00081e4f
   804c8:	40098000 	.word	0x40098000
   804cc:	00081ba7 	.word	0x00081ba7
   804d0:	4009c000 	.word	0x4009c000
   804d4:	400a0000 	.word	0x400a0000
   804d8:	400a4000 	.word	0x400a4000

000804dc <usart_serial_putchar>:
   804dc:	4b1b      	ldr	r3, [pc, #108]	; (8054c <usart_serial_putchar+0x70>)
   804de:	b510      	push	{r4, lr}
   804e0:	4298      	cmp	r0, r3
   804e2:	460c      	mov	r4, r1
   804e4:	d107      	bne.n	804f6 <usart_serial_putchar+0x1a>
   804e6:	4819      	ldr	r0, [pc, #100]	; (8054c <usart_serial_putchar+0x70>)
   804e8:	4621      	mov	r1, r4
   804ea:	4b19      	ldr	r3, [pc, #100]	; (80550 <usart_serial_putchar+0x74>)
   804ec:	4798      	blx	r3
   804ee:	2800      	cmp	r0, #0
   804f0:	d1f9      	bne.n	804e6 <usart_serial_putchar+0xa>
   804f2:	2001      	movs	r0, #1
   804f4:	bd10      	pop	{r4, pc}
   804f6:	4b17      	ldr	r3, [pc, #92]	; (80554 <usart_serial_putchar+0x78>)
   804f8:	4298      	cmp	r0, r3
   804fa:	d106      	bne.n	8050a <usart_serial_putchar+0x2e>
   804fc:	4815      	ldr	r0, [pc, #84]	; (80554 <usart_serial_putchar+0x78>)
   804fe:	4621      	mov	r1, r4
   80500:	4b15      	ldr	r3, [pc, #84]	; (80558 <usart_serial_putchar+0x7c>)
   80502:	4798      	blx	r3
   80504:	2800      	cmp	r0, #0
   80506:	d1f9      	bne.n	804fc <usart_serial_putchar+0x20>
   80508:	e7f3      	b.n	804f2 <usart_serial_putchar+0x16>
   8050a:	4b14      	ldr	r3, [pc, #80]	; (8055c <usart_serial_putchar+0x80>)
   8050c:	4298      	cmp	r0, r3
   8050e:	d106      	bne.n	8051e <usart_serial_putchar+0x42>
   80510:	4812      	ldr	r0, [pc, #72]	; (8055c <usart_serial_putchar+0x80>)
   80512:	4621      	mov	r1, r4
   80514:	4b10      	ldr	r3, [pc, #64]	; (80558 <usart_serial_putchar+0x7c>)
   80516:	4798      	blx	r3
   80518:	2800      	cmp	r0, #0
   8051a:	d1f9      	bne.n	80510 <usart_serial_putchar+0x34>
   8051c:	e7e9      	b.n	804f2 <usart_serial_putchar+0x16>
   8051e:	4b10      	ldr	r3, [pc, #64]	; (80560 <usart_serial_putchar+0x84>)
   80520:	4298      	cmp	r0, r3
   80522:	d106      	bne.n	80532 <usart_serial_putchar+0x56>
   80524:	480e      	ldr	r0, [pc, #56]	; (80560 <usart_serial_putchar+0x84>)
   80526:	4621      	mov	r1, r4
   80528:	4b0b      	ldr	r3, [pc, #44]	; (80558 <usart_serial_putchar+0x7c>)
   8052a:	4798      	blx	r3
   8052c:	2800      	cmp	r0, #0
   8052e:	d1f9      	bne.n	80524 <usart_serial_putchar+0x48>
   80530:	e7df      	b.n	804f2 <usart_serial_putchar+0x16>
   80532:	4b0c      	ldr	r3, [pc, #48]	; (80564 <usart_serial_putchar+0x88>)
   80534:	4298      	cmp	r0, r3
   80536:	d106      	bne.n	80546 <usart_serial_putchar+0x6a>
   80538:	480a      	ldr	r0, [pc, #40]	; (80564 <usart_serial_putchar+0x88>)
   8053a:	4621      	mov	r1, r4
   8053c:	4b06      	ldr	r3, [pc, #24]	; (80558 <usart_serial_putchar+0x7c>)
   8053e:	4798      	blx	r3
   80540:	2800      	cmp	r0, #0
   80542:	d1f9      	bne.n	80538 <usart_serial_putchar+0x5c>
   80544:	e7d5      	b.n	804f2 <usart_serial_putchar+0x16>
   80546:	2000      	movs	r0, #0
   80548:	bd10      	pop	{r4, pc}
   8054a:	bf00      	nop
   8054c:	400e0800 	.word	0x400e0800
   80550:	00081e41 	.word	0x00081e41
   80554:	40098000 	.word	0x40098000
   80558:	00081b95 	.word	0x00081b95
   8055c:	4009c000 	.word	0x4009c000
   80560:	400a0000 	.word	0x400a0000
   80564:	400a4000 	.word	0x400a4000

00080568 <param_init>:
   80568:	b5f0      	push	{r4, r5, r6, r7, lr}
   8056a:	b08f      	sub	sp, #60	; 0x3c
   8056c:	2232      	movs	r2, #50	; 0x32
   8056e:	4b23      	ldr	r3, [pc, #140]	; (805fc <param_init+0x94>)
   80570:	2100      	movs	r1, #0
   80572:	a801      	add	r0, sp, #4
   80574:	4798      	blx	r3
   80576:	4c22      	ldr	r4, [pc, #136]	; (80600 <param_init+0x98>)
   80578:	a801      	add	r0, sp, #4
   8057a:	4d22      	ldr	r5, [pc, #136]	; (80604 <param_init+0x9c>)
   8057c:	47a0      	blx	r4
   8057e:	a801      	add	r0, sp, #4
   80580:	47a8      	blx	r5
   80582:	4f21      	ldr	r7, [pc, #132]	; (80608 <param_init+0xa0>)
   80584:	47b8      	blx	r7
   80586:	4e21      	ldr	r6, [pc, #132]	; (8060c <param_init+0xa4>)
   80588:	4921      	ldr	r1, [pc, #132]	; (80610 <param_init+0xa8>)
   8058a:	47b0      	blx	r6
   8058c:	4b21      	ldr	r3, [pc, #132]	; (80614 <param_init+0xac>)
   8058e:	6018      	str	r0, [r3, #0]
   80590:	a801      	add	r0, sp, #4
   80592:	47a0      	blx	r4
   80594:	a801      	add	r0, sp, #4
   80596:	47a8      	blx	r5
   80598:	47b8      	blx	r7
   8059a:	491d      	ldr	r1, [pc, #116]	; (80610 <param_init+0xa8>)
   8059c:	47b0      	blx	r6
   8059e:	4b1e      	ldr	r3, [pc, #120]	; (80618 <param_init+0xb0>)
   805a0:	6018      	str	r0, [r3, #0]
   805a2:	a801      	add	r0, sp, #4
   805a4:	47a0      	blx	r4
   805a6:	a801      	add	r0, sp, #4
   805a8:	47a8      	blx	r5
   805aa:	47b8      	blx	r7
   805ac:	4918      	ldr	r1, [pc, #96]	; (80610 <param_init+0xa8>)
   805ae:	47b0      	blx	r6
   805b0:	4b1a      	ldr	r3, [pc, #104]	; (8061c <param_init+0xb4>)
   805b2:	f44f 767a 	mov.w	r6, #1000	; 0x3e8
   805b6:	6018      	str	r0, [r3, #0]
   805b8:	a801      	add	r0, sp, #4
   805ba:	47a0      	blx	r4
   805bc:	a801      	add	r0, sp, #4
   805be:	47a8      	blx	r5
   805c0:	fb90 f0f6 	sdiv	r0, r0, r6
   805c4:	4b16      	ldr	r3, [pc, #88]	; (80620 <param_init+0xb8>)
   805c6:	8018      	strh	r0, [r3, #0]
   805c8:	a801      	add	r0, sp, #4
   805ca:	47a0      	blx	r4
   805cc:	a801      	add	r0, sp, #4
   805ce:	47a8      	blx	r5
   805d0:	fb90 f0f6 	sdiv	r0, r0, r6
   805d4:	4b13      	ldr	r3, [pc, #76]	; (80624 <param_init+0xbc>)
   805d6:	2500      	movs	r5, #0
   805d8:	8018      	strh	r0, [r3, #0]
   805da:	a801      	add	r0, sp, #4
   805dc:	47a0      	blx	r4
   805de:	4b12      	ldr	r3, [pc, #72]	; (80628 <param_init+0xc0>)
   805e0:	a801      	add	r0, sp, #4
   805e2:	4798      	blx	r3
   805e4:	4b11      	ldr	r3, [pc, #68]	; (8062c <param_init+0xc4>)
   805e6:	4798      	blx	r3
   805e8:	4b11      	ldr	r3, [pc, #68]	; (80630 <param_init+0xc8>)
   805ea:	4798      	blx	r3
   805ec:	4b11      	ldr	r3, [pc, #68]	; (80634 <param_init+0xcc>)
   805ee:	f823 0015 	strh.w	r0, [r3, r5, lsl #1]
   805f2:	3501      	adds	r5, #1
   805f4:	2d64      	cmp	r5, #100	; 0x64
   805f6:	d1f0      	bne.n	805da <param_init+0x72>
   805f8:	b00f      	add	sp, #60	; 0x3c
   805fa:	bdf0      	pop	{r4, r5, r6, r7, pc}
   805fc:	00082dc5 	.word	0x00082dc5
   80600:	00082c1d 	.word	0x00082c1d
   80604:	00082bc9 	.word	0x00082bc9
   80608:	000827ed 	.word	0x000827ed
   8060c:	000829fd 	.word	0x000829fd
   80610:	447a0000 	.word	0x447a0000
   80614:	2007ae90 	.word	0x2007ae90
   80618:	2007ae88 	.word	0x2007ae88
   8061c:	2007ae84 	.word	0x2007ae84
   80620:	2007ae80 	.word	0x2007ae80
   80624:	2007ae8c 	.word	0x2007ae8c
   80628:	00082bc1 	.word	0x00082bc1
   8062c:	000825d9 	.word	0x000825d9
   80630:	00082b81 	.word	0x00082b81
   80634:	2007acae 	.word	0x2007acae

00080638 <configure_console>:
   80638:	b530      	push	{r4, r5, lr}
   8063a:	2008      	movs	r0, #8
   8063c:	b085      	sub	sp, #20
   8063e:	4d12      	ldr	r5, [pc, #72]	; (80688 <configure_console+0x50>)
   80640:	47a8      	blx	r5
   80642:	4c12      	ldr	r4, [pc, #72]	; (8068c <configure_console+0x54>)
   80644:	4b12      	ldr	r3, [pc, #72]	; (80690 <configure_console+0x58>)
   80646:	4a13      	ldr	r2, [pc, #76]	; (80694 <configure_console+0x5c>)
   80648:	601c      	str	r4, [r3, #0]
   8064a:	4b13      	ldr	r3, [pc, #76]	; (80698 <configure_console+0x60>)
   8064c:	2008      	movs	r0, #8
   8064e:	601a      	str	r2, [r3, #0]
   80650:	4a12      	ldr	r2, [pc, #72]	; (8069c <configure_console+0x64>)
   80652:	4b13      	ldr	r3, [pc, #76]	; (806a0 <configure_console+0x68>)
   80654:	601a      	str	r2, [r3, #0]
   80656:	4b13      	ldr	r3, [pc, #76]	; (806a4 <configure_console+0x6c>)
   80658:	9301      	str	r3, [sp, #4]
   8065a:	f44f 33e1 	mov.w	r3, #115200	; 0x1c200
   8065e:	9302      	str	r3, [sp, #8]
   80660:	f44f 6300 	mov.w	r3, #2048	; 0x800
   80664:	9303      	str	r3, [sp, #12]
   80666:	47a8      	blx	r5
   80668:	4d0f      	ldr	r5, [pc, #60]	; (806a8 <configure_console+0x70>)
   8066a:	a901      	add	r1, sp, #4
   8066c:	4620      	mov	r0, r4
   8066e:	4b0f      	ldr	r3, [pc, #60]	; (806ac <configure_console+0x74>)
   80670:	4798      	blx	r3
   80672:	682b      	ldr	r3, [r5, #0]
   80674:	4c0e      	ldr	r4, [pc, #56]	; (806b0 <configure_console+0x78>)
   80676:	6898      	ldr	r0, [r3, #8]
   80678:	2100      	movs	r1, #0
   8067a:	47a0      	blx	r4
   8067c:	682b      	ldr	r3, [r5, #0]
   8067e:	2100      	movs	r1, #0
   80680:	6858      	ldr	r0, [r3, #4]
   80682:	47a0      	blx	r4
   80684:	b005      	add	sp, #20
   80686:	bd30      	pop	{r4, r5, pc}
   80688:	00082291 	.word	0x00082291
   8068c:	400e0800 	.word	0x400e0800
   80690:	2007adb4 	.word	0x2007adb4
   80694:	000804dd 	.word	0x000804dd
   80698:	2007adb0 	.word	0x2007adb0
   8069c:	0008044d 	.word	0x0008044d
   806a0:	2007adac 	.word	0x2007adac
   806a4:	0501bd00 	.word	0x0501bd00
   806a8:	20070530 	.word	0x20070530
   806ac:	00081e0b 	.word	0x00081e0b
   806b0:	00082e95 	.word	0x00082e95

000806b4 <vListInitialise>:
   806b4:	f100 0308 	add.w	r3, r0, #8
   806b8:	f04f 32ff 	mov.w	r2, #4294967295
   806bc:	6082      	str	r2, [r0, #8]
   806be:	6043      	str	r3, [r0, #4]
   806c0:	60c3      	str	r3, [r0, #12]
   806c2:	6103      	str	r3, [r0, #16]
   806c4:	2300      	movs	r3, #0
   806c6:	6003      	str	r3, [r0, #0]
   806c8:	4770      	bx	lr

000806ca <vListInitialiseItem>:
   806ca:	2300      	movs	r3, #0
   806cc:	6103      	str	r3, [r0, #16]
   806ce:	4770      	bx	lr

000806d0 <vListInsertEnd>:
   806d0:	6843      	ldr	r3, [r0, #4]
   806d2:	685a      	ldr	r2, [r3, #4]
   806d4:	604a      	str	r2, [r1, #4]
   806d6:	6842      	ldr	r2, [r0, #4]
   806d8:	608a      	str	r2, [r1, #8]
   806da:	685a      	ldr	r2, [r3, #4]
   806dc:	6091      	str	r1, [r2, #8]
   806de:	6059      	str	r1, [r3, #4]
   806e0:	6041      	str	r1, [r0, #4]
   806e2:	6108      	str	r0, [r1, #16]
   806e4:	6803      	ldr	r3, [r0, #0]
   806e6:	3301      	adds	r3, #1
   806e8:	6003      	str	r3, [r0, #0]
   806ea:	4770      	bx	lr

000806ec <vListInsert>:
   806ec:	680a      	ldr	r2, [r1, #0]
   806ee:	b510      	push	{r4, lr}
   806f0:	1c53      	adds	r3, r2, #1
   806f2:	d101      	bne.n	806f8 <vListInsert+0xc>
   806f4:	6903      	ldr	r3, [r0, #16]
   806f6:	e007      	b.n	80708 <vListInsert+0x1c>
   806f8:	f100 0308 	add.w	r3, r0, #8
   806fc:	685c      	ldr	r4, [r3, #4]
   806fe:	6824      	ldr	r4, [r4, #0]
   80700:	4294      	cmp	r4, r2
   80702:	d801      	bhi.n	80708 <vListInsert+0x1c>
   80704:	685b      	ldr	r3, [r3, #4]
   80706:	e7f9      	b.n	806fc <vListInsert+0x10>
   80708:	685a      	ldr	r2, [r3, #4]
   8070a:	604a      	str	r2, [r1, #4]
   8070c:	6091      	str	r1, [r2, #8]
   8070e:	608b      	str	r3, [r1, #8]
   80710:	6059      	str	r1, [r3, #4]
   80712:	6108      	str	r0, [r1, #16]
   80714:	6803      	ldr	r3, [r0, #0]
   80716:	3301      	adds	r3, #1
   80718:	6003      	str	r3, [r0, #0]
   8071a:	bd10      	pop	{r4, pc}

0008071c <uxListRemove>:
   8071c:	6843      	ldr	r3, [r0, #4]
   8071e:	6882      	ldr	r2, [r0, #8]
   80720:	609a      	str	r2, [r3, #8]
   80722:	6883      	ldr	r3, [r0, #8]
   80724:	6842      	ldr	r2, [r0, #4]
   80726:	605a      	str	r2, [r3, #4]
   80728:	6903      	ldr	r3, [r0, #16]
   8072a:	685a      	ldr	r2, [r3, #4]
   8072c:	4282      	cmp	r2, r0
   8072e:	bf04      	itt	eq
   80730:	6882      	ldreq	r2, [r0, #8]
   80732:	605a      	streq	r2, [r3, #4]
   80734:	2200      	movs	r2, #0
   80736:	6102      	str	r2, [r0, #16]
   80738:	681a      	ldr	r2, [r3, #0]
   8073a:	3a01      	subs	r2, #1
   8073c:	601a      	str	r2, [r3, #0]
   8073e:	6818      	ldr	r0, [r3, #0]
   80740:	4770      	bx	lr
	...

00080744 <prvPortStartFirstTask>:
   80744:	4803      	ldr	r0, [pc, #12]	; (80754 <prvPortStartFirstTask+0x10>)
   80746:	6800      	ldr	r0, [r0, #0]
   80748:	6800      	ldr	r0, [r0, #0]
   8074a:	f380 8808 	msr	MSP, r0
   8074e:	b662      	cpsie	i
   80750:	df00      	svc	0
   80752:	bf00      	nop
   80754:	e000ed08 	.word	0xe000ed08

00080758 <pxPortInitialiseStack>:
   80758:	f04f 7380 	mov.w	r3, #16777216	; 0x1000000
   8075c:	e900 000a 	stmdb	r0, {r1, r3}
   80760:	2300      	movs	r3, #0
   80762:	f840 3c0c 	str.w	r3, [r0, #-12]
   80766:	f840 2c20 	str.w	r2, [r0, #-32]
   8076a:	3840      	subs	r0, #64	; 0x40
   8076c:	4770      	bx	lr
	...

00080770 <SVC_Handler>:
   80770:	4b06      	ldr	r3, [pc, #24]	; (8078c <pxCurrentTCBConst2>)
   80772:	6819      	ldr	r1, [r3, #0]
   80774:	6808      	ldr	r0, [r1, #0]
   80776:	e8b0 0ff0 	ldmia.w	r0!, {r4, r5, r6, r7, r8, r9, sl, fp}
   8077a:	f380 8809 	msr	PSP, r0
   8077e:	f04f 0000 	mov.w	r0, #0
   80782:	f380 8811 	msr	BASEPRI, r0
   80786:	f04e 0e0d 	orr.w	lr, lr, #13
   8078a:	4770      	bx	lr

0008078c <pxCurrentTCBConst2>:
   8078c:	2007ab64 	.word	0x2007ab64

00080790 <vPortYieldFromISR>:
   80790:	4b02      	ldr	r3, [pc, #8]	; (8079c <vPortYieldFromISR+0xc>)
   80792:	f04f 5280 	mov.w	r2, #268435456	; 0x10000000
   80796:	601a      	str	r2, [r3, #0]
   80798:	4770      	bx	lr
   8079a:	bf00      	nop
   8079c:	e000ed04 	.word	0xe000ed04

000807a0 <ulPortSetInterruptMask>:
   807a0:	f3ef 8011 	mrs	r0, BASEPRI
   807a4:	f04f 01a0 	mov.w	r1, #160	; 0xa0
   807a8:	f381 8811 	msr	BASEPRI, r1
   807ac:	4770      	bx	lr
   807ae:	2000      	movs	r0, #0

000807b0 <vPortEnterCritical>:
   807b0:	b508      	push	{r3, lr}
   807b2:	4b03      	ldr	r3, [pc, #12]	; (807c0 <vPortEnterCritical+0x10>)
   807b4:	4798      	blx	r3
   807b6:	4a03      	ldr	r2, [pc, #12]	; (807c4 <vPortEnterCritical+0x14>)
   807b8:	6813      	ldr	r3, [r2, #0]
   807ba:	3301      	adds	r3, #1
   807bc:	6013      	str	r3, [r2, #0]
   807be:	bd08      	pop	{r3, pc}
   807c0:	000807a1 	.word	0x000807a1
   807c4:	200700ec 	.word	0x200700ec

000807c8 <vPortClearInterruptMask>:
   807c8:	f380 8811 	msr	BASEPRI, r0
   807cc:	4770      	bx	lr
	...

000807d0 <vPortExitCritical>:
   807d0:	b508      	push	{r3, lr}
   807d2:	4b04      	ldr	r3, [pc, #16]	; (807e4 <vPortExitCritical+0x14>)
   807d4:	6818      	ldr	r0, [r3, #0]
   807d6:	3801      	subs	r0, #1
   807d8:	6018      	str	r0, [r3, #0]
   807da:	b908      	cbnz	r0, 807e0 <vPortExitCritical+0x10>
   807dc:	4b02      	ldr	r3, [pc, #8]	; (807e8 <vPortExitCritical+0x18>)
   807de:	4798      	blx	r3
   807e0:	bd08      	pop	{r3, pc}
   807e2:	bf00      	nop
   807e4:	200700ec 	.word	0x200700ec
   807e8:	000807c9 	.word	0x000807c9

000807ec <PendSV_Handler>:
   807ec:	f3ef 8009 	mrs	r0, PSP
   807f0:	4b0c      	ldr	r3, [pc, #48]	; (80824 <pxCurrentTCBConst>)
   807f2:	681a      	ldr	r2, [r3, #0]
   807f4:	e920 0ff0 	stmdb	r0!, {r4, r5, r6, r7, r8, r9, sl, fp}
   807f8:	6010      	str	r0, [r2, #0]
   807fa:	e92d 4008 	stmdb	sp!, {r3, lr}
   807fe:	f04f 00a0 	mov.w	r0, #160	; 0xa0
   80802:	f380 8811 	msr	BASEPRI, r0
   80806:	f000 fe37 	bl	81478 <vTaskSwitchContext>
   8080a:	f04f 0000 	mov.w	r0, #0
   8080e:	f380 8811 	msr	BASEPRI, r0
   80812:	e8bd 4008 	ldmia.w	sp!, {r3, lr}
   80816:	6819      	ldr	r1, [r3, #0]
   80818:	6808      	ldr	r0, [r1, #0]
   8081a:	e8b0 0ff0 	ldmia.w	r0!, {r4, r5, r6, r7, r8, r9, sl, fp}
   8081e:	f380 8809 	msr	PSP, r0
   80822:	4770      	bx	lr

00080824 <pxCurrentTCBConst>:
   80824:	2007ab64 	.word	0x2007ab64

00080828 <SysTick_Handler>:
   80828:	b508      	push	{r3, lr}
   8082a:	4b06      	ldr	r3, [pc, #24]	; (80844 <SysTick_Handler+0x1c>)
   8082c:	f04f 5280 	mov.w	r2, #268435456	; 0x10000000
   80830:	601a      	str	r2, [r3, #0]
   80832:	4b05      	ldr	r3, [pc, #20]	; (80848 <SysTick_Handler+0x20>)
   80834:	4798      	blx	r3
   80836:	4b05      	ldr	r3, [pc, #20]	; (8084c <SysTick_Handler+0x24>)
   80838:	4798      	blx	r3
   8083a:	2000      	movs	r0, #0
   8083c:	4b04      	ldr	r3, [pc, #16]	; (80850 <SysTick_Handler+0x28>)
   8083e:	4798      	blx	r3
   80840:	bd08      	pop	{r3, pc}
   80842:	bf00      	nop
   80844:	e000ed04 	.word	0xe000ed04
   80848:	000807a1 	.word	0x000807a1
   8084c:	0008119d 	.word	0x0008119d
   80850:	000807c9 	.word	0x000807c9

00080854 <vPortSetupTimerInterrupt>:
   80854:	4a03      	ldr	r2, [pc, #12]	; (80864 <vPortSetupTimerInterrupt+0x10>)
   80856:	4b04      	ldr	r3, [pc, #16]	; (80868 <vPortSetupTimerInterrupt+0x14>)
   80858:	601a      	str	r2, [r3, #0]
   8085a:	2207      	movs	r2, #7
   8085c:	f843 2c04 	str.w	r2, [r3, #-4]
   80860:	4770      	bx	lr
   80862:	bf00      	nop
   80864:	0001481f 	.word	0x0001481f
   80868:	e000e014 	.word	0xe000e014

0008086c <xPortStartScheduler>:
   8086c:	b510      	push	{r4, lr}
   8086e:	4b09      	ldr	r3, [pc, #36]	; (80894 <xPortStartScheduler+0x28>)
   80870:	2400      	movs	r4, #0
   80872:	681a      	ldr	r2, [r3, #0]
   80874:	f442 0270 	orr.w	r2, r2, #15728640	; 0xf00000
   80878:	601a      	str	r2, [r3, #0]
   8087a:	681a      	ldr	r2, [r3, #0]
   8087c:	f042 4270 	orr.w	r2, r2, #4026531840	; 0xf0000000
   80880:	601a      	str	r2, [r3, #0]
   80882:	4b05      	ldr	r3, [pc, #20]	; (80898 <xPortStartScheduler+0x2c>)
   80884:	4798      	blx	r3
   80886:	4b05      	ldr	r3, [pc, #20]	; (8089c <xPortStartScheduler+0x30>)
   80888:	601c      	str	r4, [r3, #0]
   8088a:	4b05      	ldr	r3, [pc, #20]	; (808a0 <xPortStartScheduler+0x34>)
   8088c:	4798      	blx	r3
   8088e:	4620      	mov	r0, r4
   80890:	bd10      	pop	{r4, pc}
   80892:	bf00      	nop
   80894:	e000ed20 	.word	0xe000ed20
   80898:	00080855 	.word	0x00080855
   8089c:	200700ec 	.word	0x200700ec
   808a0:	00080745 	.word	0x00080745

000808a4 <prvInsertBlockIntoFreeList>:
   808a4:	b510      	push	{r4, lr}
   808a6:	4b10      	ldr	r3, [pc, #64]	; (808e8 <prvInsertBlockIntoFreeList+0x44>)
   808a8:	681a      	ldr	r2, [r3, #0]
   808aa:	4282      	cmp	r2, r0
   808ac:	d201      	bcs.n	808b2 <prvInsertBlockIntoFreeList+0xe>
   808ae:	4613      	mov	r3, r2
   808b0:	e7fa      	b.n	808a8 <prvInsertBlockIntoFreeList+0x4>
   808b2:	6859      	ldr	r1, [r3, #4]
   808b4:	185c      	adds	r4, r3, r1
   808b6:	4284      	cmp	r4, r0
   808b8:	bf01      	itttt	eq
   808ba:	6840      	ldreq	r0, [r0, #4]
   808bc:	1809      	addeq	r1, r1, r0
   808be:	4618      	moveq	r0, r3
   808c0:	6059      	streq	r1, [r3, #4]
   808c2:	6841      	ldr	r1, [r0, #4]
   808c4:	1844      	adds	r4, r0, r1
   808c6:	4294      	cmp	r4, r2
   808c8:	d109      	bne.n	808de <prvInsertBlockIntoFreeList+0x3a>
   808ca:	4c08      	ldr	r4, [pc, #32]	; (808ec <prvInsertBlockIntoFreeList+0x48>)
   808cc:	6824      	ldr	r4, [r4, #0]
   808ce:	42a2      	cmp	r2, r4
   808d0:	bf1f      	itttt	ne
   808d2:	6852      	ldrne	r2, [r2, #4]
   808d4:	1889      	addne	r1, r1, r2
   808d6:	6041      	strne	r1, [r0, #4]
   808d8:	681a      	ldrne	r2, [r3, #0]
   808da:	bf18      	it	ne
   808dc:	6812      	ldrne	r2, [r2, #0]
   808de:	4283      	cmp	r3, r0
   808e0:	6002      	str	r2, [r0, #0]
   808e2:	bf18      	it	ne
   808e4:	6018      	strne	r0, [r3, #0]
   808e6:	bd10      	pop	{r4, pc}
   808e8:	2007aa94 	.word	0x2007aa94
   808ec:	2007aa90 	.word	0x2007aa90

000808f0 <pvPortMalloc>:
   808f0:	b570      	push	{r4, r5, r6, lr}
   808f2:	4b25      	ldr	r3, [pc, #148]	; (80988 <pvPortMalloc+0x98>)
   808f4:	4604      	mov	r4, r0
   808f6:	4798      	blx	r3
   808f8:	4a24      	ldr	r2, [pc, #144]	; (8098c <pvPortMalloc+0x9c>)
   808fa:	6811      	ldr	r1, [r2, #0]
   808fc:	b989      	cbnz	r1, 80922 <pvPortMalloc+0x32>
   808fe:	f649 75f0 	movw	r5, #40944	; 0x9ff0
   80902:	f649 76f4 	movw	r6, #40948	; 0x9ff4
   80906:	4b22      	ldr	r3, [pc, #136]	; (80990 <pvPortMalloc+0xa0>)
   80908:	4822      	ldr	r0, [pc, #136]	; (80994 <pvPortMalloc+0xa4>)
   8090a:	5199      	str	r1, [r3, r6]
   8090c:	6003      	str	r3, [r0, #0]
   8090e:	6041      	str	r1, [r0, #4]
   80910:	5159      	str	r1, [r3, r5]
   80912:	4821      	ldr	r0, [pc, #132]	; (80998 <pvPortMalloc+0xa8>)
   80914:	4921      	ldr	r1, [pc, #132]	; (8099c <pvPortMalloc+0xac>)
   80916:	e883 0021 	stmia.w	r3, {r0, r5}
   8091a:	680b      	ldr	r3, [r1, #0]
   8091c:	6010      	str	r0, [r2, #0]
   8091e:	3b10      	subs	r3, #16
   80920:	600b      	str	r3, [r1, #0]
   80922:	b12c      	cbz	r4, 80930 <pvPortMalloc+0x40>
   80924:	3410      	adds	r4, #16
   80926:	0763      	lsls	r3, r4, #29
   80928:	bf1c      	itt	ne
   8092a:	f024 0407 	bicne.w	r4, r4, #7
   8092e:	3408      	addne	r4, #8
   80930:	f649 73fe 	movw	r3, #40958	; 0x9ffe
   80934:	1e61      	subs	r1, r4, #1
   80936:	4299      	cmp	r1, r3
   80938:	d821      	bhi.n	8097e <pvPortMalloc+0x8e>
   8093a:	4b16      	ldr	r3, [pc, #88]	; (80994 <pvPortMalloc+0xa4>)
   8093c:	681d      	ldr	r5, [r3, #0]
   8093e:	6869      	ldr	r1, [r5, #4]
   80940:	42a1      	cmp	r1, r4
   80942:	d303      	bcc.n	8094c <pvPortMalloc+0x5c>
   80944:	6812      	ldr	r2, [r2, #0]
   80946:	4295      	cmp	r5, r2
   80948:	d106      	bne.n	80958 <pvPortMalloc+0x68>
   8094a:	e018      	b.n	8097e <pvPortMalloc+0x8e>
   8094c:	6829      	ldr	r1, [r5, #0]
   8094e:	2900      	cmp	r1, #0
   80950:	d0f8      	beq.n	80944 <pvPortMalloc+0x54>
   80952:	462b      	mov	r3, r5
   80954:	460d      	mov	r5, r1
   80956:	e7f2      	b.n	8093e <pvPortMalloc+0x4e>
   80958:	682a      	ldr	r2, [r5, #0]
   8095a:	681e      	ldr	r6, [r3, #0]
   8095c:	601a      	str	r2, [r3, #0]
   8095e:	686b      	ldr	r3, [r5, #4]
   80960:	3610      	adds	r6, #16
   80962:	1b1b      	subs	r3, r3, r4
   80964:	2b20      	cmp	r3, #32
   80966:	d904      	bls.n	80972 <pvPortMalloc+0x82>
   80968:	1928      	adds	r0, r5, r4
   8096a:	6043      	str	r3, [r0, #4]
   8096c:	606c      	str	r4, [r5, #4]
   8096e:	4b0c      	ldr	r3, [pc, #48]	; (809a0 <pvPortMalloc+0xb0>)
   80970:	4798      	blx	r3
   80972:	4a0a      	ldr	r2, [pc, #40]	; (8099c <pvPortMalloc+0xac>)
   80974:	6869      	ldr	r1, [r5, #4]
   80976:	6813      	ldr	r3, [r2, #0]
   80978:	1a5b      	subs	r3, r3, r1
   8097a:	6013      	str	r3, [r2, #0]
   8097c:	e000      	b.n	80980 <pvPortMalloc+0x90>
   8097e:	2600      	movs	r6, #0
   80980:	4b08      	ldr	r3, [pc, #32]	; (809a4 <pvPortMalloc+0xb4>)
   80982:	4798      	blx	r3
   80984:	4630      	mov	r0, r6
   80986:	bd70      	pop	{r4, r5, r6, pc}
   80988:	0008116d 	.word	0x0008116d
   8098c:	2007aa90 	.word	0x2007aa90
   80990:	20070a90 	.word	0x20070a90
   80994:	2007aa94 	.word	0x2007aa94
   80998:	2007aa80 	.word	0x2007aa80
   8099c:	200700f0 	.word	0x200700f0
   809a0:	000808a5 	.word	0x000808a5
   809a4:	00081289 	.word	0x00081289

000809a8 <vPortFree>:
   809a8:	b510      	push	{r4, lr}
   809aa:	4604      	mov	r4, r0
   809ac:	b168      	cbz	r0, 809ca <vPortFree+0x22>
   809ae:	4b07      	ldr	r3, [pc, #28]	; (809cc <vPortFree+0x24>)
   809b0:	4798      	blx	r3
   809b2:	4a07      	ldr	r2, [pc, #28]	; (809d0 <vPortFree+0x28>)
   809b4:	f854 1c0c 	ldr.w	r1, [r4, #-12]
   809b8:	6813      	ldr	r3, [r2, #0]
   809ba:	f1a4 0010 	sub.w	r0, r4, #16
   809be:	440b      	add	r3, r1
   809c0:	6013      	str	r3, [r2, #0]
   809c2:	4b04      	ldr	r3, [pc, #16]	; (809d4 <vPortFree+0x2c>)
   809c4:	4798      	blx	r3
   809c6:	4b04      	ldr	r3, [pc, #16]	; (809d8 <vPortFree+0x30>)
   809c8:	4798      	blx	r3
   809ca:	bd10      	pop	{r4, pc}
   809cc:	0008116d 	.word	0x0008116d
   809d0:	200700f0 	.word	0x200700f0
   809d4:	000808a5 	.word	0x000808a5
   809d8:	00081289 	.word	0x00081289

000809dc <prvCopyDataToQueue>:
   809dc:	b538      	push	{r3, r4, r5, lr}
   809de:	4604      	mov	r4, r0
   809e0:	4610      	mov	r0, r2
   809e2:	6c22      	ldr	r2, [r4, #64]	; 0x40
   809e4:	b932      	cbnz	r2, 809f4 <prvCopyDataToQueue+0x18>
   809e6:	6825      	ldr	r5, [r4, #0]
   809e8:	b9fd      	cbnz	r5, 80a2a <prvCopyDataToQueue+0x4e>
   809ea:	6860      	ldr	r0, [r4, #4]
   809ec:	4b11      	ldr	r3, [pc, #68]	; (80a34 <prvCopyDataToQueue+0x58>)
   809ee:	4798      	blx	r3
   809f0:	6065      	str	r5, [r4, #4]
   809f2:	e01a      	b.n	80a2a <prvCopyDataToQueue+0x4e>
   809f4:	4b10      	ldr	r3, [pc, #64]	; (80a38 <prvCopyDataToQueue+0x5c>)
   809f6:	b958      	cbnz	r0, 80a10 <prvCopyDataToQueue+0x34>
   809f8:	68a0      	ldr	r0, [r4, #8]
   809fa:	4798      	blx	r3
   809fc:	68a2      	ldr	r2, [r4, #8]
   809fe:	6c23      	ldr	r3, [r4, #64]	; 0x40
   80a00:	4413      	add	r3, r2
   80a02:	6862      	ldr	r2, [r4, #4]
   80a04:	60a3      	str	r3, [r4, #8]
   80a06:	4293      	cmp	r3, r2
   80a08:	d30f      	bcc.n	80a2a <prvCopyDataToQueue+0x4e>
   80a0a:	6823      	ldr	r3, [r4, #0]
   80a0c:	60a3      	str	r3, [r4, #8]
   80a0e:	e00c      	b.n	80a2a <prvCopyDataToQueue+0x4e>
   80a10:	68e0      	ldr	r0, [r4, #12]
   80a12:	4798      	blx	r3
   80a14:	6c23      	ldr	r3, [r4, #64]	; 0x40
   80a16:	68e2      	ldr	r2, [r4, #12]
   80a18:	425b      	negs	r3, r3
   80a1a:	6821      	ldr	r1, [r4, #0]
   80a1c:	441a      	add	r2, r3
   80a1e:	428a      	cmp	r2, r1
   80a20:	60e2      	str	r2, [r4, #12]
   80a22:	bf3e      	ittt	cc
   80a24:	6862      	ldrcc	r2, [r4, #4]
   80a26:	189b      	addcc	r3, r3, r2
   80a28:	60e3      	strcc	r3, [r4, #12]
   80a2a:	6ba3      	ldr	r3, [r4, #56]	; 0x38
   80a2c:	3301      	adds	r3, #1
   80a2e:	63a3      	str	r3, [r4, #56]	; 0x38
   80a30:	bd38      	pop	{r3, r4, r5, pc}
   80a32:	bf00      	nop
   80a34:	00081745 	.word	0x00081745
   80a38:	00082cd9 	.word	0x00082cd9

00080a3c <prvCopyDataFromQueue>:
   80a3c:	b538      	push	{r3, r4, r5, lr}
   80a3e:	6805      	ldr	r5, [r0, #0]
   80a40:	4603      	mov	r3, r0
   80a42:	b15d      	cbz	r5, 80a5c <prvCopyDataFromQueue+0x20>
   80a44:	68c4      	ldr	r4, [r0, #12]
   80a46:	6c02      	ldr	r2, [r0, #64]	; 0x40
   80a48:	4414      	add	r4, r2
   80a4a:	60c4      	str	r4, [r0, #12]
   80a4c:	6840      	ldr	r0, [r0, #4]
   80a4e:	4284      	cmp	r4, r0
   80a50:	bf28      	it	cs
   80a52:	60dd      	strcs	r5, [r3, #12]
   80a54:	4608      	mov	r0, r1
   80a56:	68d9      	ldr	r1, [r3, #12]
   80a58:	4b01      	ldr	r3, [pc, #4]	; (80a60 <prvCopyDataFromQueue+0x24>)
   80a5a:	4798      	blx	r3
   80a5c:	bd38      	pop	{r3, r4, r5, pc}
   80a5e:	bf00      	nop
   80a60:	00082cd9 	.word	0x00082cd9

00080a64 <prvUnlockQueue>:
   80a64:	b570      	push	{r4, r5, r6, lr}
   80a66:	4d17      	ldr	r5, [pc, #92]	; (80ac4 <prvUnlockQueue+0x60>)
   80a68:	4604      	mov	r4, r0
   80a6a:	462e      	mov	r6, r5
   80a6c:	47a8      	blx	r5
   80a6e:	6ca3      	ldr	r3, [r4, #72]	; 0x48
   80a70:	2b00      	cmp	r3, #0
   80a72:	dd0c      	ble.n	80a8e <prvUnlockQueue+0x2a>
   80a74:	6a63      	ldr	r3, [r4, #36]	; 0x24
   80a76:	b153      	cbz	r3, 80a8e <prvUnlockQueue+0x2a>
   80a78:	f104 0024 	add.w	r0, r4, #36	; 0x24
   80a7c:	4b12      	ldr	r3, [pc, #72]	; (80ac8 <prvUnlockQueue+0x64>)
   80a7e:	4798      	blx	r3
   80a80:	b108      	cbz	r0, 80a86 <prvUnlockQueue+0x22>
   80a82:	4b12      	ldr	r3, [pc, #72]	; (80acc <prvUnlockQueue+0x68>)
   80a84:	4798      	blx	r3
   80a86:	6ca3      	ldr	r3, [r4, #72]	; 0x48
   80a88:	3b01      	subs	r3, #1
   80a8a:	64a3      	str	r3, [r4, #72]	; 0x48
   80a8c:	e7ef      	b.n	80a6e <prvUnlockQueue+0xa>
   80a8e:	f04f 33ff 	mov.w	r3, #4294967295
   80a92:	64a3      	str	r3, [r4, #72]	; 0x48
   80a94:	4d0e      	ldr	r5, [pc, #56]	; (80ad0 <prvUnlockQueue+0x6c>)
   80a96:	47a8      	blx	r5
   80a98:	47b0      	blx	r6
   80a9a:	6c63      	ldr	r3, [r4, #68]	; 0x44
   80a9c:	2b00      	cmp	r3, #0
   80a9e:	dd0c      	ble.n	80aba <prvUnlockQueue+0x56>
   80aa0:	6923      	ldr	r3, [r4, #16]
   80aa2:	b153      	cbz	r3, 80aba <prvUnlockQueue+0x56>
   80aa4:	f104 0010 	add.w	r0, r4, #16
   80aa8:	4b07      	ldr	r3, [pc, #28]	; (80ac8 <prvUnlockQueue+0x64>)
   80aaa:	4798      	blx	r3
   80aac:	b108      	cbz	r0, 80ab2 <prvUnlockQueue+0x4e>
   80aae:	4b07      	ldr	r3, [pc, #28]	; (80acc <prvUnlockQueue+0x68>)
   80ab0:	4798      	blx	r3
   80ab2:	6c63      	ldr	r3, [r4, #68]	; 0x44
   80ab4:	3b01      	subs	r3, #1
   80ab6:	6463      	str	r3, [r4, #68]	; 0x44
   80ab8:	e7ef      	b.n	80a9a <prvUnlockQueue+0x36>
   80aba:	f04f 33ff 	mov.w	r3, #4294967295
   80abe:	6463      	str	r3, [r4, #68]	; 0x44
   80ac0:	47a8      	blx	r5
   80ac2:	bd70      	pop	{r4, r5, r6, pc}
   80ac4:	000807b1 	.word	0x000807b1
   80ac8:	00081589 	.word	0x00081589
   80acc:	000816a1 	.word	0x000816a1
   80ad0:	000807d1 	.word	0x000807d1

00080ad4 <xQueueGenericReset>:
   80ad4:	b538      	push	{r3, r4, r5, lr}
   80ad6:	460d      	mov	r5, r1
   80ad8:	4604      	mov	r4, r0
   80ada:	b918      	cbnz	r0, 80ae4 <xQueueGenericReset+0x10>
   80adc:	4b16      	ldr	r3, [pc, #88]	; (80b38 <xQueueGenericReset+0x64>)
   80ade:	4798      	blx	r3
   80ae0:	bf00      	nop
   80ae2:	e7fd      	b.n	80ae0 <xQueueGenericReset+0xc>
   80ae4:	4b15      	ldr	r3, [pc, #84]	; (80b3c <xQueueGenericReset+0x68>)
   80ae6:	4798      	blx	r3
   80ae8:	6c20      	ldr	r0, [r4, #64]	; 0x40
   80aea:	6be3      	ldr	r3, [r4, #60]	; 0x3c
   80aec:	6822      	ldr	r2, [r4, #0]
   80aee:	4343      	muls	r3, r0
   80af0:	18d1      	adds	r1, r2, r3
   80af2:	1a1b      	subs	r3, r3, r0
   80af4:	4413      	add	r3, r2
   80af6:	6061      	str	r1, [r4, #4]
   80af8:	60e3      	str	r3, [r4, #12]
   80afa:	2100      	movs	r1, #0
   80afc:	f04f 33ff 	mov.w	r3, #4294967295
   80b00:	63a1      	str	r1, [r4, #56]	; 0x38
   80b02:	60a2      	str	r2, [r4, #8]
   80b04:	6463      	str	r3, [r4, #68]	; 0x44
   80b06:	64a3      	str	r3, [r4, #72]	; 0x48
   80b08:	b955      	cbnz	r5, 80b20 <xQueueGenericReset+0x4c>
   80b0a:	6923      	ldr	r3, [r4, #16]
   80b0c:	b17b      	cbz	r3, 80b2e <xQueueGenericReset+0x5a>
   80b0e:	f104 0010 	add.w	r0, r4, #16
   80b12:	4b0b      	ldr	r3, [pc, #44]	; (80b40 <xQueueGenericReset+0x6c>)
   80b14:	4798      	blx	r3
   80b16:	2801      	cmp	r0, #1
   80b18:	d109      	bne.n	80b2e <xQueueGenericReset+0x5a>
   80b1a:	4b0a      	ldr	r3, [pc, #40]	; (80b44 <xQueueGenericReset+0x70>)
   80b1c:	4798      	blx	r3
   80b1e:	e006      	b.n	80b2e <xQueueGenericReset+0x5a>
   80b20:	f104 0010 	add.w	r0, r4, #16
   80b24:	4d08      	ldr	r5, [pc, #32]	; (80b48 <xQueueGenericReset+0x74>)
   80b26:	47a8      	blx	r5
   80b28:	f104 0024 	add.w	r0, r4, #36	; 0x24
   80b2c:	47a8      	blx	r5
   80b2e:	4b07      	ldr	r3, [pc, #28]	; (80b4c <xQueueGenericReset+0x78>)
   80b30:	4798      	blx	r3
   80b32:	2001      	movs	r0, #1
   80b34:	bd38      	pop	{r3, r4, r5, pc}
   80b36:	bf00      	nop
   80b38:	000807a1 	.word	0x000807a1
   80b3c:	000807b1 	.word	0x000807b1
   80b40:	00081589 	.word	0x00081589
   80b44:	00080791 	.word	0x00080791
   80b48:	000806b5 	.word	0x000806b5
   80b4c:	000807d1 	.word	0x000807d1

00080b50 <xQueueGenericCreate>:
   80b50:	e92d 41f0 	stmdb	sp!, {r4, r5, r6, r7, r8, lr}
   80b54:	460e      	mov	r6, r1
   80b56:	4690      	mov	r8, r2
   80b58:	4605      	mov	r5, r0
   80b5a:	b168      	cbz	r0, 80b78 <xQueueGenericCreate+0x28>
   80b5c:	2050      	movs	r0, #80	; 0x50
   80b5e:	4f0e      	ldr	r7, [pc, #56]	; (80b98 <xQueueGenericCreate+0x48>)
   80b60:	47b8      	blx	r7
   80b62:	4604      	mov	r4, r0
   80b64:	b140      	cbz	r0, 80b78 <xQueueGenericCreate+0x28>
   80b66:	fb06 f005 	mul.w	r0, r6, r5
   80b6a:	3001      	adds	r0, #1
   80b6c:	47b8      	blx	r7
   80b6e:	6020      	str	r0, [r4, #0]
   80b70:	b930      	cbnz	r0, 80b80 <xQueueGenericCreate+0x30>
   80b72:	4620      	mov	r0, r4
   80b74:	4b09      	ldr	r3, [pc, #36]	; (80b9c <xQueueGenericCreate+0x4c>)
   80b76:	4798      	blx	r3
   80b78:	4b09      	ldr	r3, [pc, #36]	; (80ba0 <xQueueGenericCreate+0x50>)
   80b7a:	4798      	blx	r3
   80b7c:	bf00      	nop
   80b7e:	e7fd      	b.n	80b7c <xQueueGenericCreate+0x2c>
   80b80:	63e5      	str	r5, [r4, #60]	; 0x3c
   80b82:	6426      	str	r6, [r4, #64]	; 0x40
   80b84:	4620      	mov	r0, r4
   80b86:	2101      	movs	r1, #1
   80b88:	4b06      	ldr	r3, [pc, #24]	; (80ba4 <xQueueGenericCreate+0x54>)
   80b8a:	4798      	blx	r3
   80b8c:	f884 804d 	strb.w	r8, [r4, #77]	; 0x4d
   80b90:	4620      	mov	r0, r4
   80b92:	e8bd 81f0 	ldmia.w	sp!, {r4, r5, r6, r7, r8, pc}
   80b96:	bf00      	nop
   80b98:	000808f1 	.word	0x000808f1
   80b9c:	000809a9 	.word	0x000809a9
   80ba0:	000807a1 	.word	0x000807a1
   80ba4:	00080ad5 	.word	0x00080ad5

00080ba8 <xQueueGenericSend>:
   80ba8:	e92d 47ff 	stmdb	sp!, {r0, r1, r2, r3, r4, r5, r6, r7, r8, r9, sl, lr}
   80bac:	4688      	mov	r8, r1
   80bae:	9201      	str	r2, [sp, #4]
   80bb0:	4699      	mov	r9, r3
   80bb2:	4604      	mov	r4, r0
   80bb4:	b918      	cbnz	r0, 80bbe <xQueueGenericSend+0x16>
   80bb6:	4b37      	ldr	r3, [pc, #220]	; (80c94 <xQueueGenericSend+0xec>)
   80bb8:	4798      	blx	r3
   80bba:	bf00      	nop
   80bbc:	e7fd      	b.n	80bba <xQueueGenericSend+0x12>
   80bbe:	b921      	cbnz	r1, 80bca <xQueueGenericSend+0x22>
   80bc0:	6c03      	ldr	r3, [r0, #64]	; 0x40
   80bc2:	2b00      	cmp	r3, #0
   80bc4:	d15e      	bne.n	80c84 <xQueueGenericSend+0xdc>
   80bc6:	468a      	mov	sl, r1
   80bc8:	e032      	b.n	80c30 <xQueueGenericSend+0x88>
   80bca:	f04f 0a00 	mov.w	sl, #0
   80bce:	e02f      	b.n	80c30 <xQueueGenericSend+0x88>
   80bd0:	f1ba 0f00 	cmp.w	sl, #0
   80bd4:	d102      	bne.n	80bdc <xQueueGenericSend+0x34>
   80bd6:	a802      	add	r0, sp, #8
   80bd8:	4b2f      	ldr	r3, [pc, #188]	; (80c98 <xQueueGenericSend+0xf0>)
   80bda:	4798      	blx	r3
   80bdc:	47b8      	blx	r7
   80bde:	4b2f      	ldr	r3, [pc, #188]	; (80c9c <xQueueGenericSend+0xf4>)
   80be0:	4798      	blx	r3
   80be2:	47b0      	blx	r6
   80be4:	6c63      	ldr	r3, [r4, #68]	; 0x44
   80be6:	4d2e      	ldr	r5, [pc, #184]	; (80ca0 <xQueueGenericSend+0xf8>)
   80be8:	3301      	adds	r3, #1
   80bea:	bf04      	itt	eq
   80bec:	2300      	moveq	r3, #0
   80bee:	6463      	streq	r3, [r4, #68]	; 0x44
   80bf0:	6ca3      	ldr	r3, [r4, #72]	; 0x48
   80bf2:	3301      	adds	r3, #1
   80bf4:	bf04      	itt	eq
   80bf6:	2300      	moveq	r3, #0
   80bf8:	64a3      	streq	r3, [r4, #72]	; 0x48
   80bfa:	47b8      	blx	r7
   80bfc:	a802      	add	r0, sp, #8
   80bfe:	a901      	add	r1, sp, #4
   80c00:	4b28      	ldr	r3, [pc, #160]	; (80ca4 <xQueueGenericSend+0xfc>)
   80c02:	4798      	blx	r3
   80c04:	4f28      	ldr	r7, [pc, #160]	; (80ca8 <xQueueGenericSend+0x100>)
   80c06:	2800      	cmp	r0, #0
   80c08:	d137      	bne.n	80c7a <xQueueGenericSend+0xd2>
   80c0a:	47b0      	blx	r6
   80c0c:	f8d4 a038 	ldr.w	sl, [r4, #56]	; 0x38
   80c10:	6be6      	ldr	r6, [r4, #60]	; 0x3c
   80c12:	4b26      	ldr	r3, [pc, #152]	; (80cac <xQueueGenericSend+0x104>)
   80c14:	4798      	blx	r3
   80c16:	45b2      	cmp	sl, r6
   80c18:	d12b      	bne.n	80c72 <xQueueGenericSend+0xca>
   80c1a:	f104 0010 	add.w	r0, r4, #16
   80c1e:	9901      	ldr	r1, [sp, #4]
   80c20:	4b23      	ldr	r3, [pc, #140]	; (80cb0 <xQueueGenericSend+0x108>)
   80c22:	4798      	blx	r3
   80c24:	4620      	mov	r0, r4
   80c26:	47b8      	blx	r7
   80c28:	47a8      	blx	r5
   80c2a:	b1f8      	cbz	r0, 80c6c <xQueueGenericSend+0xc4>
   80c2c:	f04f 0a01 	mov.w	sl, #1
   80c30:	4e20      	ldr	r6, [pc, #128]	; (80cb4 <xQueueGenericSend+0x10c>)
   80c32:	47b0      	blx	r6
   80c34:	6ba2      	ldr	r2, [r4, #56]	; 0x38
   80c36:	6be3      	ldr	r3, [r4, #60]	; 0x3c
   80c38:	4f1c      	ldr	r7, [pc, #112]	; (80cac <xQueueGenericSend+0x104>)
   80c3a:	429a      	cmp	r2, r3
   80c3c:	d211      	bcs.n	80c62 <xQueueGenericSend+0xba>
   80c3e:	4b1e      	ldr	r3, [pc, #120]	; (80cb8 <xQueueGenericSend+0x110>)
   80c40:	4620      	mov	r0, r4
   80c42:	4641      	mov	r1, r8
   80c44:	464a      	mov	r2, r9
   80c46:	4798      	blx	r3
   80c48:	6a63      	ldr	r3, [r4, #36]	; 0x24
   80c4a:	b13b      	cbz	r3, 80c5c <xQueueGenericSend+0xb4>
   80c4c:	f104 0024 	add.w	r0, r4, #36	; 0x24
   80c50:	4b1a      	ldr	r3, [pc, #104]	; (80cbc <xQueueGenericSend+0x114>)
   80c52:	4798      	blx	r3
   80c54:	2801      	cmp	r0, #1
   80c56:	d101      	bne.n	80c5c <xQueueGenericSend+0xb4>
   80c58:	4b19      	ldr	r3, [pc, #100]	; (80cc0 <xQueueGenericSend+0x118>)
   80c5a:	4798      	blx	r3
   80c5c:	47b8      	blx	r7
   80c5e:	2001      	movs	r0, #1
   80c60:	e014      	b.n	80c8c <xQueueGenericSend+0xe4>
   80c62:	9d01      	ldr	r5, [sp, #4]
   80c64:	2d00      	cmp	r5, #0
   80c66:	d1b3      	bne.n	80bd0 <xQueueGenericSend+0x28>
   80c68:	47b8      	blx	r7
   80c6a:	e009      	b.n	80c80 <xQueueGenericSend+0xd8>
   80c6c:	4b14      	ldr	r3, [pc, #80]	; (80cc0 <xQueueGenericSend+0x118>)
   80c6e:	4798      	blx	r3
   80c70:	e7dc      	b.n	80c2c <xQueueGenericSend+0x84>
   80c72:	4620      	mov	r0, r4
   80c74:	47b8      	blx	r7
   80c76:	47a8      	blx	r5
   80c78:	e7d8      	b.n	80c2c <xQueueGenericSend+0x84>
   80c7a:	4620      	mov	r0, r4
   80c7c:	47b8      	blx	r7
   80c7e:	47a8      	blx	r5
   80c80:	2000      	movs	r0, #0
   80c82:	e003      	b.n	80c8c <xQueueGenericSend+0xe4>
   80c84:	4b03      	ldr	r3, [pc, #12]	; (80c94 <xQueueGenericSend+0xec>)
   80c86:	4798      	blx	r3
   80c88:	bf00      	nop
   80c8a:	e7fd      	b.n	80c88 <xQueueGenericSend+0xe0>
   80c8c:	b004      	add	sp, #16
   80c8e:	e8bd 87f0 	ldmia.w	sp!, {r4, r5, r6, r7, r8, r9, sl, pc}
   80c92:	bf00      	nop
   80c94:	000807a1 	.word	0x000807a1
   80c98:	00081601 	.word	0x00081601
   80c9c:	0008116d 	.word	0x0008116d
   80ca0:	00081289 	.word	0x00081289
   80ca4:	00081629 	.word	0x00081629
   80ca8:	00080a65 	.word	0x00080a65
   80cac:	000807d1 	.word	0x000807d1
   80cb0:	000814e9 	.word	0x000814e9
   80cb4:	000807b1 	.word	0x000807b1
   80cb8:	000809dd 	.word	0x000809dd
   80cbc:	00081589 	.word	0x00081589
   80cc0:	00080791 	.word	0x00080791

00080cc4 <xQueueGenericSendFromISR>:
   80cc4:	e92d 41f0 	stmdb	sp!, {r4, r5, r6, r7, r8, lr}
   80cc8:	4604      	mov	r4, r0
   80cca:	460d      	mov	r5, r1
   80ccc:	4616      	mov	r6, r2
   80cce:	4698      	mov	r8, r3
   80cd0:	4817      	ldr	r0, [pc, #92]	; (80d30 <xQueueGenericSendFromISR+0x6c>)
   80cd2:	b914      	cbnz	r4, 80cda <xQueueGenericSendFromISR+0x16>
   80cd4:	4780      	blx	r0
   80cd6:	bf00      	nop
   80cd8:	e7fd      	b.n	80cd6 <xQueueGenericSendFromISR+0x12>
   80cda:	b921      	cbnz	r1, 80ce6 <xQueueGenericSendFromISR+0x22>
   80cdc:	6c23      	ldr	r3, [r4, #64]	; 0x40
   80cde:	b113      	cbz	r3, 80ce6 <xQueueGenericSendFromISR+0x22>
   80ce0:	4780      	blx	r0
   80ce2:	bf00      	nop
   80ce4:	e7fd      	b.n	80ce2 <xQueueGenericSendFromISR+0x1e>
   80ce6:	4780      	blx	r0
   80ce8:	6be1      	ldr	r1, [r4, #60]	; 0x3c
   80cea:	4607      	mov	r7, r0
   80cec:	6ba0      	ldr	r0, [r4, #56]	; 0x38
   80cee:	4288      	cmp	r0, r1
   80cf0:	d217      	bcs.n	80d22 <xQueueGenericSendFromISR+0x5e>
   80cf2:	4b10      	ldr	r3, [pc, #64]	; (80d34 <xQueueGenericSendFromISR+0x70>)
   80cf4:	4620      	mov	r0, r4
   80cf6:	4629      	mov	r1, r5
   80cf8:	4642      	mov	r2, r8
   80cfa:	4798      	blx	r3
   80cfc:	6ca3      	ldr	r3, [r4, #72]	; 0x48
   80cfe:	3301      	adds	r3, #1
   80d00:	d10a      	bne.n	80d18 <xQueueGenericSendFromISR+0x54>
   80d02:	6a63      	ldr	r3, [r4, #36]	; 0x24
   80d04:	b15b      	cbz	r3, 80d1e <xQueueGenericSendFromISR+0x5a>
   80d06:	f104 0024 	add.w	r0, r4, #36	; 0x24
   80d0a:	4b0b      	ldr	r3, [pc, #44]	; (80d38 <xQueueGenericSendFromISR+0x74>)
   80d0c:	4798      	blx	r3
   80d0e:	b130      	cbz	r0, 80d1e <xQueueGenericSendFromISR+0x5a>
   80d10:	b12e      	cbz	r6, 80d1e <xQueueGenericSendFromISR+0x5a>
   80d12:	2401      	movs	r4, #1
   80d14:	6034      	str	r4, [r6, #0]
   80d16:	e005      	b.n	80d24 <xQueueGenericSendFromISR+0x60>
   80d18:	6ca3      	ldr	r3, [r4, #72]	; 0x48
   80d1a:	3301      	adds	r3, #1
   80d1c:	64a3      	str	r3, [r4, #72]	; 0x48
   80d1e:	2401      	movs	r4, #1
   80d20:	e000      	b.n	80d24 <xQueueGenericSendFromISR+0x60>
   80d22:	2400      	movs	r4, #0
   80d24:	4638      	mov	r0, r7
   80d26:	4b05      	ldr	r3, [pc, #20]	; (80d3c <xQueueGenericSendFromISR+0x78>)
   80d28:	4798      	blx	r3
   80d2a:	4620      	mov	r0, r4
   80d2c:	e8bd 81f0 	ldmia.w	sp!, {r4, r5, r6, r7, r8, pc}
   80d30:	000807a1 	.word	0x000807a1
   80d34:	000809dd 	.word	0x000809dd
   80d38:	00081589 	.word	0x00081589
   80d3c:	000807c9 	.word	0x000807c9

00080d40 <xQueueGenericReceive>:
   80d40:	e92d 47ff 	stmdb	sp!, {r0, r1, r2, r3, r4, r5, r6, r7, r8, r9, sl, lr}
   80d44:	4688      	mov	r8, r1
   80d46:	9201      	str	r2, [sp, #4]
   80d48:	4699      	mov	r9, r3
   80d4a:	4604      	mov	r4, r0
   80d4c:	b918      	cbnz	r0, 80d56 <xQueueGenericReceive+0x16>
   80d4e:	4b44      	ldr	r3, [pc, #272]	; (80e60 <xQueueGenericReceive+0x120>)
   80d50:	4798      	blx	r3
   80d52:	bf00      	nop
   80d54:	e7fd      	b.n	80d52 <xQueueGenericReceive+0x12>
   80d56:	b921      	cbnz	r1, 80d62 <xQueueGenericReceive+0x22>
   80d58:	6c03      	ldr	r3, [r0, #64]	; 0x40
   80d5a:	2b00      	cmp	r3, #0
   80d5c:	d179      	bne.n	80e52 <xQueueGenericReceive+0x112>
   80d5e:	468a      	mov	sl, r1
   80d60:	e03a      	b.n	80dd8 <xQueueGenericReceive+0x98>
   80d62:	f04f 0a00 	mov.w	sl, #0
   80d66:	e037      	b.n	80dd8 <xQueueGenericReceive+0x98>
   80d68:	f1ba 0f00 	cmp.w	sl, #0
   80d6c:	d102      	bne.n	80d74 <xQueueGenericReceive+0x34>
   80d6e:	a802      	add	r0, sp, #8
   80d70:	4b3c      	ldr	r3, [pc, #240]	; (80e64 <xQueueGenericReceive+0x124>)
   80d72:	4798      	blx	r3
   80d74:	47b8      	blx	r7
   80d76:	4b3c      	ldr	r3, [pc, #240]	; (80e68 <xQueueGenericReceive+0x128>)
   80d78:	4798      	blx	r3
   80d7a:	47b0      	blx	r6
   80d7c:	6c63      	ldr	r3, [r4, #68]	; 0x44
   80d7e:	f8df a104 	ldr.w	sl, [pc, #260]	; 80e84 <xQueueGenericReceive+0x144>
   80d82:	3301      	adds	r3, #1
   80d84:	bf04      	itt	eq
   80d86:	2300      	moveq	r3, #0
   80d88:	6463      	streq	r3, [r4, #68]	; 0x44
   80d8a:	6ca3      	ldr	r3, [r4, #72]	; 0x48
   80d8c:	4d37      	ldr	r5, [pc, #220]	; (80e6c <xQueueGenericReceive+0x12c>)
   80d8e:	3301      	adds	r3, #1
   80d90:	bf04      	itt	eq
   80d92:	2300      	moveq	r3, #0
   80d94:	64a3      	streq	r3, [r4, #72]	; 0x48
   80d96:	47b8      	blx	r7
   80d98:	a802      	add	r0, sp, #8
   80d9a:	a901      	add	r1, sp, #4
   80d9c:	4b34      	ldr	r3, [pc, #208]	; (80e70 <xQueueGenericReceive+0x130>)
   80d9e:	4798      	blx	r3
   80da0:	4f34      	ldr	r7, [pc, #208]	; (80e74 <xQueueGenericReceive+0x134>)
   80da2:	2800      	cmp	r0, #0
   80da4:	d150      	bne.n	80e48 <xQueueGenericReceive+0x108>
   80da6:	47b0      	blx	r6
   80da8:	6ba6      	ldr	r6, [r4, #56]	; 0x38
   80daa:	47d0      	blx	sl
   80dac:	2e00      	cmp	r6, #0
   80dae:	d147      	bne.n	80e40 <xQueueGenericReceive+0x100>
   80db0:	6823      	ldr	r3, [r4, #0]
   80db2:	b92b      	cbnz	r3, 80dc0 <xQueueGenericReceive+0x80>
   80db4:	4b30      	ldr	r3, [pc, #192]	; (80e78 <xQueueGenericReceive+0x138>)
   80db6:	4798      	blx	r3
   80db8:	6860      	ldr	r0, [r4, #4]
   80dba:	4b30      	ldr	r3, [pc, #192]	; (80e7c <xQueueGenericReceive+0x13c>)
   80dbc:	4798      	blx	r3
   80dbe:	47d0      	blx	sl
   80dc0:	f104 0024 	add.w	r0, r4, #36	; 0x24
   80dc4:	9901      	ldr	r1, [sp, #4]
   80dc6:	4b2e      	ldr	r3, [pc, #184]	; (80e80 <xQueueGenericReceive+0x140>)
   80dc8:	4798      	blx	r3
   80dca:	4620      	mov	r0, r4
   80dcc:	47b8      	blx	r7
   80dce:	47a8      	blx	r5
   80dd0:	2800      	cmp	r0, #0
   80dd2:	d032      	beq.n	80e3a <xQueueGenericReceive+0xfa>
   80dd4:	f04f 0a01 	mov.w	sl, #1
   80dd8:	4e27      	ldr	r6, [pc, #156]	; (80e78 <xQueueGenericReceive+0x138>)
   80dda:	47b0      	blx	r6
   80ddc:	6ba3      	ldr	r3, [r4, #56]	; 0x38
   80dde:	4f29      	ldr	r7, [pc, #164]	; (80e84 <xQueueGenericReceive+0x144>)
   80de0:	b333      	cbz	r3, 80e30 <xQueueGenericReceive+0xf0>
   80de2:	4620      	mov	r0, r4
   80de4:	4641      	mov	r1, r8
   80de6:	4b28      	ldr	r3, [pc, #160]	; (80e88 <xQueueGenericReceive+0x148>)
   80de8:	68e5      	ldr	r5, [r4, #12]
   80dea:	4798      	blx	r3
   80dec:	f1b9 0f00 	cmp.w	r9, #0
   80df0:	d112      	bne.n	80e18 <xQueueGenericReceive+0xd8>
   80df2:	6ba3      	ldr	r3, [r4, #56]	; 0x38
   80df4:	3b01      	subs	r3, #1
   80df6:	63a3      	str	r3, [r4, #56]	; 0x38
   80df8:	6823      	ldr	r3, [r4, #0]
   80dfa:	b913      	cbnz	r3, 80e02 <xQueueGenericReceive+0xc2>
   80dfc:	4b23      	ldr	r3, [pc, #140]	; (80e8c <xQueueGenericReceive+0x14c>)
   80dfe:	4798      	blx	r3
   80e00:	6060      	str	r0, [r4, #4]
   80e02:	6923      	ldr	r3, [r4, #16]
   80e04:	b18b      	cbz	r3, 80e2a <xQueueGenericReceive+0xea>
   80e06:	f104 0010 	add.w	r0, r4, #16
   80e0a:	4b21      	ldr	r3, [pc, #132]	; (80e90 <xQueueGenericReceive+0x150>)
   80e0c:	4798      	blx	r3
   80e0e:	2801      	cmp	r0, #1
   80e10:	d10b      	bne.n	80e2a <xQueueGenericReceive+0xea>
   80e12:	4b20      	ldr	r3, [pc, #128]	; (80e94 <xQueueGenericReceive+0x154>)
   80e14:	4798      	blx	r3
   80e16:	e008      	b.n	80e2a <xQueueGenericReceive+0xea>
   80e18:	6a63      	ldr	r3, [r4, #36]	; 0x24
   80e1a:	60e5      	str	r5, [r4, #12]
   80e1c:	b12b      	cbz	r3, 80e2a <xQueueGenericReceive+0xea>
   80e1e:	f104 0024 	add.w	r0, r4, #36	; 0x24
   80e22:	4b1b      	ldr	r3, [pc, #108]	; (80e90 <xQueueGenericReceive+0x150>)
   80e24:	4798      	blx	r3
   80e26:	2800      	cmp	r0, #0
   80e28:	d1f3      	bne.n	80e12 <xQueueGenericReceive+0xd2>
   80e2a:	47b8      	blx	r7
   80e2c:	2001      	movs	r0, #1
   80e2e:	e014      	b.n	80e5a <xQueueGenericReceive+0x11a>
   80e30:	9d01      	ldr	r5, [sp, #4]
   80e32:	2d00      	cmp	r5, #0
   80e34:	d198      	bne.n	80d68 <xQueueGenericReceive+0x28>
   80e36:	47b8      	blx	r7
   80e38:	e009      	b.n	80e4e <xQueueGenericReceive+0x10e>
   80e3a:	4b16      	ldr	r3, [pc, #88]	; (80e94 <xQueueGenericReceive+0x154>)
   80e3c:	4798      	blx	r3
   80e3e:	e7c9      	b.n	80dd4 <xQueueGenericReceive+0x94>
   80e40:	4620      	mov	r0, r4
   80e42:	47b8      	blx	r7
   80e44:	47a8      	blx	r5
   80e46:	e7c5      	b.n	80dd4 <xQueueGenericReceive+0x94>
   80e48:	4620      	mov	r0, r4
   80e4a:	47b8      	blx	r7
   80e4c:	47a8      	blx	r5
   80e4e:	2000      	movs	r0, #0
   80e50:	e003      	b.n	80e5a <xQueueGenericReceive+0x11a>
   80e52:	4b03      	ldr	r3, [pc, #12]	; (80e60 <xQueueGenericReceive+0x120>)
   80e54:	4798      	blx	r3
   80e56:	bf00      	nop
   80e58:	e7fd      	b.n	80e56 <xQueueGenericReceive+0x116>
   80e5a:	b004      	add	sp, #16
   80e5c:	e8bd 87f0 	ldmia.w	sp!, {r4, r5, r6, r7, r8, r9, sl, pc}
   80e60:	000807a1 	.word	0x000807a1
   80e64:	00081601 	.word	0x00081601
   80e68:	0008116d 	.word	0x0008116d
   80e6c:	00081289 	.word	0x00081289
   80e70:	00081629 	.word	0x00081629
   80e74:	00080a65 	.word	0x00080a65
   80e78:	000807b1 	.word	0x000807b1
   80e7c:	000816d5 	.word	0x000816d5
   80e80:	000814e9 	.word	0x000814e9
   80e84:	000807d1 	.word	0x000807d1
   80e88:	00080a3d 	.word	0x00080a3d
   80e8c:	000816ad 	.word	0x000816ad
   80e90:	00081589 	.word	0x00081589
   80e94:	00080791 	.word	0x00080791

00080e98 <vQueueWaitForMessageRestricted>:
   80e98:	b538      	push	{r3, r4, r5, lr}
   80e9a:	4604      	mov	r4, r0
   80e9c:	4b0c      	ldr	r3, [pc, #48]	; (80ed0 <vQueueWaitForMessageRestricted+0x38>)
   80e9e:	460d      	mov	r5, r1
   80ea0:	4798      	blx	r3
   80ea2:	6c63      	ldr	r3, [r4, #68]	; 0x44
   80ea4:	3301      	adds	r3, #1
   80ea6:	bf04      	itt	eq
   80ea8:	2300      	moveq	r3, #0
   80eaa:	6463      	streq	r3, [r4, #68]	; 0x44
   80eac:	6ca3      	ldr	r3, [r4, #72]	; 0x48
   80eae:	3301      	adds	r3, #1
   80eb0:	bf04      	itt	eq
   80eb2:	2300      	moveq	r3, #0
   80eb4:	64a3      	streq	r3, [r4, #72]	; 0x48
   80eb6:	4b07      	ldr	r3, [pc, #28]	; (80ed4 <vQueueWaitForMessageRestricted+0x3c>)
   80eb8:	4798      	blx	r3
   80eba:	6ba3      	ldr	r3, [r4, #56]	; 0x38
   80ebc:	b923      	cbnz	r3, 80ec8 <vQueueWaitForMessageRestricted+0x30>
   80ebe:	f104 0024 	add.w	r0, r4, #36	; 0x24
   80ec2:	4629      	mov	r1, r5
   80ec4:	4b04      	ldr	r3, [pc, #16]	; (80ed8 <vQueueWaitForMessageRestricted+0x40>)
   80ec6:	4798      	blx	r3
   80ec8:	4620      	mov	r0, r4
   80eca:	4b04      	ldr	r3, [pc, #16]	; (80edc <vQueueWaitForMessageRestricted+0x44>)
   80ecc:	4798      	blx	r3
   80ece:	bd38      	pop	{r3, r4, r5, pc}
   80ed0:	000807b1 	.word	0x000807b1
   80ed4:	000807d1 	.word	0x000807d1
   80ed8:	00081545 	.word	0x00081545
   80edc:	00080a65 	.word	0x00080a65

00080ee0 <prvAddCurrentTaskToDelayedList>:
   80ee0:	b510      	push	{r4, lr}
   80ee2:	4b0d      	ldr	r3, [pc, #52]	; (80f18 <prvAddCurrentTaskToDelayedList+0x38>)
   80ee4:	4604      	mov	r4, r0
   80ee6:	681a      	ldr	r2, [r3, #0]
   80ee8:	6050      	str	r0, [r2, #4]
   80eea:	4a0c      	ldr	r2, [pc, #48]	; (80f1c <prvAddCurrentTaskToDelayedList+0x3c>)
   80eec:	6812      	ldr	r2, [r2, #0]
   80eee:	4290      	cmp	r0, r2
   80ef0:	4a0b      	ldr	r2, [pc, #44]	; (80f20 <prvAddCurrentTaskToDelayedList+0x40>)
   80ef2:	d205      	bcs.n	80f00 <prvAddCurrentTaskToDelayedList+0x20>
   80ef4:	490b      	ldr	r1, [pc, #44]	; (80f24 <prvAddCurrentTaskToDelayedList+0x44>)
   80ef6:	6808      	ldr	r0, [r1, #0]
   80ef8:	6819      	ldr	r1, [r3, #0]
   80efa:	3104      	adds	r1, #4
   80efc:	4790      	blx	r2
   80efe:	bd10      	pop	{r4, pc}
   80f00:	4909      	ldr	r1, [pc, #36]	; (80f28 <prvAddCurrentTaskToDelayedList+0x48>)
   80f02:	6808      	ldr	r0, [r1, #0]
   80f04:	6819      	ldr	r1, [r3, #0]
   80f06:	3104      	adds	r1, #4
   80f08:	4790      	blx	r2
   80f0a:	4b08      	ldr	r3, [pc, #32]	; (80f2c <prvAddCurrentTaskToDelayedList+0x4c>)
   80f0c:	681a      	ldr	r2, [r3, #0]
   80f0e:	4294      	cmp	r4, r2
   80f10:	bf38      	it	cc
   80f12:	601c      	strcc	r4, [r3, #0]
   80f14:	bd10      	pop	{r4, pc}
   80f16:	bf00      	nop
   80f18:	2007ab64 	.word	0x2007ab64
   80f1c:	2007ab80 	.word	0x2007ab80
   80f20:	000806ed 	.word	0x000806ed
   80f24:	2007ab84 	.word	0x2007ab84
   80f28:	2007aac4 	.word	0x2007aac4
   80f2c:	200700f4 	.word	0x200700f4

00080f30 <xTaskGenericCreate>:
   80f30:	e92d 4ff8 	stmdb	sp!, {r3, r4, r5, r6, r7, r8, r9, sl, fp, lr}
   80f34:	9e0a      	ldr	r6, [sp, #40]	; 0x28
   80f36:	468a      	mov	sl, r1
   80f38:	4615      	mov	r5, r2
   80f3a:	4699      	mov	r9, r3
   80f3c:	f8dd b030 	ldr.w	fp, [sp, #48]	; 0x30
   80f40:	4680      	mov	r8, r0
   80f42:	b918      	cbnz	r0, 80f4c <xTaskGenericCreate+0x1c>
   80f44:	4b54      	ldr	r3, [pc, #336]	; (81098 <xTaskGenericCreate+0x168>)
   80f46:	4798      	blx	r3
   80f48:	bf00      	nop
   80f4a:	e7fd      	b.n	80f48 <xTaskGenericCreate+0x18>
   80f4c:	2e04      	cmp	r6, #4
   80f4e:	d903      	bls.n	80f58 <xTaskGenericCreate+0x28>
   80f50:	4b51      	ldr	r3, [pc, #324]	; (81098 <xTaskGenericCreate+0x168>)
   80f52:	4798      	blx	r3
   80f54:	bf00      	nop
   80f56:	e7fd      	b.n	80f54 <xTaskGenericCreate+0x24>
   80f58:	204c      	movs	r0, #76	; 0x4c
   80f5a:	4f50      	ldr	r7, [pc, #320]	; (8109c <xTaskGenericCreate+0x16c>)
   80f5c:	47b8      	blx	r7
   80f5e:	4604      	mov	r4, r0
   80f60:	2800      	cmp	r0, #0
   80f62:	f000 8095 	beq.w	81090 <xTaskGenericCreate+0x160>
   80f66:	f1bb 0f00 	cmp.w	fp, #0
   80f6a:	d102      	bne.n	80f72 <xTaskGenericCreate+0x42>
   80f6c:	00a8      	lsls	r0, r5, #2
   80f6e:	47b8      	blx	r7
   80f70:	e000      	b.n	80f74 <xTaskGenericCreate+0x44>
   80f72:	4658      	mov	r0, fp
   80f74:	6320      	str	r0, [r4, #48]	; 0x30
   80f76:	b918      	cbnz	r0, 80f80 <xTaskGenericCreate+0x50>
   80f78:	4620      	mov	r0, r4
   80f7a:	4b49      	ldr	r3, [pc, #292]	; (810a0 <xTaskGenericCreate+0x170>)
   80f7c:	4798      	blx	r3
   80f7e:	e087      	b.n	81090 <xTaskGenericCreate+0x160>
   80f80:	00ad      	lsls	r5, r5, #2
   80f82:	462a      	mov	r2, r5
   80f84:	21a5      	movs	r1, #165	; 0xa5
   80f86:	4b47      	ldr	r3, [pc, #284]	; (810a4 <xTaskGenericCreate+0x174>)
   80f88:	4798      	blx	r3
   80f8a:	6b23      	ldr	r3, [r4, #48]	; 0x30
   80f8c:	3d04      	subs	r5, #4
   80f8e:	4651      	mov	r1, sl
   80f90:	220a      	movs	r2, #10
   80f92:	441d      	add	r5, r3
   80f94:	f104 0034 	add.w	r0, r4, #52	; 0x34
   80f98:	4b43      	ldr	r3, [pc, #268]	; (810a8 <xTaskGenericCreate+0x178>)
   80f9a:	4798      	blx	r3
   80f9c:	f104 0a04 	add.w	sl, r4, #4
   80fa0:	2300      	movs	r3, #0
   80fa2:	f884 303d 	strb.w	r3, [r4, #61]	; 0x3d
   80fa6:	4650      	mov	r0, sl
   80fa8:	f8df b144 	ldr.w	fp, [pc, #324]	; 810f0 <xTaskGenericCreate+0x1c0>
   80fac:	62e6      	str	r6, [r4, #44]	; 0x2c
   80fae:	64a6      	str	r6, [r4, #72]	; 0x48
   80fb0:	47d8      	blx	fp
   80fb2:	f104 0018 	add.w	r0, r4, #24
   80fb6:	47d8      	blx	fp
   80fb8:	f025 0507 	bic.w	r5, r5, #7
   80fbc:	f1c6 0305 	rsb	r3, r6, #5
   80fc0:	61a3      	str	r3, [r4, #24]
   80fc2:	6124      	str	r4, [r4, #16]
   80fc4:	4b39      	ldr	r3, [pc, #228]	; (810ac <xTaskGenericCreate+0x17c>)
   80fc6:	6264      	str	r4, [r4, #36]	; 0x24
   80fc8:	4628      	mov	r0, r5
   80fca:	4641      	mov	r1, r8
   80fcc:	464a      	mov	r2, r9
   80fce:	4798      	blx	r3
   80fd0:	0743      	lsls	r3, r0, #29
   80fd2:	6020      	str	r0, [r4, #0]
   80fd4:	d003      	beq.n	80fde <xTaskGenericCreate+0xae>
   80fd6:	4b30      	ldr	r3, [pc, #192]	; (81098 <xTaskGenericCreate+0x168>)
   80fd8:	4798      	blx	r3
   80fda:	bf00      	nop
   80fdc:	e7fd      	b.n	80fda <xTaskGenericCreate+0xaa>
   80fde:	9b0b      	ldr	r3, [sp, #44]	; 0x2c
   80fe0:	b103      	cbz	r3, 80fe4 <xTaskGenericCreate+0xb4>
   80fe2:	601c      	str	r4, [r3, #0]
   80fe4:	4b32      	ldr	r3, [pc, #200]	; (810b0 <xTaskGenericCreate+0x180>)
   80fe6:	4798      	blx	r3
   80fe8:	4b32      	ldr	r3, [pc, #200]	; (810b4 <xTaskGenericCreate+0x184>)
   80fea:	4d33      	ldr	r5, [pc, #204]	; (810b8 <xTaskGenericCreate+0x188>)
   80fec:	681a      	ldr	r2, [r3, #0]
   80fee:	f8df 9104 	ldr.w	r9, [pc, #260]	; 810f4 <xTaskGenericCreate+0x1c4>
   80ff2:	3201      	adds	r2, #1
   80ff4:	601a      	str	r2, [r3, #0]
   80ff6:	682f      	ldr	r7, [r5, #0]
   80ff8:	b9f7      	cbnz	r7, 81038 <xTaskGenericCreate+0x108>
   80ffa:	602c      	str	r4, [r5, #0]
   80ffc:	681b      	ldr	r3, [r3, #0]
   80ffe:	2b01      	cmp	r3, #1
   81000:	d122      	bne.n	81048 <xTaskGenericCreate+0x118>
   81002:	eb09 0007 	add.w	r0, r9, r7
   81006:	f8df 80f0 	ldr.w	r8, [pc, #240]	; 810f8 <xTaskGenericCreate+0x1c8>
   8100a:	3714      	adds	r7, #20
   8100c:	47c0      	blx	r8
   8100e:	2f64      	cmp	r7, #100	; 0x64
   81010:	d1f7      	bne.n	81002 <xTaskGenericCreate+0xd2>
   81012:	f8df b0e8 	ldr.w	fp, [pc, #232]	; 810fc <xTaskGenericCreate+0x1cc>
   81016:	4f29      	ldr	r7, [pc, #164]	; (810bc <xTaskGenericCreate+0x18c>)
   81018:	4658      	mov	r0, fp
   8101a:	47c0      	blx	r8
   8101c:	4638      	mov	r0, r7
   8101e:	47c0      	blx	r8
   81020:	4827      	ldr	r0, [pc, #156]	; (810c0 <xTaskGenericCreate+0x190>)
   81022:	47c0      	blx	r8
   81024:	4827      	ldr	r0, [pc, #156]	; (810c4 <xTaskGenericCreate+0x194>)
   81026:	47c0      	blx	r8
   81028:	4827      	ldr	r0, [pc, #156]	; (810c8 <xTaskGenericCreate+0x198>)
   8102a:	47c0      	blx	r8
   8102c:	4b27      	ldr	r3, [pc, #156]	; (810cc <xTaskGenericCreate+0x19c>)
   8102e:	f8c3 b000 	str.w	fp, [r3]
   81032:	4b27      	ldr	r3, [pc, #156]	; (810d0 <xTaskGenericCreate+0x1a0>)
   81034:	601f      	str	r7, [r3, #0]
   81036:	e007      	b.n	81048 <xTaskGenericCreate+0x118>
   81038:	4b26      	ldr	r3, [pc, #152]	; (810d4 <xTaskGenericCreate+0x1a4>)
   8103a:	681b      	ldr	r3, [r3, #0]
   8103c:	b923      	cbnz	r3, 81048 <xTaskGenericCreate+0x118>
   8103e:	682b      	ldr	r3, [r5, #0]
   81040:	6adb      	ldr	r3, [r3, #44]	; 0x2c
   81042:	42b3      	cmp	r3, r6
   81044:	bf98      	it	ls
   81046:	602c      	strls	r4, [r5, #0]
   81048:	4a23      	ldr	r2, [pc, #140]	; (810d8 <xTaskGenericCreate+0x1a8>)
   8104a:	6ae3      	ldr	r3, [r4, #44]	; 0x2c
   8104c:	6811      	ldr	r1, [r2, #0]
   8104e:	2014      	movs	r0, #20
   81050:	428b      	cmp	r3, r1
   81052:	4922      	ldr	r1, [pc, #136]	; (810dc <xTaskGenericCreate+0x1ac>)
   81054:	bf88      	it	hi
   81056:	6013      	strhi	r3, [r2, #0]
   81058:	680a      	ldr	r2, [r1, #0]
   8105a:	fb00 9003 	mla	r0, r0, r3, r9
   8105e:	6422      	str	r2, [r4, #64]	; 0x40
   81060:	3201      	adds	r2, #1
   81062:	600a      	str	r2, [r1, #0]
   81064:	4a1e      	ldr	r2, [pc, #120]	; (810e0 <xTaskGenericCreate+0x1b0>)
   81066:	6811      	ldr	r1, [r2, #0]
   81068:	428b      	cmp	r3, r1
   8106a:	bf88      	it	hi
   8106c:	6013      	strhi	r3, [r2, #0]
   8106e:	4651      	mov	r1, sl
   81070:	4b1c      	ldr	r3, [pc, #112]	; (810e4 <xTaskGenericCreate+0x1b4>)
   81072:	4798      	blx	r3
   81074:	4b1c      	ldr	r3, [pc, #112]	; (810e8 <xTaskGenericCreate+0x1b8>)
   81076:	4798      	blx	r3
   81078:	4b16      	ldr	r3, [pc, #88]	; (810d4 <xTaskGenericCreate+0x1a4>)
   8107a:	681b      	ldr	r3, [r3, #0]
   8107c:	b12b      	cbz	r3, 8108a <xTaskGenericCreate+0x15a>
   8107e:	682b      	ldr	r3, [r5, #0]
   81080:	6adb      	ldr	r3, [r3, #44]	; 0x2c
   81082:	42b3      	cmp	r3, r6
   81084:	d201      	bcs.n	8108a <xTaskGenericCreate+0x15a>
   81086:	4b19      	ldr	r3, [pc, #100]	; (810ec <xTaskGenericCreate+0x1bc>)
   81088:	4798      	blx	r3
   8108a:	2001      	movs	r0, #1
   8108c:	e8bd 8ff8 	ldmia.w	sp!, {r3, r4, r5, r6, r7, r8, r9, sl, fp, pc}
   81090:	f04f 30ff 	mov.w	r0, #4294967295
   81094:	e8bd 8ff8 	ldmia.w	sp!, {r3, r4, r5, r6, r7, r8, r9, sl, fp, pc}
   81098:	000807a1 	.word	0x000807a1
   8109c:	000808f1 	.word	0x000808f1
   810a0:	000809a9 	.word	0x000809a9
   810a4:	00082dc5 	.word	0x00082dc5
   810a8:	0008308d 	.word	0x0008308d
   810ac:	00080759 	.word	0x00080759
   810b0:	000807b1 	.word	0x000807b1
   810b4:	2007ab90 	.word	0x2007ab90
   810b8:	2007ab64 	.word	0x2007ab64
   810bc:	2007aae8 	.word	0x2007aae8
   810c0:	2007ab68 	.word	0x2007ab68
   810c4:	2007aab0 	.word	0x2007aab0
   810c8:	2007aa9c 	.word	0x2007aa9c
   810cc:	2007aac4 	.word	0x2007aac4
   810d0:	2007ab84 	.word	0x2007ab84
   810d4:	2007aacc 	.word	0x2007aacc
   810d8:	2007ab98 	.word	0x2007ab98
   810dc:	2007ab8c 	.word	0x2007ab8c
   810e0:	2007ab88 	.word	0x2007ab88
   810e4:	000806d1 	.word	0x000806d1
   810e8:	000807d1 	.word	0x000807d1
   810ec:	00080791 	.word	0x00080791
   810f0:	000806cb 	.word	0x000806cb
   810f4:	2007aafc 	.word	0x2007aafc
   810f8:	000806b5 	.word	0x000806b5
   810fc:	2007aad4 	.word	0x2007aad4

00081100 <vTaskStartScheduler>:
   81100:	b530      	push	{r4, r5, lr}
   81102:	2400      	movs	r4, #0
   81104:	b085      	sub	sp, #20
   81106:	4d11      	ldr	r5, [pc, #68]	; (8114c <vTaskStartScheduler+0x4c>)
   81108:	9400      	str	r4, [sp, #0]
   8110a:	9401      	str	r4, [sp, #4]
   8110c:	9402      	str	r4, [sp, #8]
   8110e:	9403      	str	r4, [sp, #12]
   81110:	480f      	ldr	r0, [pc, #60]	; (81150 <vTaskStartScheduler+0x50>)
   81112:	4910      	ldr	r1, [pc, #64]	; (81154 <vTaskStartScheduler+0x54>)
   81114:	2282      	movs	r2, #130	; 0x82
   81116:	4623      	mov	r3, r4
   81118:	47a8      	blx	r5
   8111a:	2801      	cmp	r0, #1
   8111c:	4605      	mov	r5, r0
   8111e:	d10d      	bne.n	8113c <vTaskStartScheduler+0x3c>
   81120:	4b0d      	ldr	r3, [pc, #52]	; (81158 <vTaskStartScheduler+0x58>)
   81122:	4798      	blx	r3
   81124:	2801      	cmp	r0, #1
   81126:	4605      	mov	r5, r0
   81128:	d108      	bne.n	8113c <vTaskStartScheduler+0x3c>
   8112a:	4b0c      	ldr	r3, [pc, #48]	; (8115c <vTaskStartScheduler+0x5c>)
   8112c:	4798      	blx	r3
   8112e:	4b0c      	ldr	r3, [pc, #48]	; (81160 <vTaskStartScheduler+0x60>)
   81130:	601d      	str	r5, [r3, #0]
   81132:	4b0c      	ldr	r3, [pc, #48]	; (81164 <vTaskStartScheduler+0x64>)
   81134:	601c      	str	r4, [r3, #0]
   81136:	4b0c      	ldr	r3, [pc, #48]	; (81168 <vTaskStartScheduler+0x68>)
   81138:	4798      	blx	r3
   8113a:	e004      	b.n	81146 <vTaskStartScheduler+0x46>
   8113c:	b91d      	cbnz	r5, 81146 <vTaskStartScheduler+0x46>
   8113e:	4b07      	ldr	r3, [pc, #28]	; (8115c <vTaskStartScheduler+0x5c>)
   81140:	4798      	blx	r3
   81142:	bf00      	nop
   81144:	e7fd      	b.n	81142 <vTaskStartScheduler+0x42>
   81146:	b005      	add	sp, #20
   81148:	bd30      	pop	{r4, r5, pc}
   8114a:	bf00      	nop
   8114c:	00080f31 	.word	0x00080f31
   81150:	000813f9 	.word	0x000813f9
   81154:	00088942 	.word	0x00088942
   81158:	00081831 	.word	0x00081831
   8115c:	000807a1 	.word	0x000807a1
   81160:	2007aacc 	.word	0x2007aacc
   81164:	2007ab80 	.word	0x2007ab80
   81168:	0008086d 	.word	0x0008086d

0008116c <vTaskSuspendAll>:
   8116c:	4a02      	ldr	r2, [pc, #8]	; (81178 <vTaskSuspendAll+0xc>)
   8116e:	6813      	ldr	r3, [r2, #0]
   81170:	3301      	adds	r3, #1
   81172:	6013      	str	r3, [r2, #0]
   81174:	4770      	bx	lr
   81176:	bf00      	nop
   81178:	2007ab7c 	.word	0x2007ab7c

0008117c <xTaskGetTickCount>:
   8117c:	b510      	push	{r4, lr}
   8117e:	4b04      	ldr	r3, [pc, #16]	; (81190 <xTaskGetTickCount+0x14>)
   81180:	4798      	blx	r3
   81182:	4b04      	ldr	r3, [pc, #16]	; (81194 <xTaskGetTickCount+0x18>)
   81184:	681c      	ldr	r4, [r3, #0]
   81186:	4b04      	ldr	r3, [pc, #16]	; (81198 <xTaskGetTickCount+0x1c>)
   81188:	4798      	blx	r3
   8118a:	4620      	mov	r0, r4
   8118c:	bd10      	pop	{r4, pc}
   8118e:	bf00      	nop
   81190:	000807b1 	.word	0x000807b1
   81194:	2007ab80 	.word	0x2007ab80
   81198:	000807d1 	.word	0x000807d1

0008119c <vTaskIncrementTick>:
   8119c:	e92d 41f0 	stmdb	sp!, {r4, r5, r6, r7, r8, lr}
   811a0:	4b2d      	ldr	r3, [pc, #180]	; (81258 <vTaskIncrementTick+0xbc>)
   811a2:	681b      	ldr	r3, [r3, #0]
   811a4:	2b00      	cmp	r3, #0
   811a6:	d151      	bne.n	8124c <vTaskIncrementTick+0xb0>
   811a8:	4b2c      	ldr	r3, [pc, #176]	; (8125c <vTaskIncrementTick+0xc0>)
   811aa:	681a      	ldr	r2, [r3, #0]
   811ac:	461e      	mov	r6, r3
   811ae:	3201      	adds	r2, #1
   811b0:	601a      	str	r2, [r3, #0]
   811b2:	681a      	ldr	r2, [r3, #0]
   811b4:	b9e2      	cbnz	r2, 811f0 <vTaskIncrementTick+0x54>
   811b6:	4b2a      	ldr	r3, [pc, #168]	; (81260 <vTaskIncrementTick+0xc4>)
   811b8:	681a      	ldr	r2, [r3, #0]
   811ba:	6812      	ldr	r2, [r2, #0]
   811bc:	b11a      	cbz	r2, 811c6 <vTaskIncrementTick+0x2a>
   811be:	4b29      	ldr	r3, [pc, #164]	; (81264 <vTaskIncrementTick+0xc8>)
   811c0:	4798      	blx	r3
   811c2:	bf00      	nop
   811c4:	e7fd      	b.n	811c2 <vTaskIncrementTick+0x26>
   811c6:	4a28      	ldr	r2, [pc, #160]	; (81268 <vTaskIncrementTick+0xcc>)
   811c8:	6819      	ldr	r1, [r3, #0]
   811ca:	6810      	ldr	r0, [r2, #0]
   811cc:	6018      	str	r0, [r3, #0]
   811ce:	6011      	str	r1, [r2, #0]
   811d0:	4926      	ldr	r1, [pc, #152]	; (8126c <vTaskIncrementTick+0xd0>)
   811d2:	680a      	ldr	r2, [r1, #0]
   811d4:	3201      	adds	r2, #1
   811d6:	600a      	str	r2, [r1, #0]
   811d8:	681a      	ldr	r2, [r3, #0]
   811da:	6811      	ldr	r1, [r2, #0]
   811dc:	4a24      	ldr	r2, [pc, #144]	; (81270 <vTaskIncrementTick+0xd4>)
   811de:	b911      	cbnz	r1, 811e6 <vTaskIncrementTick+0x4a>
   811e0:	f04f 33ff 	mov.w	r3, #4294967295
   811e4:	e003      	b.n	811ee <vTaskIncrementTick+0x52>
   811e6:	681b      	ldr	r3, [r3, #0]
   811e8:	68db      	ldr	r3, [r3, #12]
   811ea:	68db      	ldr	r3, [r3, #12]
   811ec:	685b      	ldr	r3, [r3, #4]
   811ee:	6013      	str	r3, [r2, #0]
   811f0:	4c1f      	ldr	r4, [pc, #124]	; (81270 <vTaskIncrementTick+0xd4>)
   811f2:	6832      	ldr	r2, [r6, #0]
   811f4:	6823      	ldr	r3, [r4, #0]
   811f6:	429a      	cmp	r2, r3
   811f8:	d32c      	bcc.n	81254 <vTaskIncrementTick+0xb8>
   811fa:	4b19      	ldr	r3, [pc, #100]	; (81260 <vTaskIncrementTick+0xc4>)
   811fc:	681a      	ldr	r2, [r3, #0]
   811fe:	6812      	ldr	r2, [r2, #0]
   81200:	b912      	cbnz	r2, 81208 <vTaskIncrementTick+0x6c>
   81202:	f04f 33ff 	mov.w	r3, #4294967295
   81206:	e006      	b.n	81216 <vTaskIncrementTick+0x7a>
   81208:	681b      	ldr	r3, [r3, #0]
   8120a:	68db      	ldr	r3, [r3, #12]
   8120c:	68dd      	ldr	r5, [r3, #12]
   8120e:	6832      	ldr	r2, [r6, #0]
   81210:	686b      	ldr	r3, [r5, #4]
   81212:	429a      	cmp	r2, r3
   81214:	d202      	bcs.n	8121c <vTaskIncrementTick+0x80>
   81216:	6023      	str	r3, [r4, #0]
   81218:	e8bd 81f0 	ldmia.w	sp!, {r4, r5, r6, r7, r8, pc}
   8121c:	1d2f      	adds	r7, r5, #4
   8121e:	4638      	mov	r0, r7
   81220:	f8df 8060 	ldr.w	r8, [pc, #96]	; 81284 <vTaskIncrementTick+0xe8>
   81224:	47c0      	blx	r8
   81226:	6aab      	ldr	r3, [r5, #40]	; 0x28
   81228:	b113      	cbz	r3, 81230 <vTaskIncrementTick+0x94>
   8122a:	f105 0018 	add.w	r0, r5, #24
   8122e:	47c0      	blx	r8
   81230:	4a10      	ldr	r2, [pc, #64]	; (81274 <vTaskIncrementTick+0xd8>)
   81232:	6aeb      	ldr	r3, [r5, #44]	; 0x2c
   81234:	6811      	ldr	r1, [r2, #0]
   81236:	2014      	movs	r0, #20
   81238:	428b      	cmp	r3, r1
   8123a:	bf88      	it	hi
   8123c:	6013      	strhi	r3, [r2, #0]
   8123e:	4a0e      	ldr	r2, [pc, #56]	; (81278 <vTaskIncrementTick+0xdc>)
   81240:	4639      	mov	r1, r7
   81242:	fb00 2003 	mla	r0, r0, r3, r2
   81246:	4b0d      	ldr	r3, [pc, #52]	; (8127c <vTaskIncrementTick+0xe0>)
   81248:	4798      	blx	r3
   8124a:	e7d6      	b.n	811fa <vTaskIncrementTick+0x5e>
   8124c:	4a0c      	ldr	r2, [pc, #48]	; (81280 <vTaskIncrementTick+0xe4>)
   8124e:	6813      	ldr	r3, [r2, #0]
   81250:	3301      	adds	r3, #1
   81252:	6013      	str	r3, [r2, #0]
   81254:	e8bd 81f0 	ldmia.w	sp!, {r4, r5, r6, r7, r8, pc}
   81258:	2007ab7c 	.word	0x2007ab7c
   8125c:	2007ab80 	.word	0x2007ab80
   81260:	2007aac4 	.word	0x2007aac4
   81264:	000807a1 	.word	0x000807a1
   81268:	2007ab84 	.word	0x2007ab84
   8126c:	2007ab60 	.word	0x2007ab60
   81270:	200700f4 	.word	0x200700f4
   81274:	2007ab88 	.word	0x2007ab88
   81278:	2007aafc 	.word	0x2007aafc
   8127c:	000806d1 	.word	0x000806d1
   81280:	2007aac8 	.word	0x2007aac8
   81284:	0008071d 	.word	0x0008071d

00081288 <xTaskResumeAll>:
   81288:	b5f8      	push	{r3, r4, r5, r6, r7, lr}
   8128a:	4c2a      	ldr	r4, [pc, #168]	; (81334 <xTaskResumeAll+0xac>)
   8128c:	6823      	ldr	r3, [r4, #0]
   8128e:	b91b      	cbnz	r3, 81298 <xTaskResumeAll+0x10>
   81290:	4b29      	ldr	r3, [pc, #164]	; (81338 <xTaskResumeAll+0xb0>)
   81292:	4798      	blx	r3
   81294:	bf00      	nop
   81296:	e7fd      	b.n	81294 <xTaskResumeAll+0xc>
   81298:	4b28      	ldr	r3, [pc, #160]	; (8133c <xTaskResumeAll+0xb4>)
   8129a:	4798      	blx	r3
   8129c:	6823      	ldr	r3, [r4, #0]
   8129e:	3b01      	subs	r3, #1
   812a0:	6023      	str	r3, [r4, #0]
   812a2:	6824      	ldr	r4, [r4, #0]
   812a4:	b10c      	cbz	r4, 812aa <xTaskResumeAll+0x22>
   812a6:	2400      	movs	r4, #0
   812a8:	e03f      	b.n	8132a <xTaskResumeAll+0xa2>
   812aa:	4b25      	ldr	r3, [pc, #148]	; (81340 <xTaskResumeAll+0xb8>)
   812ac:	681b      	ldr	r3, [r3, #0]
   812ae:	2b00      	cmp	r3, #0
   812b0:	d0f9      	beq.n	812a6 <xTaskResumeAll+0x1e>
   812b2:	4b24      	ldr	r3, [pc, #144]	; (81344 <xTaskResumeAll+0xbc>)
   812b4:	681a      	ldr	r2, [r3, #0]
   812b6:	b1ea      	cbz	r2, 812f4 <xTaskResumeAll+0x6c>
   812b8:	68db      	ldr	r3, [r3, #12]
   812ba:	4f23      	ldr	r7, [pc, #140]	; (81348 <xTaskResumeAll+0xc0>)
   812bc:	68dd      	ldr	r5, [r3, #12]
   812be:	1d2e      	adds	r6, r5, #4
   812c0:	f105 0018 	add.w	r0, r5, #24
   812c4:	47b8      	blx	r7
   812c6:	4630      	mov	r0, r6
   812c8:	47b8      	blx	r7
   812ca:	4a20      	ldr	r2, [pc, #128]	; (8134c <xTaskResumeAll+0xc4>)
   812cc:	6aeb      	ldr	r3, [r5, #44]	; 0x2c
   812ce:	6811      	ldr	r1, [r2, #0]
   812d0:	2014      	movs	r0, #20
   812d2:	428b      	cmp	r3, r1
   812d4:	bf88      	it	hi
   812d6:	6013      	strhi	r3, [r2, #0]
   812d8:	4a1d      	ldr	r2, [pc, #116]	; (81350 <xTaskResumeAll+0xc8>)
   812da:	4631      	mov	r1, r6
   812dc:	fb00 2003 	mla	r0, r0, r3, r2
   812e0:	4b1c      	ldr	r3, [pc, #112]	; (81354 <xTaskResumeAll+0xcc>)
   812e2:	4798      	blx	r3
   812e4:	4b1c      	ldr	r3, [pc, #112]	; (81358 <xTaskResumeAll+0xd0>)
   812e6:	6aea      	ldr	r2, [r5, #44]	; 0x2c
   812e8:	681b      	ldr	r3, [r3, #0]
   812ea:	6adb      	ldr	r3, [r3, #44]	; 0x2c
   812ec:	429a      	cmp	r2, r3
   812ee:	bf28      	it	cs
   812f0:	2401      	movcs	r4, #1
   812f2:	e7de      	b.n	812b2 <xTaskResumeAll+0x2a>
   812f4:	4b19      	ldr	r3, [pc, #100]	; (8135c <xTaskResumeAll+0xd4>)
   812f6:	681a      	ldr	r2, [r3, #0]
   812f8:	461d      	mov	r5, r3
   812fa:	b142      	cbz	r2, 8130e <xTaskResumeAll+0x86>
   812fc:	682b      	ldr	r3, [r5, #0]
   812fe:	4c17      	ldr	r4, [pc, #92]	; (8135c <xTaskResumeAll+0xd4>)
   81300:	b13b      	cbz	r3, 81312 <xTaskResumeAll+0x8a>
   81302:	4b17      	ldr	r3, [pc, #92]	; (81360 <xTaskResumeAll+0xd8>)
   81304:	4798      	blx	r3
   81306:	6823      	ldr	r3, [r4, #0]
   81308:	3b01      	subs	r3, #1
   8130a:	6023      	str	r3, [r4, #0]
   8130c:	e7f6      	b.n	812fc <xTaskResumeAll+0x74>
   8130e:	2c01      	cmp	r4, #1
   81310:	d106      	bne.n	81320 <xTaskResumeAll+0x98>
   81312:	4b14      	ldr	r3, [pc, #80]	; (81364 <xTaskResumeAll+0xdc>)
   81314:	2200      	movs	r2, #0
   81316:	601a      	str	r2, [r3, #0]
   81318:	4b13      	ldr	r3, [pc, #76]	; (81368 <xTaskResumeAll+0xe0>)
   8131a:	4798      	blx	r3
   8131c:	2401      	movs	r4, #1
   8131e:	e004      	b.n	8132a <xTaskResumeAll+0xa2>
   81320:	4b10      	ldr	r3, [pc, #64]	; (81364 <xTaskResumeAll+0xdc>)
   81322:	681b      	ldr	r3, [r3, #0]
   81324:	2b01      	cmp	r3, #1
   81326:	d1be      	bne.n	812a6 <xTaskResumeAll+0x1e>
   81328:	e7f3      	b.n	81312 <xTaskResumeAll+0x8a>
   8132a:	4b10      	ldr	r3, [pc, #64]	; (8136c <xTaskResumeAll+0xe4>)
   8132c:	4798      	blx	r3
   8132e:	4620      	mov	r0, r4
   81330:	bdf8      	pop	{r3, r4, r5, r6, r7, pc}
   81332:	bf00      	nop
   81334:	2007ab7c 	.word	0x2007ab7c
   81338:	000807a1 	.word	0x000807a1
   8133c:	000807b1 	.word	0x000807b1
   81340:	2007ab90 	.word	0x2007ab90
   81344:	2007ab68 	.word	0x2007ab68
   81348:	0008071d 	.word	0x0008071d
   8134c:	2007ab88 	.word	0x2007ab88
   81350:	2007aafc 	.word	0x2007aafc
   81354:	000806d1 	.word	0x000806d1
   81358:	2007ab64 	.word	0x2007ab64
   8135c:	2007aac8 	.word	0x2007aac8
   81360:	0008119d 	.word	0x0008119d
   81364:	2007ab94 	.word	0x2007ab94
   81368:	00080791 	.word	0x00080791
   8136c:	000807d1 	.word	0x000807d1

00081370 <vTaskDelayUntil>:
   81370:	b538      	push	{r3, r4, r5, lr}
   81372:	460c      	mov	r4, r1
   81374:	4605      	mov	r5, r0
   81376:	b918      	cbnz	r0, 81380 <vTaskDelayUntil+0x10>
   81378:	4b17      	ldr	r3, [pc, #92]	; (813d8 <vTaskDelayUntil+0x68>)
   8137a:	4798      	blx	r3
   8137c:	bf00      	nop
   8137e:	e7fd      	b.n	8137c <vTaskDelayUntil+0xc>
   81380:	b919      	cbnz	r1, 8138a <vTaskDelayUntil+0x1a>
   81382:	4b15      	ldr	r3, [pc, #84]	; (813d8 <vTaskDelayUntil+0x68>)
   81384:	4798      	blx	r3
   81386:	bf00      	nop
   81388:	e7fd      	b.n	81386 <vTaskDelayUntil+0x16>
   8138a:	4b14      	ldr	r3, [pc, #80]	; (813dc <vTaskDelayUntil+0x6c>)
   8138c:	4798      	blx	r3
   8138e:	4a14      	ldr	r2, [pc, #80]	; (813e0 <vTaskDelayUntil+0x70>)
   81390:	682b      	ldr	r3, [r5, #0]
   81392:	6811      	ldr	r1, [r2, #0]
   81394:	441c      	add	r4, r3
   81396:	4299      	cmp	r1, r3
   81398:	d202      	bcs.n	813a0 <vTaskDelayUntil+0x30>
   8139a:	429c      	cmp	r4, r3
   8139c:	d208      	bcs.n	813b0 <vTaskDelayUntil+0x40>
   8139e:	e001      	b.n	813a4 <vTaskDelayUntil+0x34>
   813a0:	429c      	cmp	r4, r3
   813a2:	d307      	bcc.n	813b4 <vTaskDelayUntil+0x44>
   813a4:	6813      	ldr	r3, [r2, #0]
   813a6:	429c      	cmp	r4, r3
   813a8:	bf94      	ite	ls
   813aa:	2300      	movls	r3, #0
   813ac:	2301      	movhi	r3, #1
   813ae:	e002      	b.n	813b6 <vTaskDelayUntil+0x46>
   813b0:	2300      	movs	r3, #0
   813b2:	e000      	b.n	813b6 <vTaskDelayUntil+0x46>
   813b4:	2301      	movs	r3, #1
   813b6:	602c      	str	r4, [r5, #0]
   813b8:	b13b      	cbz	r3, 813ca <vTaskDelayUntil+0x5a>
   813ba:	4b0a      	ldr	r3, [pc, #40]	; (813e4 <vTaskDelayUntil+0x74>)
   813bc:	6818      	ldr	r0, [r3, #0]
   813be:	4b0a      	ldr	r3, [pc, #40]	; (813e8 <vTaskDelayUntil+0x78>)
   813c0:	3004      	adds	r0, #4
   813c2:	4798      	blx	r3
   813c4:	4620      	mov	r0, r4
   813c6:	4b09      	ldr	r3, [pc, #36]	; (813ec <vTaskDelayUntil+0x7c>)
   813c8:	4798      	blx	r3
   813ca:	4b09      	ldr	r3, [pc, #36]	; (813f0 <vTaskDelayUntil+0x80>)
   813cc:	4798      	blx	r3
   813ce:	b908      	cbnz	r0, 813d4 <vTaskDelayUntil+0x64>
   813d0:	4b08      	ldr	r3, [pc, #32]	; (813f4 <vTaskDelayUntil+0x84>)
   813d2:	4798      	blx	r3
   813d4:	bd38      	pop	{r3, r4, r5, pc}
   813d6:	bf00      	nop
   813d8:	000807a1 	.word	0x000807a1
   813dc:	0008116d 	.word	0x0008116d
   813e0:	2007ab80 	.word	0x2007ab80
   813e4:	2007ab64 	.word	0x2007ab64
   813e8:	0008071d 	.word	0x0008071d
   813ec:	00080ee1 	.word	0x00080ee1
   813f0:	00081289 	.word	0x00081289
   813f4:	00080791 	.word	0x00080791

000813f8 <prvIdleTask>:
   813f8:	b508      	push	{r3, lr}
   813fa:	4c14      	ldr	r4, [pc, #80]	; (8144c <prvIdleTask+0x54>)
   813fc:	6823      	ldr	r3, [r4, #0]
   813fe:	b1eb      	cbz	r3, 8143c <prvIdleTask+0x44>
   81400:	4d13      	ldr	r5, [pc, #76]	; (81450 <prvIdleTask+0x58>)
   81402:	4b14      	ldr	r3, [pc, #80]	; (81454 <prvIdleTask+0x5c>)
   81404:	4798      	blx	r3
   81406:	682e      	ldr	r6, [r5, #0]
   81408:	4b13      	ldr	r3, [pc, #76]	; (81458 <prvIdleTask+0x60>)
   8140a:	4798      	blx	r3
   8140c:	2e00      	cmp	r6, #0
   8140e:	d0f4      	beq.n	813fa <prvIdleTask+0x2>
   81410:	4b12      	ldr	r3, [pc, #72]	; (8145c <prvIdleTask+0x64>)
   81412:	4798      	blx	r3
   81414:	68eb      	ldr	r3, [r5, #12]
   81416:	68dd      	ldr	r5, [r3, #12]
   81418:	4b11      	ldr	r3, [pc, #68]	; (81460 <prvIdleTask+0x68>)
   8141a:	1d28      	adds	r0, r5, #4
   8141c:	4798      	blx	r3
   8141e:	4a11      	ldr	r2, [pc, #68]	; (81464 <prvIdleTask+0x6c>)
   81420:	6813      	ldr	r3, [r2, #0]
   81422:	3b01      	subs	r3, #1
   81424:	6013      	str	r3, [r2, #0]
   81426:	6823      	ldr	r3, [r4, #0]
   81428:	3b01      	subs	r3, #1
   8142a:	6023      	str	r3, [r4, #0]
   8142c:	4b0e      	ldr	r3, [pc, #56]	; (81468 <prvIdleTask+0x70>)
   8142e:	4798      	blx	r3
   81430:	4c0e      	ldr	r4, [pc, #56]	; (8146c <prvIdleTask+0x74>)
   81432:	6b28      	ldr	r0, [r5, #48]	; 0x30
   81434:	47a0      	blx	r4
   81436:	4628      	mov	r0, r5
   81438:	47a0      	blx	r4
   8143a:	e7de      	b.n	813fa <prvIdleTask+0x2>
   8143c:	4b0c      	ldr	r3, [pc, #48]	; (81470 <prvIdleTask+0x78>)
   8143e:	681b      	ldr	r3, [r3, #0]
   81440:	2b01      	cmp	r3, #1
   81442:	d9da      	bls.n	813fa <prvIdleTask+0x2>
   81444:	4b0b      	ldr	r3, [pc, #44]	; (81474 <prvIdleTask+0x7c>)
   81446:	4798      	blx	r3
   81448:	e7d7      	b.n	813fa <prvIdleTask+0x2>
   8144a:	bf00      	nop
   8144c:	2007aad0 	.word	0x2007aad0
   81450:	2007aab0 	.word	0x2007aab0
   81454:	0008116d 	.word	0x0008116d
   81458:	00081289 	.word	0x00081289
   8145c:	000807b1 	.word	0x000807b1
   81460:	0008071d 	.word	0x0008071d
   81464:	2007ab90 	.word	0x2007ab90
   81468:	000807d1 	.word	0x000807d1
   8146c:	000809a9 	.word	0x000809a9
   81470:	2007aafc 	.word	0x2007aafc
   81474:	00080791 	.word	0x00080791

00081478 <vTaskSwitchContext>:
   81478:	b510      	push	{r4, lr}
   8147a:	4b15      	ldr	r3, [pc, #84]	; (814d0 <vTaskSwitchContext+0x58>)
   8147c:	681b      	ldr	r3, [r3, #0]
   8147e:	b12b      	cbz	r3, 8148c <vTaskSwitchContext+0x14>
   81480:	2201      	movs	r2, #1
   81482:	4b14      	ldr	r3, [pc, #80]	; (814d4 <vTaskSwitchContext+0x5c>)
   81484:	e022      	b.n	814cc <vTaskSwitchContext+0x54>
   81486:	680b      	ldr	r3, [r1, #0]
   81488:	3b01      	subs	r3, #1
   8148a:	600b      	str	r3, [r1, #0]
   8148c:	4912      	ldr	r1, [pc, #72]	; (814d8 <vTaskSwitchContext+0x60>)
   8148e:	2314      	movs	r3, #20
   81490:	6808      	ldr	r0, [r1, #0]
   81492:	4a12      	ldr	r2, [pc, #72]	; (814dc <vTaskSwitchContext+0x64>)
   81494:	4358      	muls	r0, r3
   81496:	5810      	ldr	r0, [r2, r0]
   81498:	b930      	cbnz	r0, 814a8 <vTaskSwitchContext+0x30>
   8149a:	680b      	ldr	r3, [r1, #0]
   8149c:	2b00      	cmp	r3, #0
   8149e:	d1f2      	bne.n	81486 <vTaskSwitchContext+0xe>
   814a0:	4b0f      	ldr	r3, [pc, #60]	; (814e0 <vTaskSwitchContext+0x68>)
   814a2:	4798      	blx	r3
   814a4:	bf00      	nop
   814a6:	e7fd      	b.n	814a4 <vTaskSwitchContext+0x2c>
   814a8:	6809      	ldr	r1, [r1, #0]
   814aa:	434b      	muls	r3, r1
   814ac:	18d0      	adds	r0, r2, r3
   814ae:	6844      	ldr	r4, [r0, #4]
   814b0:	3308      	adds	r3, #8
   814b2:	6864      	ldr	r4, [r4, #4]
   814b4:	4413      	add	r3, r2
   814b6:	6044      	str	r4, [r0, #4]
   814b8:	429c      	cmp	r4, r3
   814ba:	bf04      	itt	eq
   814bc:	6863      	ldreq	r3, [r4, #4]
   814be:	6043      	streq	r3, [r0, #4]
   814c0:	2314      	movs	r3, #20
   814c2:	fb03 2201 	mla	r2, r3, r1, r2
   814c6:	6853      	ldr	r3, [r2, #4]
   814c8:	68da      	ldr	r2, [r3, #12]
   814ca:	4b06      	ldr	r3, [pc, #24]	; (814e4 <vTaskSwitchContext+0x6c>)
   814cc:	601a      	str	r2, [r3, #0]
   814ce:	bd10      	pop	{r4, pc}
   814d0:	2007ab7c 	.word	0x2007ab7c
   814d4:	2007ab94 	.word	0x2007ab94
   814d8:	2007ab88 	.word	0x2007ab88
   814dc:	2007aafc 	.word	0x2007aafc
   814e0:	000807a1 	.word	0x000807a1
   814e4:	2007ab64 	.word	0x2007ab64

000814e8 <vTaskPlaceOnEventList>:
   814e8:	b538      	push	{r3, r4, r5, lr}
   814ea:	460d      	mov	r5, r1
   814ec:	b918      	cbnz	r0, 814f6 <vTaskPlaceOnEventList+0xe>
   814ee:	4b0d      	ldr	r3, [pc, #52]	; (81524 <vTaskPlaceOnEventList+0x3c>)
   814f0:	4798      	blx	r3
   814f2:	bf00      	nop
   814f4:	e7fd      	b.n	814f2 <vTaskPlaceOnEventList+0xa>
   814f6:	4c0c      	ldr	r4, [pc, #48]	; (81528 <vTaskPlaceOnEventList+0x40>)
   814f8:	4b0c      	ldr	r3, [pc, #48]	; (8152c <vTaskPlaceOnEventList+0x44>)
   814fa:	6821      	ldr	r1, [r4, #0]
   814fc:	3118      	adds	r1, #24
   814fe:	4798      	blx	r3
   81500:	6820      	ldr	r0, [r4, #0]
   81502:	4b0b      	ldr	r3, [pc, #44]	; (81530 <vTaskPlaceOnEventList+0x48>)
   81504:	3004      	adds	r0, #4
   81506:	4798      	blx	r3
   81508:	1c6b      	adds	r3, r5, #1
   8150a:	d105      	bne.n	81518 <vTaskPlaceOnEventList+0x30>
   8150c:	6821      	ldr	r1, [r4, #0]
   8150e:	4809      	ldr	r0, [pc, #36]	; (81534 <vTaskPlaceOnEventList+0x4c>)
   81510:	3104      	adds	r1, #4
   81512:	4b09      	ldr	r3, [pc, #36]	; (81538 <vTaskPlaceOnEventList+0x50>)
   81514:	4798      	blx	r3
   81516:	bd38      	pop	{r3, r4, r5, pc}
   81518:	4b08      	ldr	r3, [pc, #32]	; (8153c <vTaskPlaceOnEventList+0x54>)
   8151a:	6818      	ldr	r0, [r3, #0]
   8151c:	4b08      	ldr	r3, [pc, #32]	; (81540 <vTaskPlaceOnEventList+0x58>)
   8151e:	4428      	add	r0, r5
   81520:	4798      	blx	r3
   81522:	bd38      	pop	{r3, r4, r5, pc}
   81524:	000807a1 	.word	0x000807a1
   81528:	2007ab64 	.word	0x2007ab64
   8152c:	000806ed 	.word	0x000806ed
   81530:	0008071d 	.word	0x0008071d
   81534:	2007aa9c 	.word	0x2007aa9c
   81538:	000806d1 	.word	0x000806d1
   8153c:	2007ab80 	.word	0x2007ab80
   81540:	00080ee1 	.word	0x00080ee1

00081544 <vTaskPlaceOnEventListRestricted>:
   81544:	b538      	push	{r3, r4, r5, lr}
   81546:	460d      	mov	r5, r1
   81548:	b918      	cbnz	r0, 81552 <vTaskPlaceOnEventListRestricted+0xe>
   8154a:	4b09      	ldr	r3, [pc, #36]	; (81570 <vTaskPlaceOnEventListRestricted+0x2c>)
   8154c:	4798      	blx	r3
   8154e:	bf00      	nop
   81550:	e7fd      	b.n	8154e <vTaskPlaceOnEventListRestricted+0xa>
   81552:	4c08      	ldr	r4, [pc, #32]	; (81574 <vTaskPlaceOnEventListRestricted+0x30>)
   81554:	4b08      	ldr	r3, [pc, #32]	; (81578 <vTaskPlaceOnEventListRestricted+0x34>)
   81556:	6821      	ldr	r1, [r4, #0]
   81558:	3118      	adds	r1, #24
   8155a:	4798      	blx	r3
   8155c:	6820      	ldr	r0, [r4, #0]
   8155e:	4b07      	ldr	r3, [pc, #28]	; (8157c <vTaskPlaceOnEventListRestricted+0x38>)
   81560:	3004      	adds	r0, #4
   81562:	4798      	blx	r3
   81564:	4b06      	ldr	r3, [pc, #24]	; (81580 <vTaskPlaceOnEventListRestricted+0x3c>)
   81566:	6818      	ldr	r0, [r3, #0]
   81568:	4b06      	ldr	r3, [pc, #24]	; (81584 <vTaskPlaceOnEventListRestricted+0x40>)
   8156a:	4428      	add	r0, r5
   8156c:	4798      	blx	r3
   8156e:	bd38      	pop	{r3, r4, r5, pc}
   81570:	000807a1 	.word	0x000807a1
   81574:	2007ab64 	.word	0x2007ab64
   81578:	000806d1 	.word	0x000806d1
   8157c:	0008071d 	.word	0x0008071d
   81580:	2007ab80 	.word	0x2007ab80
   81584:	00080ee1 	.word	0x00080ee1

00081588 <xTaskRemoveFromEventList>:
   81588:	b5f8      	push	{r3, r4, r5, r6, r7, lr}
   8158a:	68c3      	ldr	r3, [r0, #12]
   8158c:	68dc      	ldr	r4, [r3, #12]
   8158e:	b91c      	cbnz	r4, 81598 <xTaskRemoveFromEventList+0x10>
   81590:	4b13      	ldr	r3, [pc, #76]	; (815e0 <xTaskRemoveFromEventList+0x58>)
   81592:	4798      	blx	r3
   81594:	bf00      	nop
   81596:	e7fd      	b.n	81594 <xTaskRemoveFromEventList+0xc>
   81598:	f104 0618 	add.w	r6, r4, #24
   8159c:	4630      	mov	r0, r6
   8159e:	4f11      	ldr	r7, [pc, #68]	; (815e4 <xTaskRemoveFromEventList+0x5c>)
   815a0:	47b8      	blx	r7
   815a2:	4b11      	ldr	r3, [pc, #68]	; (815e8 <xTaskRemoveFromEventList+0x60>)
   815a4:	4d11      	ldr	r5, [pc, #68]	; (815ec <xTaskRemoveFromEventList+0x64>)
   815a6:	681b      	ldr	r3, [r3, #0]
   815a8:	b96b      	cbnz	r3, 815c6 <xTaskRemoveFromEventList+0x3e>
   815aa:	1d26      	adds	r6, r4, #4
   815ac:	4630      	mov	r0, r6
   815ae:	47b8      	blx	r7
   815b0:	4a0f      	ldr	r2, [pc, #60]	; (815f0 <xTaskRemoveFromEventList+0x68>)
   815b2:	6ae3      	ldr	r3, [r4, #44]	; 0x2c
   815b4:	6811      	ldr	r1, [r2, #0]
   815b6:	2014      	movs	r0, #20
   815b8:	428b      	cmp	r3, r1
   815ba:	bf88      	it	hi
   815bc:	6013      	strhi	r3, [r2, #0]
   815be:	4a0d      	ldr	r2, [pc, #52]	; (815f4 <xTaskRemoveFromEventList+0x6c>)
   815c0:	fb00 2003 	mla	r0, r0, r3, r2
   815c4:	e000      	b.n	815c8 <xTaskRemoveFromEventList+0x40>
   815c6:	480c      	ldr	r0, [pc, #48]	; (815f8 <xTaskRemoveFromEventList+0x70>)
   815c8:	4631      	mov	r1, r6
   815ca:	47a8      	blx	r5
   815cc:	4b0b      	ldr	r3, [pc, #44]	; (815fc <xTaskRemoveFromEventList+0x74>)
   815ce:	6ae0      	ldr	r0, [r4, #44]	; 0x2c
   815d0:	681b      	ldr	r3, [r3, #0]
   815d2:	6adb      	ldr	r3, [r3, #44]	; 0x2c
   815d4:	4298      	cmp	r0, r3
   815d6:	bf34      	ite	cc
   815d8:	2000      	movcc	r0, #0
   815da:	2001      	movcs	r0, #1
   815dc:	bdf8      	pop	{r3, r4, r5, r6, r7, pc}
   815de:	bf00      	nop
   815e0:	000807a1 	.word	0x000807a1
   815e4:	0008071d 	.word	0x0008071d
   815e8:	2007ab7c 	.word	0x2007ab7c
   815ec:	000806d1 	.word	0x000806d1
   815f0:	2007ab88 	.word	0x2007ab88
   815f4:	2007aafc 	.word	0x2007aafc
   815f8:	2007ab68 	.word	0x2007ab68
   815fc:	2007ab64 	.word	0x2007ab64

00081600 <vTaskSetTimeOutState>:
   81600:	b508      	push	{r3, lr}
   81602:	b918      	cbnz	r0, 8160c <vTaskSetTimeOutState+0xc>
   81604:	4b05      	ldr	r3, [pc, #20]	; (8161c <vTaskSetTimeOutState+0x1c>)
   81606:	4798      	blx	r3
   81608:	bf00      	nop
   8160a:	e7fd      	b.n	81608 <vTaskSetTimeOutState+0x8>
   8160c:	4b04      	ldr	r3, [pc, #16]	; (81620 <vTaskSetTimeOutState+0x20>)
   8160e:	681b      	ldr	r3, [r3, #0]
   81610:	6003      	str	r3, [r0, #0]
   81612:	4b04      	ldr	r3, [pc, #16]	; (81624 <vTaskSetTimeOutState+0x24>)
   81614:	681b      	ldr	r3, [r3, #0]
   81616:	6043      	str	r3, [r0, #4]
   81618:	bd08      	pop	{r3, pc}
   8161a:	bf00      	nop
   8161c:	000807a1 	.word	0x000807a1
   81620:	2007ab60 	.word	0x2007ab60
   81624:	2007ab80 	.word	0x2007ab80

00081628 <xTaskCheckForTimeOut>:
   81628:	b538      	push	{r3, r4, r5, lr}
   8162a:	460d      	mov	r5, r1
   8162c:	4604      	mov	r4, r0
   8162e:	b918      	cbnz	r0, 81638 <xTaskCheckForTimeOut+0x10>
   81630:	4b15      	ldr	r3, [pc, #84]	; (81688 <xTaskCheckForTimeOut+0x60>)
   81632:	4798      	blx	r3
   81634:	bf00      	nop
   81636:	e7fd      	b.n	81634 <xTaskCheckForTimeOut+0xc>
   81638:	b919      	cbnz	r1, 81642 <xTaskCheckForTimeOut+0x1a>
   8163a:	4b13      	ldr	r3, [pc, #76]	; (81688 <xTaskCheckForTimeOut+0x60>)
   8163c:	4798      	blx	r3
   8163e:	bf00      	nop
   81640:	e7fd      	b.n	8163e <xTaskCheckForTimeOut+0x16>
   81642:	4b12      	ldr	r3, [pc, #72]	; (8168c <xTaskCheckForTimeOut+0x64>)
   81644:	4798      	blx	r3
   81646:	682b      	ldr	r3, [r5, #0]
   81648:	1c5a      	adds	r2, r3, #1
   8164a:	d015      	beq.n	81678 <xTaskCheckForTimeOut+0x50>
   8164c:	4a10      	ldr	r2, [pc, #64]	; (81690 <xTaskCheckForTimeOut+0x68>)
   8164e:	6811      	ldr	r1, [r2, #0]
   81650:	6822      	ldr	r2, [r4, #0]
   81652:	4291      	cmp	r1, r2
   81654:	4a0f      	ldr	r2, [pc, #60]	; (81694 <xTaskCheckForTimeOut+0x6c>)
   81656:	6861      	ldr	r1, [r4, #4]
   81658:	d002      	beq.n	81660 <xTaskCheckForTimeOut+0x38>
   8165a:	6810      	ldr	r0, [r2, #0]
   8165c:	4288      	cmp	r0, r1
   8165e:	d20d      	bcs.n	8167c <xTaskCheckForTimeOut+0x54>
   81660:	6812      	ldr	r2, [r2, #0]
   81662:	1a52      	subs	r2, r2, r1
   81664:	429a      	cmp	r2, r3
   81666:	d209      	bcs.n	8167c <xTaskCheckForTimeOut+0x54>
   81668:	4a0a      	ldr	r2, [pc, #40]	; (81694 <xTaskCheckForTimeOut+0x6c>)
   8166a:	4620      	mov	r0, r4
   8166c:	6812      	ldr	r2, [r2, #0]
   8166e:	1a52      	subs	r2, r2, r1
   81670:	1a9b      	subs	r3, r3, r2
   81672:	602b      	str	r3, [r5, #0]
   81674:	4b08      	ldr	r3, [pc, #32]	; (81698 <xTaskCheckForTimeOut+0x70>)
   81676:	4798      	blx	r3
   81678:	2400      	movs	r4, #0
   8167a:	e000      	b.n	8167e <xTaskCheckForTimeOut+0x56>
   8167c:	2401      	movs	r4, #1
   8167e:	4b07      	ldr	r3, [pc, #28]	; (8169c <xTaskCheckForTimeOut+0x74>)
   81680:	4798      	blx	r3
   81682:	4620      	mov	r0, r4
   81684:	bd38      	pop	{r3, r4, r5, pc}
   81686:	bf00      	nop
   81688:	000807a1 	.word	0x000807a1
   8168c:	000807b1 	.word	0x000807b1
   81690:	2007ab60 	.word	0x2007ab60
   81694:	2007ab80 	.word	0x2007ab80
   81698:	00081601 	.word	0x00081601
   8169c:	000807d1 	.word	0x000807d1

000816a0 <vTaskMissedYield>:
   816a0:	4b01      	ldr	r3, [pc, #4]	; (816a8 <vTaskMissedYield+0x8>)
   816a2:	2201      	movs	r2, #1
   816a4:	601a      	str	r2, [r3, #0]
   816a6:	4770      	bx	lr
   816a8:	2007ab94 	.word	0x2007ab94

000816ac <xTaskGetCurrentTaskHandle>:
   816ac:	4b01      	ldr	r3, [pc, #4]	; (816b4 <xTaskGetCurrentTaskHandle+0x8>)
   816ae:	6818      	ldr	r0, [r3, #0]
   816b0:	4770      	bx	lr
   816b2:	bf00      	nop
   816b4:	2007ab64 	.word	0x2007ab64

000816b8 <xTaskGetSchedulerState>:
   816b8:	4b04      	ldr	r3, [pc, #16]	; (816cc <xTaskGetSchedulerState+0x14>)
   816ba:	6818      	ldr	r0, [r3, #0]
   816bc:	b128      	cbz	r0, 816ca <xTaskGetSchedulerState+0x12>
   816be:	4b04      	ldr	r3, [pc, #16]	; (816d0 <xTaskGetSchedulerState+0x18>)
   816c0:	681b      	ldr	r3, [r3, #0]
   816c2:	2b00      	cmp	r3, #0
   816c4:	bf0c      	ite	eq
   816c6:	2001      	moveq	r0, #1
   816c8:	2002      	movne	r0, #2
   816ca:	4770      	bx	lr
   816cc:	2007aacc 	.word	0x2007aacc
   816d0:	2007ab7c 	.word	0x2007ab7c

000816d4 <vTaskPriorityInherit>:
   816d4:	b5f8      	push	{r3, r4, r5, r6, r7, lr}
   816d6:	4604      	mov	r4, r0
   816d8:	b340      	cbz	r0, 8172c <vTaskPriorityInherit+0x58>
   816da:	4d15      	ldr	r5, [pc, #84]	; (81730 <vTaskPriorityInherit+0x5c>)
   816dc:	6ac3      	ldr	r3, [r0, #44]	; 0x2c
   816de:	682a      	ldr	r2, [r5, #0]
   816e0:	6ad2      	ldr	r2, [r2, #44]	; 0x2c
   816e2:	4293      	cmp	r3, r2
   816e4:	d222      	bcs.n	8172c <vTaskPriorityInherit+0x58>
   816e6:	682a      	ldr	r2, [r5, #0]
   816e8:	6ad2      	ldr	r2, [r2, #44]	; 0x2c
   816ea:	f1c2 0205 	rsb	r2, r2, #5
   816ee:	6182      	str	r2, [r0, #24]
   816f0:	4810      	ldr	r0, [pc, #64]	; (81734 <vTaskPriorityInherit+0x60>)
   816f2:	2214      	movs	r2, #20
   816f4:	fb02 0303 	mla	r3, r2, r3, r0
   816f8:	6962      	ldr	r2, [r4, #20]
   816fa:	4606      	mov	r6, r0
   816fc:	429a      	cmp	r2, r3
   816fe:	d112      	bne.n	81726 <vTaskPriorityInherit+0x52>
   81700:	1d27      	adds	r7, r4, #4
   81702:	4638      	mov	r0, r7
   81704:	4b0c      	ldr	r3, [pc, #48]	; (81738 <vTaskPriorityInherit+0x64>)
   81706:	4798      	blx	r3
   81708:	682b      	ldr	r3, [r5, #0]
   8170a:	4a0c      	ldr	r2, [pc, #48]	; (8173c <vTaskPriorityInherit+0x68>)
   8170c:	6adb      	ldr	r3, [r3, #44]	; 0x2c
   8170e:	6811      	ldr	r1, [r2, #0]
   81710:	2014      	movs	r0, #20
   81712:	428b      	cmp	r3, r1
   81714:	62e3      	str	r3, [r4, #44]	; 0x2c
   81716:	bf88      	it	hi
   81718:	6013      	strhi	r3, [r2, #0]
   8171a:	fb00 6003 	mla	r0, r0, r3, r6
   8171e:	4639      	mov	r1, r7
   81720:	4b07      	ldr	r3, [pc, #28]	; (81740 <vTaskPriorityInherit+0x6c>)
   81722:	4798      	blx	r3
   81724:	bdf8      	pop	{r3, r4, r5, r6, r7, pc}
   81726:	682b      	ldr	r3, [r5, #0]
   81728:	6adb      	ldr	r3, [r3, #44]	; 0x2c
   8172a:	62e3      	str	r3, [r4, #44]	; 0x2c
   8172c:	bdf8      	pop	{r3, r4, r5, r6, r7, pc}
   8172e:	bf00      	nop
   81730:	2007ab64 	.word	0x2007ab64
   81734:	2007aafc 	.word	0x2007aafc
   81738:	0008071d 	.word	0x0008071d
   8173c:	2007ab88 	.word	0x2007ab88
   81740:	000806d1 	.word	0x000806d1

00081744 <vTaskPriorityDisinherit>:
   81744:	b538      	push	{r3, r4, r5, lr}
   81746:	4604      	mov	r4, r0
   81748:	b1c0      	cbz	r0, 8177c <vTaskPriorityDisinherit+0x38>
   8174a:	6ac2      	ldr	r2, [r0, #44]	; 0x2c
   8174c:	6c83      	ldr	r3, [r0, #72]	; 0x48
   8174e:	429a      	cmp	r2, r3
   81750:	d014      	beq.n	8177c <vTaskPriorityDisinherit+0x38>
   81752:	1d05      	adds	r5, r0, #4
   81754:	4b0a      	ldr	r3, [pc, #40]	; (81780 <vTaskPriorityDisinherit+0x3c>)
   81756:	4628      	mov	r0, r5
   81758:	4798      	blx	r3
   8175a:	6ca3      	ldr	r3, [r4, #72]	; 0x48
   8175c:	2014      	movs	r0, #20
   8175e:	f1c3 0205 	rsb	r2, r3, #5
   81762:	61a2      	str	r2, [r4, #24]
   81764:	4a07      	ldr	r2, [pc, #28]	; (81784 <vTaskPriorityDisinherit+0x40>)
   81766:	62e3      	str	r3, [r4, #44]	; 0x2c
   81768:	6811      	ldr	r1, [r2, #0]
   8176a:	428b      	cmp	r3, r1
   8176c:	bf88      	it	hi
   8176e:	6013      	strhi	r3, [r2, #0]
   81770:	4a05      	ldr	r2, [pc, #20]	; (81788 <vTaskPriorityDisinherit+0x44>)
   81772:	4629      	mov	r1, r5
   81774:	fb00 2003 	mla	r0, r0, r3, r2
   81778:	4b04      	ldr	r3, [pc, #16]	; (8178c <vTaskPriorityDisinherit+0x48>)
   8177a:	4798      	blx	r3
   8177c:	bd38      	pop	{r3, r4, r5, pc}
   8177e:	bf00      	nop
   81780:	0008071d 	.word	0x0008071d
   81784:	2007ab88 	.word	0x2007ab88
   81788:	2007aafc 	.word	0x2007aafc
   8178c:	000806d1 	.word	0x000806d1

00081790 <prvCheckForValidListAndQueue>:
   81790:	e92d 41f0 	stmdb	sp!, {r4, r5, r6, r7, r8, lr}
   81794:	4c0d      	ldr	r4, [pc, #52]	; (817cc <prvCheckForValidListAndQueue+0x3c>)
   81796:	4b0e      	ldr	r3, [pc, #56]	; (817d0 <prvCheckForValidListAndQueue+0x40>)
   81798:	4798      	blx	r3
   8179a:	6825      	ldr	r5, [r4, #0]
   8179c:	b98d      	cbnz	r5, 817c2 <prvCheckForValidListAndQueue+0x32>
   8179e:	4f0d      	ldr	r7, [pc, #52]	; (817d4 <prvCheckForValidListAndQueue+0x44>)
   817a0:	4e0d      	ldr	r6, [pc, #52]	; (817d8 <prvCheckForValidListAndQueue+0x48>)
   817a2:	4638      	mov	r0, r7
   817a4:	f8df 8044 	ldr.w	r8, [pc, #68]	; 817ec <prvCheckForValidListAndQueue+0x5c>
   817a8:	47c0      	blx	r8
   817aa:	4630      	mov	r0, r6
   817ac:	47c0      	blx	r8
   817ae:	4b0b      	ldr	r3, [pc, #44]	; (817dc <prvCheckForValidListAndQueue+0x4c>)
   817b0:	2005      	movs	r0, #5
   817b2:	601f      	str	r7, [r3, #0]
   817b4:	4b0a      	ldr	r3, [pc, #40]	; (817e0 <prvCheckForValidListAndQueue+0x50>)
   817b6:	210c      	movs	r1, #12
   817b8:	601e      	str	r6, [r3, #0]
   817ba:	462a      	mov	r2, r5
   817bc:	4b09      	ldr	r3, [pc, #36]	; (817e4 <prvCheckForValidListAndQueue+0x54>)
   817be:	4798      	blx	r3
   817c0:	6020      	str	r0, [r4, #0]
   817c2:	4b09      	ldr	r3, [pc, #36]	; (817e8 <prvCheckForValidListAndQueue+0x58>)
   817c4:	4798      	blx	r3
   817c6:	e8bd 81f0 	ldmia.w	sp!, {r4, r5, r6, r7, r8, pc}
   817ca:	bf00      	nop
   817cc:	2007abcc 	.word	0x2007abcc
   817d0:	000807b1 	.word	0x000807b1
   817d4:	2007aba0 	.word	0x2007aba0
   817d8:	2007abb4 	.word	0x2007abb4
   817dc:	2007ab9c 	.word	0x2007ab9c
   817e0:	2007abd0 	.word	0x2007abd0
   817e4:	00080b51 	.word	0x00080b51
   817e8:	000807d1 	.word	0x000807d1
   817ec:	000806b5 	.word	0x000806b5

000817f0 <prvInsertTimerInActiveList>:
   817f0:	b510      	push	{r4, lr}
   817f2:	4604      	mov	r4, r0
   817f4:	4291      	cmp	r1, r2
   817f6:	6041      	str	r1, [r0, #4]
   817f8:	6120      	str	r0, [r4, #16]
   817fa:	d805      	bhi.n	81808 <prvInsertTimerInActiveList+0x18>
   817fc:	1ad2      	subs	r2, r2, r3
   817fe:	6983      	ldr	r3, [r0, #24]
   81800:	429a      	cmp	r2, r3
   81802:	d20c      	bcs.n	8181e <prvInsertTimerInActiveList+0x2e>
   81804:	4b07      	ldr	r3, [pc, #28]	; (81824 <prvInsertTimerInActiveList+0x34>)
   81806:	e004      	b.n	81812 <prvInsertTimerInActiveList+0x22>
   81808:	429a      	cmp	r2, r3
   8180a:	d201      	bcs.n	81810 <prvInsertTimerInActiveList+0x20>
   8180c:	4299      	cmp	r1, r3
   8180e:	d206      	bcs.n	8181e <prvInsertTimerInActiveList+0x2e>
   81810:	4b05      	ldr	r3, [pc, #20]	; (81828 <prvInsertTimerInActiveList+0x38>)
   81812:	6818      	ldr	r0, [r3, #0]
   81814:	1d21      	adds	r1, r4, #4
   81816:	4b05      	ldr	r3, [pc, #20]	; (8182c <prvInsertTimerInActiveList+0x3c>)
   81818:	4798      	blx	r3
   8181a:	2000      	movs	r0, #0
   8181c:	bd10      	pop	{r4, pc}
   8181e:	2001      	movs	r0, #1
   81820:	bd10      	pop	{r4, pc}
   81822:	bf00      	nop
   81824:	2007abd0 	.word	0x2007abd0
   81828:	2007ab9c 	.word	0x2007ab9c
   8182c:	000806ed 	.word	0x000806ed

00081830 <xTimerCreateTimerTask>:
   81830:	b51f      	push	{r0, r1, r2, r3, r4, lr}
   81832:	4b0d      	ldr	r3, [pc, #52]	; (81868 <xTimerCreateTimerTask+0x38>)
   81834:	4798      	blx	r3
   81836:	4b0d      	ldr	r3, [pc, #52]	; (8186c <xTimerCreateTimerTask+0x3c>)
   81838:	681b      	ldr	r3, [r3, #0]
   8183a:	b913      	cbnz	r3, 81842 <xTimerCreateTimerTask+0x12>
   8183c:	4b0c      	ldr	r3, [pc, #48]	; (81870 <xTimerCreateTimerTask+0x40>)
   8183e:	4798      	blx	r3
   81840:	e00f      	b.n	81862 <xTimerCreateTimerTask+0x32>
   81842:	2304      	movs	r3, #4
   81844:	9300      	str	r3, [sp, #0]
   81846:	2300      	movs	r3, #0
   81848:	9301      	str	r3, [sp, #4]
   8184a:	9302      	str	r3, [sp, #8]
   8184c:	9303      	str	r3, [sp, #12]
   8184e:	4809      	ldr	r0, [pc, #36]	; (81874 <xTimerCreateTimerTask+0x44>)
   81850:	4909      	ldr	r1, [pc, #36]	; (81878 <xTimerCreateTimerTask+0x48>)
   81852:	f44f 7282 	mov.w	r2, #260	; 0x104
   81856:	4c09      	ldr	r4, [pc, #36]	; (8187c <xTimerCreateTimerTask+0x4c>)
   81858:	47a0      	blx	r4
   8185a:	2800      	cmp	r0, #0
   8185c:	d0ee      	beq.n	8183c <xTimerCreateTimerTask+0xc>
   8185e:	b004      	add	sp, #16
   81860:	bd10      	pop	{r4, pc}
   81862:	bf00      	nop
   81864:	e7fd      	b.n	81862 <xTimerCreateTimerTask+0x32>
   81866:	bf00      	nop
   81868:	00081791 	.word	0x00081791
   8186c:	2007abcc 	.word	0x2007abcc
   81870:	000807a1 	.word	0x000807a1
   81874:	0008194d 	.word	0x0008194d
   81878:	00088947 	.word	0x00088947
   8187c:	00080f31 	.word	0x00080f31

00081880 <xTimerGenericCommand>:
   81880:	b57f      	push	{r0, r1, r2, r3, r4, r5, r6, lr}
   81882:	4d0f      	ldr	r5, [pc, #60]	; (818c0 <xTimerGenericCommand+0x40>)
   81884:	4606      	mov	r6, r0
   81886:	6828      	ldr	r0, [r5, #0]
   81888:	461c      	mov	r4, r3
   8188a:	b1b0      	cbz	r0, 818ba <xTimerGenericCommand+0x3a>
   8188c:	9101      	str	r1, [sp, #4]
   8188e:	9202      	str	r2, [sp, #8]
   81890:	9603      	str	r6, [sp, #12]
   81892:	b96b      	cbnz	r3, 818b0 <xTimerGenericCommand+0x30>
   81894:	4b0b      	ldr	r3, [pc, #44]	; (818c4 <xTimerGenericCommand+0x44>)
   81896:	4798      	blx	r3
   81898:	2801      	cmp	r0, #1
   8189a:	bf18      	it	ne
   8189c:	4622      	movne	r2, r4
   8189e:	4e0a      	ldr	r6, [pc, #40]	; (818c8 <xTimerGenericCommand+0x48>)
   818a0:	6828      	ldr	r0, [r5, #0]
   818a2:	a901      	add	r1, sp, #4
   818a4:	bf06      	itte	eq
   818a6:	9a08      	ldreq	r2, [sp, #32]
   818a8:	4623      	moveq	r3, r4
   818aa:	4613      	movne	r3, r2
   818ac:	47b0      	blx	r6
   818ae:	e004      	b.n	818ba <xTimerGenericCommand+0x3a>
   818b0:	461a      	mov	r2, r3
   818b2:	a901      	add	r1, sp, #4
   818b4:	2300      	movs	r3, #0
   818b6:	4c05      	ldr	r4, [pc, #20]	; (818cc <xTimerGenericCommand+0x4c>)
   818b8:	47a0      	blx	r4
   818ba:	b004      	add	sp, #16
   818bc:	bd70      	pop	{r4, r5, r6, pc}
   818be:	bf00      	nop
   818c0:	2007abcc 	.word	0x2007abcc
   818c4:	000816b9 	.word	0x000816b9
   818c8:	00080ba9 	.word	0x00080ba9
   818cc:	00080cc5 	.word	0x00080cc5

000818d0 <prvSwitchTimerLists.isra.1>:
   818d0:	b5f7      	push	{r0, r1, r2, r4, r5, r6, r7, lr}
   818d2:	4d18      	ldr	r5, [pc, #96]	; (81934 <prvSwitchTimerLists.isra.1+0x64>)
   818d4:	682b      	ldr	r3, [r5, #0]
   818d6:	681a      	ldr	r2, [r3, #0]
   818d8:	b32a      	cbz	r2, 81926 <prvSwitchTimerLists.isra.1+0x56>
   818da:	68da      	ldr	r2, [r3, #12]
   818dc:	6816      	ldr	r6, [r2, #0]
   818de:	68db      	ldr	r3, [r3, #12]
   818e0:	68dc      	ldr	r4, [r3, #12]
   818e2:	4b15      	ldr	r3, [pc, #84]	; (81938 <prvSwitchTimerLists.isra.1+0x68>)
   818e4:	1d27      	adds	r7, r4, #4
   818e6:	4638      	mov	r0, r7
   818e8:	4798      	blx	r3
   818ea:	6a63      	ldr	r3, [r4, #36]	; 0x24
   818ec:	4620      	mov	r0, r4
   818ee:	4798      	blx	r3
   818f0:	69e3      	ldr	r3, [r4, #28]
   818f2:	2b01      	cmp	r3, #1
   818f4:	d1ed      	bne.n	818d2 <prvSwitchTimerLists.isra.1+0x2>
   818f6:	69a3      	ldr	r3, [r4, #24]
   818f8:	4433      	add	r3, r6
   818fa:	42b3      	cmp	r3, r6
   818fc:	d906      	bls.n	8190c <prvSwitchTimerLists.isra.1+0x3c>
   818fe:	6063      	str	r3, [r4, #4]
   81900:	6124      	str	r4, [r4, #16]
   81902:	6828      	ldr	r0, [r5, #0]
   81904:	4639      	mov	r1, r7
   81906:	4b0d      	ldr	r3, [pc, #52]	; (8193c <prvSwitchTimerLists.isra.1+0x6c>)
   81908:	4798      	blx	r3
   8190a:	e7e2      	b.n	818d2 <prvSwitchTimerLists.isra.1+0x2>
   8190c:	2100      	movs	r1, #0
   8190e:	4620      	mov	r0, r4
   81910:	9100      	str	r1, [sp, #0]
   81912:	4632      	mov	r2, r6
   81914:	460b      	mov	r3, r1
   81916:	4c0a      	ldr	r4, [pc, #40]	; (81940 <prvSwitchTimerLists.isra.1+0x70>)
   81918:	47a0      	blx	r4
   8191a:	2800      	cmp	r0, #0
   8191c:	d1d9      	bne.n	818d2 <prvSwitchTimerLists.isra.1+0x2>
   8191e:	4b09      	ldr	r3, [pc, #36]	; (81944 <prvSwitchTimerLists.isra.1+0x74>)
   81920:	4798      	blx	r3
   81922:	bf00      	nop
   81924:	e7fd      	b.n	81922 <prvSwitchTimerLists.isra.1+0x52>
   81926:	4a08      	ldr	r2, [pc, #32]	; (81948 <prvSwitchTimerLists.isra.1+0x78>)
   81928:	6811      	ldr	r1, [r2, #0]
   8192a:	6013      	str	r3, [r2, #0]
   8192c:	6029      	str	r1, [r5, #0]
   8192e:	b003      	add	sp, #12
   81930:	bdf0      	pop	{r4, r5, r6, r7, pc}
   81932:	bf00      	nop
   81934:	2007ab9c 	.word	0x2007ab9c
   81938:	0008071d 	.word	0x0008071d
   8193c:	000806ed 	.word	0x000806ed
   81940:	00081881 	.word	0x00081881
   81944:	000807a1 	.word	0x000807a1
   81948:	2007abd0 	.word	0x2007abd0

0008194c <prvTimerTask>:
   8194c:	e92d 47f0 	stmdb	sp!, {r4, r5, r6, r7, r8, r9, sl, lr}
   81950:	b086      	sub	sp, #24
   81952:	f8df a180 	ldr.w	sl, [pc, #384]	; 81ad4 <prvTimerTask+0x188>
   81956:	f8da 3000 	ldr.w	r3, [sl]
   8195a:	681c      	ldr	r4, [r3, #0]
   8195c:	fab4 f484 	clz	r4, r4
   81960:	0964      	lsrs	r4, r4, #5
   81962:	b914      	cbnz	r4, 8196a <prvTimerTask+0x1e>
   81964:	68db      	ldr	r3, [r3, #12]
   81966:	681e      	ldr	r6, [r3, #0]
   81968:	e000      	b.n	8196c <prvTimerTask+0x20>
   8196a:	2600      	movs	r6, #0
   8196c:	4b4c      	ldr	r3, [pc, #304]	; (81aa0 <prvTimerTask+0x154>)
   8196e:	4d4d      	ldr	r5, [pc, #308]	; (81aa4 <prvTimerTask+0x158>)
   81970:	4798      	blx	r3
   81972:	47a8      	blx	r5
   81974:	f8df 8160 	ldr.w	r8, [pc, #352]	; 81ad8 <prvTimerTask+0x18c>
   81978:	4607      	mov	r7, r0
   8197a:	f8d8 3000 	ldr.w	r3, [r8]
   8197e:	46a9      	mov	r9, r5
   81980:	4298      	cmp	r0, r3
   81982:	d203      	bcs.n	8198c <prvTimerTask+0x40>
   81984:	4b48      	ldr	r3, [pc, #288]	; (81aa8 <prvTimerTask+0x15c>)
   81986:	4798      	blx	r3
   81988:	2301      	movs	r3, #1
   8198a:	e000      	b.n	8198e <prvTimerTask+0x42>
   8198c:	2300      	movs	r3, #0
   8198e:	f8c8 7000 	str.w	r7, [r8]
   81992:	4d46      	ldr	r5, [pc, #280]	; (81aac <prvTimerTask+0x160>)
   81994:	2b00      	cmp	r3, #0
   81996:	d130      	bne.n	819fa <prvTimerTask+0xae>
   81998:	bb2c      	cbnz	r4, 819e6 <prvTimerTask+0x9a>
   8199a:	42be      	cmp	r6, r7
   8199c:	d823      	bhi.n	819e6 <prvTimerTask+0x9a>
   8199e:	47a8      	blx	r5
   819a0:	f8da 3000 	ldr.w	r3, [sl]
   819a4:	68db      	ldr	r3, [r3, #12]
   819a6:	68dd      	ldr	r5, [r3, #12]
   819a8:	4b41      	ldr	r3, [pc, #260]	; (81ab0 <prvTimerTask+0x164>)
   819aa:	1d28      	adds	r0, r5, #4
   819ac:	4798      	blx	r3
   819ae:	69eb      	ldr	r3, [r5, #28]
   819b0:	2b01      	cmp	r3, #1
   819b2:	d114      	bne.n	819de <prvTimerTask+0x92>
   819b4:	69a9      	ldr	r1, [r5, #24]
   819b6:	463a      	mov	r2, r7
   819b8:	4628      	mov	r0, r5
   819ba:	4431      	add	r1, r6
   819bc:	4633      	mov	r3, r6
   819be:	4f3d      	ldr	r7, [pc, #244]	; (81ab4 <prvTimerTask+0x168>)
   819c0:	47b8      	blx	r7
   819c2:	2801      	cmp	r0, #1
   819c4:	d10b      	bne.n	819de <prvTimerTask+0x92>
   819c6:	9400      	str	r4, [sp, #0]
   819c8:	4621      	mov	r1, r4
   819ca:	4623      	mov	r3, r4
   819cc:	4628      	mov	r0, r5
   819ce:	4632      	mov	r2, r6
   819d0:	4c39      	ldr	r4, [pc, #228]	; (81ab8 <prvTimerTask+0x16c>)
   819d2:	47a0      	blx	r4
   819d4:	b918      	cbnz	r0, 819de <prvTimerTask+0x92>
   819d6:	4b39      	ldr	r3, [pc, #228]	; (81abc <prvTimerTask+0x170>)
   819d8:	4798      	blx	r3
   819da:	bf00      	nop
   819dc:	e7fd      	b.n	819da <prvTimerTask+0x8e>
   819de:	6a6b      	ldr	r3, [r5, #36]	; 0x24
   819e0:	4628      	mov	r0, r5
   819e2:	4798      	blx	r3
   819e4:	e00a      	b.n	819fc <prvTimerTask+0xb0>
   819e6:	4b36      	ldr	r3, [pc, #216]	; (81ac0 <prvTimerTask+0x174>)
   819e8:	1bf1      	subs	r1, r6, r7
   819ea:	6818      	ldr	r0, [r3, #0]
   819ec:	4b35      	ldr	r3, [pc, #212]	; (81ac4 <prvTimerTask+0x178>)
   819ee:	4798      	blx	r3
   819f0:	47a8      	blx	r5
   819f2:	b918      	cbnz	r0, 819fc <prvTimerTask+0xb0>
   819f4:	4b34      	ldr	r3, [pc, #208]	; (81ac8 <prvTimerTask+0x17c>)
   819f6:	4798      	blx	r3
   819f8:	e000      	b.n	819fc <prvTimerTask+0xb0>
   819fa:	47a8      	blx	r5
   819fc:	47c8      	blx	r9
   819fe:	f8d8 3000 	ldr.w	r3, [r8]
   81a02:	4605      	mov	r5, r0
   81a04:	4298      	cmp	r0, r3
   81a06:	d201      	bcs.n	81a0c <prvTimerTask+0xc0>
   81a08:	4b27      	ldr	r3, [pc, #156]	; (81aa8 <prvTimerTask+0x15c>)
   81a0a:	4798      	blx	r3
   81a0c:	f8c8 5000 	str.w	r5, [r8]
   81a10:	4b2b      	ldr	r3, [pc, #172]	; (81ac0 <prvTimerTask+0x174>)
   81a12:	2200      	movs	r2, #0
   81a14:	6818      	ldr	r0, [r3, #0]
   81a16:	a903      	add	r1, sp, #12
   81a18:	4613      	mov	r3, r2
   81a1a:	4c2c      	ldr	r4, [pc, #176]	; (81acc <prvTimerTask+0x180>)
   81a1c:	47a0      	blx	r4
   81a1e:	2800      	cmp	r0, #0
   81a20:	d097      	beq.n	81952 <prvTimerTask+0x6>
   81a22:	9c05      	ldr	r4, [sp, #20]
   81a24:	b124      	cbz	r4, 81a30 <prvTimerTask+0xe4>
   81a26:	6963      	ldr	r3, [r4, #20]
   81a28:	b113      	cbz	r3, 81a30 <prvTimerTask+0xe4>
   81a2a:	1d20      	adds	r0, r4, #4
   81a2c:	4b20      	ldr	r3, [pc, #128]	; (81ab0 <prvTimerTask+0x164>)
   81a2e:	4798      	blx	r3
   81a30:	9e03      	ldr	r6, [sp, #12]
   81a32:	2e02      	cmp	r6, #2
   81a34:	d021      	beq.n	81a7a <prvTimerTask+0x12e>
   81a36:	2e03      	cmp	r6, #3
   81a38:	d02d      	beq.n	81a96 <prvTimerTask+0x14a>
   81a3a:	2e00      	cmp	r6, #0
   81a3c:	d1e8      	bne.n	81a10 <prvTimerTask+0xc4>
   81a3e:	9b04      	ldr	r3, [sp, #16]
   81a40:	69a1      	ldr	r1, [r4, #24]
   81a42:	4620      	mov	r0, r4
   81a44:	4419      	add	r1, r3
   81a46:	462a      	mov	r2, r5
   81a48:	4f1a      	ldr	r7, [pc, #104]	; (81ab4 <prvTimerTask+0x168>)
   81a4a:	47b8      	blx	r7
   81a4c:	2801      	cmp	r0, #1
   81a4e:	d1df      	bne.n	81a10 <prvTimerTask+0xc4>
   81a50:	6a63      	ldr	r3, [r4, #36]	; 0x24
   81a52:	4620      	mov	r0, r4
   81a54:	4798      	blx	r3
   81a56:	69e3      	ldr	r3, [r4, #28]
   81a58:	2b01      	cmp	r3, #1
   81a5a:	d1d9      	bne.n	81a10 <prvTimerTask+0xc4>
   81a5c:	69a2      	ldr	r2, [r4, #24]
   81a5e:	9b04      	ldr	r3, [sp, #16]
   81a60:	4620      	mov	r0, r4
   81a62:	441a      	add	r2, r3
   81a64:	9600      	str	r6, [sp, #0]
   81a66:	4631      	mov	r1, r6
   81a68:	4633      	mov	r3, r6
   81a6a:	4c13      	ldr	r4, [pc, #76]	; (81ab8 <prvTimerTask+0x16c>)
   81a6c:	47a0      	blx	r4
   81a6e:	2800      	cmp	r0, #0
   81a70:	d1ce      	bne.n	81a10 <prvTimerTask+0xc4>
   81a72:	4b12      	ldr	r3, [pc, #72]	; (81abc <prvTimerTask+0x170>)
   81a74:	4798      	blx	r3
   81a76:	bf00      	nop
   81a78:	e7fd      	b.n	81a76 <prvTimerTask+0x12a>
   81a7a:	9904      	ldr	r1, [sp, #16]
   81a7c:	61a1      	str	r1, [r4, #24]
   81a7e:	b919      	cbnz	r1, 81a88 <prvTimerTask+0x13c>
   81a80:	4b0e      	ldr	r3, [pc, #56]	; (81abc <prvTimerTask+0x170>)
   81a82:	4798      	blx	r3
   81a84:	bf00      	nop
   81a86:	e7fd      	b.n	81a84 <prvTimerTask+0x138>
   81a88:	4620      	mov	r0, r4
   81a8a:	4429      	add	r1, r5
   81a8c:	462a      	mov	r2, r5
   81a8e:	462b      	mov	r3, r5
   81a90:	4c08      	ldr	r4, [pc, #32]	; (81ab4 <prvTimerTask+0x168>)
   81a92:	47a0      	blx	r4
   81a94:	e7bc      	b.n	81a10 <prvTimerTask+0xc4>
   81a96:	4620      	mov	r0, r4
   81a98:	4b0d      	ldr	r3, [pc, #52]	; (81ad0 <prvTimerTask+0x184>)
   81a9a:	4798      	blx	r3
   81a9c:	e7b8      	b.n	81a10 <prvTimerTask+0xc4>
   81a9e:	bf00      	nop
   81aa0:	0008116d 	.word	0x0008116d
   81aa4:	0008117d 	.word	0x0008117d
   81aa8:	000818d1 	.word	0x000818d1
   81aac:	00081289 	.word	0x00081289
   81ab0:	0008071d 	.word	0x0008071d
   81ab4:	000817f1 	.word	0x000817f1
   81ab8:	00081881 	.word	0x00081881
   81abc:	000807a1 	.word	0x000807a1
   81ac0:	2007abcc 	.word	0x2007abcc
   81ac4:	00080e99 	.word	0x00080e99
   81ac8:	00080791 	.word	0x00080791
   81acc:	00080d41 	.word	0x00080d41
   81ad0:	000809a9 	.word	0x000809a9
   81ad4:	2007ab9c 	.word	0x2007ab9c
   81ad8:	2007abc8 	.word	0x2007abc8

00081adc <_write>:
   81adc:	3801      	subs	r0, #1
   81ade:	2802      	cmp	r0, #2
   81ae0:	b570      	push	{r4, r5, r6, lr}
   81ae2:	460e      	mov	r6, r1
   81ae4:	d80e      	bhi.n	81b04 <_write+0x28>
   81ae6:	460c      	mov	r4, r1
   81ae8:	188d      	adds	r5, r1, r2
   81aea:	42ac      	cmp	r4, r5
   81aec:	eba4 0006 	sub.w	r0, r4, r6
   81af0:	d00b      	beq.n	81b0a <_write+0x2e>
   81af2:	4b06      	ldr	r3, [pc, #24]	; (81b0c <_write+0x30>)
   81af4:	f814 1b01 	ldrb.w	r1, [r4], #1
   81af8:	6818      	ldr	r0, [r3, #0]
   81afa:	4b05      	ldr	r3, [pc, #20]	; (81b10 <_write+0x34>)
   81afc:	681b      	ldr	r3, [r3, #0]
   81afe:	4798      	blx	r3
   81b00:	2800      	cmp	r0, #0
   81b02:	daf2      	bge.n	81aea <_write+0xe>
   81b04:	f04f 30ff 	mov.w	r0, #4294967295
   81b08:	bd70      	pop	{r4, r5, r6, pc}
   81b0a:	bd70      	pop	{r4, r5, r6, pc}
   81b0c:	2007adb4 	.word	0x2007adb4
   81b10:	2007adb0 	.word	0x2007adb0

00081b14 <adc_init>:
   81b14:	b530      	push	{r4, r5, lr}
   81b16:	0052      	lsls	r2, r2, #1
   81b18:	f240 2502 	movw	r5, #514	; 0x202
   81b1c:	fbb1 f1f2 	udiv	r1, r1, r2
   81b20:	2401      	movs	r4, #1
   81b22:	6004      	str	r4, [r0, #0]
   81b24:	2400      	movs	r4, #0
   81b26:	6044      	str	r4, [r0, #4]
   81b28:	f8c0 5120 	str.w	r5, [r0, #288]	; 0x120
   81b2c:	f8c0 4104 	str.w	r4, [r0, #260]	; 0x104
   81b30:	f8c0 4114 	str.w	r4, [r0, #276]	; 0x114
   81b34:	6845      	ldr	r5, [r0, #4]
   81b36:	1e4a      	subs	r2, r1, #1
   81b38:	0212      	lsls	r2, r2, #8
   81b3a:	432b      	orrs	r3, r5
   81b3c:	b292      	uxth	r2, r2
   81b3e:	4313      	orrs	r3, r2
   81b40:	6043      	str	r3, [r0, #4]
   81b42:	4620      	mov	r0, r4
   81b44:	bd30      	pop	{r4, r5, pc}

00081b46 <adc_set_resolution>:
   81b46:	6843      	ldr	r3, [r0, #4]
   81b48:	f023 0310 	bic.w	r3, r3, #16
   81b4c:	6043      	str	r3, [r0, #4]
   81b4e:	6843      	ldr	r3, [r0, #4]
   81b50:	4319      	orrs	r1, r3
   81b52:	6041      	str	r1, [r0, #4]
   81b54:	4770      	bx	lr

00081b56 <adc_configure_trigger>:
   81b56:	6843      	ldr	r3, [r0, #4]
   81b58:	01d2      	lsls	r2, r2, #7
   81b5a:	4319      	orrs	r1, r3
   81b5c:	b2d2      	uxtb	r2, r2
   81b5e:	4311      	orrs	r1, r2
   81b60:	6041      	str	r1, [r0, #4]
   81b62:	4770      	bx	lr

00081b64 <adc_configure_timing>:
   81b64:	b510      	push	{r4, lr}
   81b66:	6844      	ldr	r4, [r0, #4]
   81b68:	0609      	lsls	r1, r1, #24
   81b6a:	4322      	orrs	r2, r4
   81b6c:	f001 6170 	and.w	r1, r1, #251658240	; 0xf000000
   81b70:	071b      	lsls	r3, r3, #28
   81b72:	430a      	orrs	r2, r1
   81b74:	f003 5340 	and.w	r3, r3, #805306368	; 0x30000000
   81b78:	4313      	orrs	r3, r2
   81b7a:	6043      	str	r3, [r0, #4]
   81b7c:	bd10      	pop	{r4, pc}

00081b7e <adc_start>:
   81b7e:	2302      	movs	r3, #2
   81b80:	6003      	str	r3, [r0, #0]
   81b82:	4770      	bx	lr

00081b84 <adc_enable_channel>:
   81b84:	2301      	movs	r3, #1
   81b86:	408b      	lsls	r3, r1
   81b88:	6103      	str	r3, [r0, #16]
   81b8a:	4770      	bx	lr

00081b8c <adc_get_latest_value>:
   81b8c:	6a00      	ldr	r0, [r0, #32]
   81b8e:	4770      	bx	lr

00081b90 <adc_get_status>:
   81b90:	6b00      	ldr	r0, [r0, #48]	; 0x30
   81b92:	4770      	bx	lr

00081b94 <usart_write>:
   81b94:	6943      	ldr	r3, [r0, #20]
   81b96:	079b      	lsls	r3, r3, #30
   81b98:	bf43      	ittte	mi
   81b9a:	f3c1 0108 	ubfxmi	r1, r1, #0, #9
   81b9e:	61c1      	strmi	r1, [r0, #28]
   81ba0:	2000      	movmi	r0, #0
   81ba2:	2001      	movpl	r0, #1
   81ba4:	4770      	bx	lr

00081ba6 <usart_read>:
   81ba6:	6943      	ldr	r3, [r0, #20]
   81ba8:	07db      	lsls	r3, r3, #31
   81baa:	bf41      	itttt	mi
   81bac:	6983      	ldrmi	r3, [r0, #24]
   81bae:	2000      	movmi	r0, #0
   81bb0:	f3c3 0308 	ubfxmi	r3, r3, #0, #9
   81bb4:	600b      	strmi	r3, [r1, #0]
   81bb6:	bf58      	it	pl
   81bb8:	2001      	movpl	r0, #1
   81bba:	4770      	bx	lr

00081bbc <usart_serial_read_packet>:
   81bbc:	b573      	push	{r0, r1, r4, r5, r6, lr}
   81bbe:	4605      	mov	r5, r0
   81bc0:	460c      	mov	r4, r1
   81bc2:	188e      	adds	r6, r1, r2
   81bc4:	42b4      	cmp	r4, r6
   81bc6:	d036      	beq.n	81c36 <usart_serial_read_packet+0x7a>
   81bc8:	2300      	movs	r3, #0
   81bca:	9301      	str	r3, [sp, #4]
   81bcc:	4b1b      	ldr	r3, [pc, #108]	; (81c3c <usart_serial_read_packet+0x80>)
   81bce:	429d      	cmp	r5, r3
   81bd0:	d106      	bne.n	81be0 <usart_serial_read_packet+0x24>
   81bd2:	481a      	ldr	r0, [pc, #104]	; (81c3c <usart_serial_read_packet+0x80>)
   81bd4:	4621      	mov	r1, r4
   81bd6:	4b1a      	ldr	r3, [pc, #104]	; (81c40 <usart_serial_read_packet+0x84>)
   81bd8:	4798      	blx	r3
   81bda:	2800      	cmp	r0, #0
   81bdc:	d1f9      	bne.n	81bd2 <usart_serial_read_packet+0x16>
   81bde:	e028      	b.n	81c32 <usart_serial_read_packet+0x76>
   81be0:	4b18      	ldr	r3, [pc, #96]	; (81c44 <usart_serial_read_packet+0x88>)
   81be2:	429d      	cmp	r5, r3
   81be4:	d106      	bne.n	81bf4 <usart_serial_read_packet+0x38>
   81be6:	4817      	ldr	r0, [pc, #92]	; (81c44 <usart_serial_read_packet+0x88>)
   81be8:	a901      	add	r1, sp, #4
   81bea:	4b17      	ldr	r3, [pc, #92]	; (81c48 <usart_serial_read_packet+0x8c>)
   81bec:	4798      	blx	r3
   81bee:	2800      	cmp	r0, #0
   81bf0:	d1f9      	bne.n	81be6 <usart_serial_read_packet+0x2a>
   81bf2:	e01c      	b.n	81c2e <usart_serial_read_packet+0x72>
   81bf4:	4b15      	ldr	r3, [pc, #84]	; (81c4c <usart_serial_read_packet+0x90>)
   81bf6:	429d      	cmp	r5, r3
   81bf8:	d106      	bne.n	81c08 <usart_serial_read_packet+0x4c>
   81bfa:	4814      	ldr	r0, [pc, #80]	; (81c4c <usart_serial_read_packet+0x90>)
   81bfc:	a901      	add	r1, sp, #4
   81bfe:	4b12      	ldr	r3, [pc, #72]	; (81c48 <usart_serial_read_packet+0x8c>)
   81c00:	4798      	blx	r3
   81c02:	2800      	cmp	r0, #0
   81c04:	d1f9      	bne.n	81bfa <usart_serial_read_packet+0x3e>
   81c06:	e012      	b.n	81c2e <usart_serial_read_packet+0x72>
   81c08:	4b11      	ldr	r3, [pc, #68]	; (81c50 <usart_serial_read_packet+0x94>)
   81c0a:	429d      	cmp	r5, r3
   81c0c:	d106      	bne.n	81c1c <usart_serial_read_packet+0x60>
   81c0e:	4810      	ldr	r0, [pc, #64]	; (81c50 <usart_serial_read_packet+0x94>)
   81c10:	a901      	add	r1, sp, #4
   81c12:	4b0d      	ldr	r3, [pc, #52]	; (81c48 <usart_serial_read_packet+0x8c>)
   81c14:	4798      	blx	r3
   81c16:	2800      	cmp	r0, #0
   81c18:	d1f9      	bne.n	81c0e <usart_serial_read_packet+0x52>
   81c1a:	e008      	b.n	81c2e <usart_serial_read_packet+0x72>
   81c1c:	4b0d      	ldr	r3, [pc, #52]	; (81c54 <usart_serial_read_packet+0x98>)
   81c1e:	429d      	cmp	r5, r3
   81c20:	d107      	bne.n	81c32 <usart_serial_read_packet+0x76>
   81c22:	480c      	ldr	r0, [pc, #48]	; (81c54 <usart_serial_read_packet+0x98>)
   81c24:	a901      	add	r1, sp, #4
   81c26:	4b08      	ldr	r3, [pc, #32]	; (81c48 <usart_serial_read_packet+0x8c>)
   81c28:	4798      	blx	r3
   81c2a:	2800      	cmp	r0, #0
   81c2c:	d1f9      	bne.n	81c22 <usart_serial_read_packet+0x66>
   81c2e:	9b01      	ldr	r3, [sp, #4]
   81c30:	7023      	strb	r3, [r4, #0]
   81c32:	3401      	adds	r4, #1
   81c34:	e7c6      	b.n	81bc4 <usart_serial_read_packet+0x8>
   81c36:	2000      	movs	r0, #0
   81c38:	b002      	add	sp, #8
   81c3a:	bd70      	pop	{r4, r5, r6, pc}
   81c3c:	400e0800 	.word	0x400e0800
   81c40:	00081e4f 	.word	0x00081e4f
   81c44:	40098000 	.word	0x40098000
   81c48:	00081ba7 	.word	0x00081ba7
   81c4c:	4009c000 	.word	0x4009c000
   81c50:	400a0000 	.word	0x400a0000
   81c54:	400a4000 	.word	0x400a4000

00081c58 <pwm_clocks_generate>:
   81c58:	b5f0      	push	{r4, r5, r6, r7, lr}
   81c5a:	4d11      	ldr	r5, [pc, #68]	; (81ca0 <pwm_clocks_generate+0x48>)
   81c5c:	b08d      	sub	sp, #52	; 0x34
   81c5e:	ac01      	add	r4, sp, #4
   81c60:	4606      	mov	r6, r0
   81c62:	460f      	mov	r7, r1
   81c64:	cd0f      	ldmia	r5!, {r0, r1, r2, r3}
   81c66:	c40f      	stmia	r4!, {r0, r1, r2, r3}
   81c68:	cd0f      	ldmia	r5!, {r0, r1, r2, r3}
   81c6a:	c40f      	stmia	r4!, {r0, r1, r2, r3}
   81c6c:	e895 0007 	ldmia.w	r5, {r0, r1, r2}
   81c70:	e884 0007 	stmia.w	r4, {r0, r1, r2}
   81c74:	2200      	movs	r2, #0
   81c76:	a901      	add	r1, sp, #4
   81c78:	f851 3022 	ldr.w	r3, [r1, r2, lsl #2]
   81c7c:	fbb7 f0f3 	udiv	r0, r7, r3
   81c80:	fbb0 f0f6 	udiv	r0, r0, r6
   81c84:	f5b0 7f80 	cmp.w	r0, #256	; 0x100
   81c88:	d905      	bls.n	81c96 <pwm_clocks_generate+0x3e>
   81c8a:	3201      	adds	r2, #1
   81c8c:	2a0b      	cmp	r2, #11
   81c8e:	d1f3      	bne.n	81c78 <pwm_clocks_generate+0x20>
   81c90:	f64f 70ff 	movw	r0, #65535	; 0xffff
   81c94:	e001      	b.n	81c9a <pwm_clocks_generate+0x42>
   81c96:	ea40 2002 	orr.w	r0, r0, r2, lsl #8
   81c9a:	b00d      	add	sp, #52	; 0x34
   81c9c:	bdf0      	pop	{r4, r5, r6, r7, pc}
   81c9e:	bf00      	nop
   81ca0:	00088950 	.word	0x00088950

00081ca4 <pwm_init>:
   81ca4:	b570      	push	{r4, r5, r6, lr}
   81ca6:	4606      	mov	r6, r0
   81ca8:	6808      	ldr	r0, [r1, #0]
   81caa:	460d      	mov	r5, r1
   81cac:	b140      	cbz	r0, 81cc0 <pwm_init+0x1c>
   81cae:	4b0c      	ldr	r3, [pc, #48]	; (81ce0 <pwm_init+0x3c>)
   81cb0:	6889      	ldr	r1, [r1, #8]
   81cb2:	4798      	blx	r3
   81cb4:	f64f 73ff 	movw	r3, #65535	; 0xffff
   81cb8:	4298      	cmp	r0, r3
   81cba:	4604      	mov	r4, r0
   81cbc:	d101      	bne.n	81cc2 <pwm_init+0x1e>
   81cbe:	e00e      	b.n	81cde <pwm_init+0x3a>
   81cc0:	4604      	mov	r4, r0
   81cc2:	6868      	ldr	r0, [r5, #4]
   81cc4:	b140      	cbz	r0, 81cd8 <pwm_init+0x34>
   81cc6:	4b06      	ldr	r3, [pc, #24]	; (81ce0 <pwm_init+0x3c>)
   81cc8:	68a9      	ldr	r1, [r5, #8]
   81cca:	4798      	blx	r3
   81ccc:	f64f 73ff 	movw	r3, #65535	; 0xffff
   81cd0:	4298      	cmp	r0, r3
   81cd2:	d004      	beq.n	81cde <pwm_init+0x3a>
   81cd4:	ea44 4400 	orr.w	r4, r4, r0, lsl #16
   81cd8:	6034      	str	r4, [r6, #0]
   81cda:	2000      	movs	r0, #0
   81cdc:	bd70      	pop	{r4, r5, r6, pc}
   81cde:	bd70      	pop	{r4, r5, r6, pc}
   81ce0:	00081c59 	.word	0x00081c59

00081ce4 <pwm_channel_init>:
   81ce4:	b570      	push	{r4, r5, r6, lr}
   81ce6:	684c      	ldr	r4, [r1, #4]
   81ce8:	8a8a      	ldrh	r2, [r1, #20]
   81cea:	f004 040f 	and.w	r4, r4, #15
   81cee:	4322      	orrs	r2, r4
   81cf0:	890c      	ldrh	r4, [r1, #8]
   81cf2:	680b      	ldr	r3, [r1, #0]
   81cf4:	4322      	orrs	r2, r4
   81cf6:	7a8c      	ldrb	r4, [r1, #10]
   81cf8:	ea42 2244 	orr.w	r2, r2, r4, lsl #9
   81cfc:	7d8c      	ldrb	r4, [r1, #22]
   81cfe:	ea42 4204 	orr.w	r2, r2, r4, lsl #16
   81d02:	7dcc      	ldrb	r4, [r1, #23]
   81d04:	ea42 4244 	orr.w	r2, r2, r4, lsl #17
   81d08:	7e0c      	ldrb	r4, [r1, #24]
   81d0a:	ea42 4284 	orr.w	r2, r2, r4, lsl #18
   81d0e:	eb00 1443 	add.w	r4, r0, r3, lsl #5
   81d12:	f8c4 2200 	str.w	r2, [r4, #512]	; 0x200
   81d16:	68ca      	ldr	r2, [r1, #12]
   81d18:	f8c4 2204 	str.w	r2, [r4, #516]	; 0x204
   81d1c:	690d      	ldr	r5, [r1, #16]
   81d1e:	f8c4 520c 	str.w	r5, [r4, #524]	; 0x20c
   81d22:	7d8a      	ldrb	r2, [r1, #22]
   81d24:	b12a      	cbz	r2, 81d32 <pwm_channel_init+0x4e>
   81d26:	8b8d      	ldrh	r5, [r1, #28]
   81d28:	8b4a      	ldrh	r2, [r1, #26]
   81d2a:	ea42 4205 	orr.w	r2, r2, r5, lsl #16
   81d2e:	f8c4 2218 	str.w	r2, [r4, #536]	; 0x218
   81d32:	f04f 1201 	mov.w	r2, #65537	; 0x10001
   81d36:	409a      	lsls	r2, r3
   81d38:	43d2      	mvns	r2, r2
   81d3a:	6c84      	ldr	r4, [r0, #72]	; 0x48
   81d3c:	ea02 0504 	and.w	r5, r2, r4
   81d40:	7fcc      	ldrb	r4, [r1, #31]
   81d42:	fa04 f603 	lsl.w	r6, r4, r3
   81d46:	7f8c      	ldrb	r4, [r1, #30]
   81d48:	409c      	lsls	r4, r3
   81d4a:	ea44 4406 	orr.w	r4, r4, r6, lsl #16
   81d4e:	432c      	orrs	r4, r5
   81d50:	6484      	str	r4, [r0, #72]	; 0x48
   81d52:	6c44      	ldr	r4, [r0, #68]	; 0x44
   81d54:	4014      	ands	r4, r2
   81d56:	f891 2021 	ldrb.w	r2, [r1, #33]	; 0x21
   81d5a:	fa02 f503 	lsl.w	r5, r2, r3
   81d5e:	f891 2020 	ldrb.w	r2, [r1, #32]
   81d62:	409a      	lsls	r2, r3
   81d64:	ea42 4205 	orr.w	r2, r2, r5, lsl #16
   81d68:	4322      	orrs	r2, r4
   81d6a:	6442      	str	r2, [r0, #68]	; 0x44
   81d6c:	f891 4022 	ldrb.w	r4, [r1, #34]	; 0x22
   81d70:	2201      	movs	r2, #1
   81d72:	409a      	lsls	r2, r3
   81d74:	b114      	cbz	r4, 81d7c <pwm_channel_init+0x98>
   81d76:	6a04      	ldr	r4, [r0, #32]
   81d78:	4314      	orrs	r4, r2
   81d7a:	e002      	b.n	81d82 <pwm_channel_init+0x9e>
   81d7c:	6a04      	ldr	r4, [r0, #32]
   81d7e:	ea24 0402 	bic.w	r4, r4, r2
   81d82:	6204      	str	r4, [r0, #32]
   81d84:	f891 4024 	ldrb.w	r4, [r1, #36]	; 0x24
   81d88:	2c01      	cmp	r4, #1
   81d8a:	6e84      	ldr	r4, [r0, #104]	; 0x68
   81d8c:	bf0c      	ite	eq
   81d8e:	4314      	orreq	r4, r2
   81d90:	4394      	bicne	r4, r2
   81d92:	6684      	str	r4, [r0, #104]	; 0x68
   81d94:	f891 4025 	ldrb.w	r4, [r1, #37]	; 0x25
   81d98:	0412      	lsls	r2, r2, #16
   81d9a:	2c01      	cmp	r4, #1
   81d9c:	6e84      	ldr	r4, [r0, #104]	; 0x68
   81d9e:	bf0c      	ite	eq
   81da0:	4322      	orreq	r2, r4
   81da2:	ea24 0202 	bicne.w	r2, r4, r2
   81da6:	6682      	str	r2, [r0, #104]	; 0x68
   81da8:	2b03      	cmp	r3, #3
   81daa:	f04f 04ff 	mov.w	r4, #255	; 0xff
   81dae:	f891 2023 	ldrb.w	r2, [r1, #35]	; 0x23
   81db2:	d808      	bhi.n	81dc6 <pwm_channel_init+0xe2>
   81db4:	6ec1      	ldr	r1, [r0, #108]	; 0x6c
   81db6:	00db      	lsls	r3, r3, #3
   81db8:	409c      	lsls	r4, r3
   81dba:	ea21 0404 	bic.w	r4, r1, r4
   81dbe:	409a      	lsls	r2, r3
   81dc0:	4322      	orrs	r2, r4
   81dc2:	66c2      	str	r2, [r0, #108]	; 0x6c
   81dc4:	e008      	b.n	81dd8 <pwm_channel_init+0xf4>
   81dc6:	3b04      	subs	r3, #4
   81dc8:	6f01      	ldr	r1, [r0, #112]	; 0x70
   81dca:	00db      	lsls	r3, r3, #3
   81dcc:	409c      	lsls	r4, r3
   81dce:	ea21 0404 	bic.w	r4, r1, r4
   81dd2:	409a      	lsls	r2, r3
   81dd4:	4322      	orrs	r2, r4
   81dd6:	6702      	str	r2, [r0, #112]	; 0x70
   81dd8:	2000      	movs	r0, #0
   81dda:	bd70      	pop	{r4, r5, r6, pc}

00081ddc <pwm_channel_update_duty>:
   81ddc:	b510      	push	{r4, lr}
   81dde:	690c      	ldr	r4, [r1, #16]
   81de0:	680b      	ldr	r3, [r1, #0]
   81de2:	4294      	cmp	r4, r2
   81de4:	bf21      	itttt	cs
   81de6:	eb00 1043 	addcs.w	r0, r0, r3, lsl #5
   81dea:	60ca      	strcs	r2, [r1, #12]
   81dec:	f8c0 2208 	strcs.w	r2, [r0, #520]	; 0x208
   81df0:	2000      	movcs	r0, #0
   81df2:	bf38      	it	cc
   81df4:	f64f 70ff 	movwcc	r0, #65535	; 0xffff
   81df8:	bd10      	pop	{r4, pc}

00081dfa <pwm_channel_enable>:
   81dfa:	2301      	movs	r3, #1
   81dfc:	408b      	lsls	r3, r1
   81dfe:	6043      	str	r3, [r0, #4]
   81e00:	4770      	bx	lr

00081e02 <pwm_channel_disable>:
   81e02:	2301      	movs	r3, #1
   81e04:	408b      	lsls	r3, r1
   81e06:	6083      	str	r3, [r0, #8]
   81e08:	4770      	bx	lr

00081e0a <uart_init>:
   81e0a:	23ac      	movs	r3, #172	; 0xac
   81e0c:	b510      	push	{r4, lr}
   81e0e:	6003      	str	r3, [r0, #0]
   81e10:	684a      	ldr	r2, [r1, #4]
   81e12:	680b      	ldr	r3, [r1, #0]
   81e14:	fbb3 f3f2 	udiv	r3, r3, r2
   81e18:	f64f 72fe 	movw	r2, #65534	; 0xfffe
   81e1c:	091b      	lsrs	r3, r3, #4
   81e1e:	1e5c      	subs	r4, r3, #1
   81e20:	4294      	cmp	r4, r2
   81e22:	bf9f      	itttt	ls
   81e24:	6203      	strls	r3, [r0, #32]
   81e26:	688b      	ldrls	r3, [r1, #8]
   81e28:	6043      	strls	r3, [r0, #4]
   81e2a:	f240 2302 	movwls	r3, #514	; 0x202
   81e2e:	bf9f      	itttt	ls
   81e30:	f8c0 3120 	strls.w	r3, [r0, #288]	; 0x120
   81e34:	2350      	movls	r3, #80	; 0x50
   81e36:	6003      	strls	r3, [r0, #0]
   81e38:	2000      	movls	r0, #0
   81e3a:	bf88      	it	hi
   81e3c:	2001      	movhi	r0, #1
   81e3e:	bd10      	pop	{r4, pc}

00081e40 <uart_write>:
   81e40:	6943      	ldr	r3, [r0, #20]
   81e42:	079b      	lsls	r3, r3, #30
   81e44:	bf46      	itte	mi
   81e46:	61c1      	strmi	r1, [r0, #28]
   81e48:	2000      	movmi	r0, #0
   81e4a:	2001      	movpl	r0, #1
   81e4c:	4770      	bx	lr

00081e4e <uart_read>:
   81e4e:	6943      	ldr	r3, [r0, #20]
   81e50:	07db      	lsls	r3, r3, #31
   81e52:	bf43      	ittte	mi
   81e54:	6983      	ldrmi	r3, [r0, #24]
   81e56:	2000      	movmi	r0, #0
   81e58:	700b      	strbmi	r3, [r1, #0]
   81e5a:	2001      	movpl	r0, #1
   81e5c:	4770      	bx	lr
	...

00081e60 <sysclk_init>:
   81e60:	b510      	push	{r4, lr}
   81e62:	480e      	ldr	r0, [pc, #56]	; (81e9c <sysclk_init+0x3c>)
   81e64:	4c0e      	ldr	r4, [pc, #56]	; (81ea0 <sysclk_init+0x40>)
   81e66:	47a0      	blx	r4
   81e68:	2000      	movs	r0, #0
   81e6a:	213e      	movs	r1, #62	; 0x3e
   81e6c:	4b0d      	ldr	r3, [pc, #52]	; (81ea4 <sysclk_init+0x44>)
   81e6e:	4798      	blx	r3
   81e70:	4b0d      	ldr	r3, [pc, #52]	; (81ea8 <sysclk_init+0x48>)
   81e72:	4798      	blx	r3
   81e74:	2800      	cmp	r0, #0
   81e76:	d0fb      	beq.n	81e70 <sysclk_init+0x10>
   81e78:	4b0c      	ldr	r3, [pc, #48]	; (81eac <sysclk_init+0x4c>)
   81e7a:	4798      	blx	r3
   81e7c:	4a0c      	ldr	r2, [pc, #48]	; (81eb0 <sysclk_init+0x50>)
   81e7e:	4b0d      	ldr	r3, [pc, #52]	; (81eb4 <sysclk_init+0x54>)
   81e80:	629a      	str	r2, [r3, #40]	; 0x28
   81e82:	4b0d      	ldr	r3, [pc, #52]	; (81eb8 <sysclk_init+0x58>)
   81e84:	4798      	blx	r3
   81e86:	2800      	cmp	r0, #0
   81e88:	d0fb      	beq.n	81e82 <sysclk_init+0x22>
   81e8a:	4b0c      	ldr	r3, [pc, #48]	; (81ebc <sysclk_init+0x5c>)
   81e8c:	2010      	movs	r0, #16
   81e8e:	4798      	blx	r3
   81e90:	4b0b      	ldr	r3, [pc, #44]	; (81ec0 <sysclk_init+0x60>)
   81e92:	4798      	blx	r3
   81e94:	4801      	ldr	r0, [pc, #4]	; (81e9c <sysclk_init+0x3c>)
   81e96:	47a0      	blx	r4
   81e98:	bd10      	pop	{r4, pc}
   81e9a:	bf00      	nop
   81e9c:	0501bd00 	.word	0x0501bd00
   81ea0:	20070089 	.word	0x20070089
   81ea4:	00082215 	.word	0x00082215
   81ea8:	00082261 	.word	0x00082261
   81eac:	00082271 	.word	0x00082271
   81eb0:	200d3f01 	.word	0x200d3f01
   81eb4:	400e0600 	.word	0x400e0600
   81eb8:	00082281 	.word	0x00082281
   81ebc:	000821d1 	.word	0x000821d1
   81ec0:	00082351 	.word	0x00082351

00081ec4 <board_init>:
   81ec4:	4b17      	ldr	r3, [pc, #92]	; (81f24 <board_init+0x60>)
   81ec6:	f44f 4200 	mov.w	r2, #32768	; 0x8000
   81eca:	b510      	push	{r4, lr}
   81ecc:	200b      	movs	r0, #11
   81ece:	605a      	str	r2, [r3, #4]
   81ed0:	4c15      	ldr	r4, [pc, #84]	; (81f28 <board_init+0x64>)
   81ed2:	47a0      	blx	r4
   81ed4:	200c      	movs	r0, #12
   81ed6:	47a0      	blx	r4
   81ed8:	200d      	movs	r0, #13
   81eda:	47a0      	blx	r4
   81edc:	200e      	movs	r0, #14
   81ede:	47a0      	blx	r4
   81ee0:	4c12      	ldr	r4, [pc, #72]	; (81f2c <board_init+0x68>)
   81ee2:	f04f 5160 	mov.w	r1, #939524096	; 0x38000000
   81ee6:	203b      	movs	r0, #59	; 0x3b
   81ee8:	47a0      	blx	r4
   81eea:	f04f 5160 	mov.w	r1, #939524096	; 0x38000000
   81eee:	2055      	movs	r0, #85	; 0x55
   81ef0:	47a0      	blx	r4
   81ef2:	f04f 5160 	mov.w	r1, #939524096	; 0x38000000
   81ef6:	2056      	movs	r0, #86	; 0x56
   81ef8:	47a0      	blx	r4
   81efa:	490d      	ldr	r1, [pc, #52]	; (81f30 <board_init+0x6c>)
   81efc:	2068      	movs	r0, #104	; 0x68
   81efe:	47a0      	blx	r4
   81f00:	490c      	ldr	r1, [pc, #48]	; (81f34 <board_init+0x70>)
   81f02:	205c      	movs	r0, #92	; 0x5c
   81f04:	47a0      	blx	r4
   81f06:	4a0c      	ldr	r2, [pc, #48]	; (81f38 <board_init+0x74>)
   81f08:	4b0c      	ldr	r3, [pc, #48]	; (81f3c <board_init+0x78>)
   81f0a:	f44f 7140 	mov.w	r1, #768	; 0x300
   81f0e:	480c      	ldr	r0, [pc, #48]	; (81f40 <board_init+0x7c>)
   81f10:	4798      	blx	r3
   81f12:	f04f 6100 	mov.w	r1, #134217728	; 0x8000000
   81f16:	202b      	movs	r0, #43	; 0x2b
   81f18:	47a0      	blx	r4
   81f1a:	f04f 6100 	mov.w	r1, #134217728	; 0x8000000
   81f1e:	202a      	movs	r0, #42	; 0x2a
   81f20:	47a0      	blx	r4
   81f22:	bd10      	pop	{r4, pc}
   81f24:	400e1a50 	.word	0x400e1a50
   81f28:	00082291 	.word	0x00082291
   81f2c:	00081fd9 	.word	0x00081fd9
   81f30:	28000079 	.word	0x28000079
   81f34:	28000001 	.word	0x28000001
   81f38:	08000001 	.word	0x08000001
   81f3c:	0008209d 	.word	0x0008209d
   81f40:	400e0e00 	.word	0x400e0e00

00081f44 <pio_set_peripheral>:
   81f44:	f1b1 5f80 	cmp.w	r1, #268435456	; 0x10000000
   81f48:	6442      	str	r2, [r0, #68]	; 0x44
   81f4a:	d014      	beq.n	81f76 <pio_set_peripheral+0x32>
   81f4c:	d809      	bhi.n	81f62 <pio_set_peripheral+0x1e>
   81f4e:	b1b1      	cbz	r1, 81f7e <pio_set_peripheral+0x3a>
   81f50:	f1b1 6f00 	cmp.w	r1, #134217728	; 0x8000000
   81f54:	d112      	bne.n	81f7c <pio_set_peripheral+0x38>
   81f56:	6f03      	ldr	r3, [r0, #112]	; 0x70
   81f58:	6f01      	ldr	r1, [r0, #112]	; 0x70
   81f5a:	400b      	ands	r3, r1
   81f5c:	ea23 0302 	bic.w	r3, r3, r2
   81f60:	e00b      	b.n	81f7a <pio_set_peripheral+0x36>
   81f62:	f1b1 5f40 	cmp.w	r1, #805306368	; 0x30000000
   81f66:	d00a      	beq.n	81f7e <pio_set_peripheral+0x3a>
   81f68:	f1b1 5f60 	cmp.w	r1, #939524096	; 0x38000000
   81f6c:	d007      	beq.n	81f7e <pio_set_peripheral+0x3a>
   81f6e:	f1b1 5f20 	cmp.w	r1, #671088640	; 0x28000000
   81f72:	d103      	bne.n	81f7c <pio_set_peripheral+0x38>
   81f74:	4770      	bx	lr
   81f76:	6f03      	ldr	r3, [r0, #112]	; 0x70
   81f78:	4313      	orrs	r3, r2
   81f7a:	6703      	str	r3, [r0, #112]	; 0x70
   81f7c:	6042      	str	r2, [r0, #4]
   81f7e:	4770      	bx	lr

00081f80 <pio_set_input>:
   81f80:	07d3      	lsls	r3, r2, #31
   81f82:	6441      	str	r1, [r0, #68]	; 0x44
   81f84:	bf4c      	ite	mi
   81f86:	6641      	strmi	r1, [r0, #100]	; 0x64
   81f88:	6601      	strpl	r1, [r0, #96]	; 0x60
   81f8a:	f012 0f0a 	tst.w	r2, #10
   81f8e:	bf14      	ite	ne
   81f90:	6201      	strne	r1, [r0, #32]
   81f92:	6241      	streq	r1, [r0, #36]	; 0x24
   81f94:	0793      	lsls	r3, r2, #30
   81f96:	d502      	bpl.n	81f9e <pio_set_input+0x1e>
   81f98:	f8c0 1080 	str.w	r1, [r0, #128]	; 0x80
   81f9c:	e003      	b.n	81fa6 <pio_set_input+0x26>
   81f9e:	0713      	lsls	r3, r2, #28
   81fa0:	bf48      	it	mi
   81fa2:	f8c0 1084 	strmi.w	r1, [r0, #132]	; 0x84
   81fa6:	6141      	str	r1, [r0, #20]
   81fa8:	6001      	str	r1, [r0, #0]
   81faa:	4770      	bx	lr

00081fac <pio_set_output>:
   81fac:	b510      	push	{r4, lr}
   81fae:	9c02      	ldr	r4, [sp, #8]
   81fb0:	6441      	str	r1, [r0, #68]	; 0x44
   81fb2:	b10c      	cbz	r4, 81fb8 <pio_set_output+0xc>
   81fb4:	6641      	str	r1, [r0, #100]	; 0x64
   81fb6:	e000      	b.n	81fba <pio_set_output+0xe>
   81fb8:	6601      	str	r1, [r0, #96]	; 0x60
   81fba:	b10b      	cbz	r3, 81fc0 <pio_set_output+0x14>
   81fbc:	6501      	str	r1, [r0, #80]	; 0x50
   81fbe:	e000      	b.n	81fc2 <pio_set_output+0x16>
   81fc0:	6541      	str	r1, [r0, #84]	; 0x54
   81fc2:	b10a      	cbz	r2, 81fc8 <pio_set_output+0x1c>
   81fc4:	6301      	str	r1, [r0, #48]	; 0x30
   81fc6:	e000      	b.n	81fca <pio_set_output+0x1e>
   81fc8:	6341      	str	r1, [r0, #52]	; 0x34
   81fca:	6101      	str	r1, [r0, #16]
   81fcc:	6001      	str	r1, [r0, #0]
   81fce:	bd10      	pop	{r4, pc}

00081fd0 <pio_get_interrupt_status>:
   81fd0:	6cc0      	ldr	r0, [r0, #76]	; 0x4c
   81fd2:	4770      	bx	lr

00081fd4 <pio_get_interrupt_mask>:
   81fd4:	6c80      	ldr	r0, [r0, #72]	; 0x48
   81fd6:	4770      	bx	lr

00081fd8 <pio_configure_pin>:
   81fd8:	b5f7      	push	{r0, r1, r2, r4, r5, r6, r7, lr}
   81fda:	0945      	lsrs	r5, r0, #5
   81fdc:	460e      	mov	r6, r1
   81fde:	f505 1500 	add.w	r5, r5, #2097152	; 0x200000
   81fe2:	f001 41f0 	and.w	r1, r1, #2013265920	; 0x78000000
   81fe6:	f205 7507 	addw	r5, r5, #1799	; 0x707
   81fea:	f1b1 5f20 	cmp.w	r1, #671088640	; 0x28000000
   81fee:	ea4f 2545 	mov.w	r5, r5, lsl #9
   81ff2:	d02b      	beq.n	8204c <pio_configure_pin+0x74>
   81ff4:	d814      	bhi.n	82020 <pio_configure_pin+0x48>
   81ff6:	f1b1 6f00 	cmp.w	r1, #134217728	; 0x8000000
   81ffa:	d018      	beq.n	8202e <pio_configure_pin+0x56>
   81ffc:	f1b1 5f80 	cmp.w	r1, #268435456	; 0x10000000
   82000:	d142      	bne.n	82088 <pio_configure_pin+0xb0>
   82002:	f000 021f 	and.w	r2, r0, #31
   82006:	2001      	movs	r0, #1
   82008:	fa00 f302 	lsl.w	r3, r0, r2
   8200c:	646b      	str	r3, [r5, #68]	; 0x44
   8200e:	6f2a      	ldr	r2, [r5, #112]	; 0x70
   82010:	431a      	orrs	r2, r3
   82012:	672a      	str	r2, [r5, #112]	; 0x70
   82014:	07f2      	lsls	r2, r6, #31
   82016:	606b      	str	r3, [r5, #4]
   82018:	bf4c      	ite	mi
   8201a:	666b      	strmi	r3, [r5, #100]	; 0x64
   8201c:	662b      	strpl	r3, [r5, #96]	; 0x60
   8201e:	e034      	b.n	8208a <pio_configure_pin+0xb2>
   82020:	f1b1 5f40 	cmp.w	r1, #805306368	; 0x30000000
   82024:	d01c      	beq.n	82060 <pio_configure_pin+0x88>
   82026:	f1b1 5f60 	cmp.w	r1, #939524096	; 0x38000000
   8202a:	d019      	beq.n	82060 <pio_configure_pin+0x88>
   8202c:	e02c      	b.n	82088 <pio_configure_pin+0xb0>
   8202e:	f000 001f 	and.w	r0, r0, #31
   82032:	2401      	movs	r4, #1
   82034:	fa04 f700 	lsl.w	r7, r4, r0
   82038:	463a      	mov	r2, r7
   8203a:	4628      	mov	r0, r5
   8203c:	4b14      	ldr	r3, [pc, #80]	; (82090 <pio_configure_pin+0xb8>)
   8203e:	4798      	blx	r3
   82040:	07f1      	lsls	r1, r6, #31
   82042:	bf4c      	ite	mi
   82044:	666f      	strmi	r7, [r5, #100]	; 0x64
   82046:	662f      	strpl	r7, [r5, #96]	; 0x60
   82048:	4620      	mov	r0, r4
   8204a:	e01e      	b.n	8208a <pio_configure_pin+0xb2>
   8204c:	f000 021f 	and.w	r2, r0, #31
   82050:	2401      	movs	r4, #1
   82052:	fa04 f102 	lsl.w	r1, r4, r2
   82056:	4628      	mov	r0, r5
   82058:	4632      	mov	r2, r6
   8205a:	4b0e      	ldr	r3, [pc, #56]	; (82094 <pio_configure_pin+0xbc>)
   8205c:	4798      	blx	r3
   8205e:	e7f3      	b.n	82048 <pio_configure_pin+0x70>
   82060:	2401      	movs	r4, #1
   82062:	f006 5260 	and.w	r2, r6, #939524096	; 0x38000000
   82066:	ea06 0304 	and.w	r3, r6, r4
   8206a:	9300      	str	r3, [sp, #0]
   8206c:	f102 4348 	add.w	r3, r2, #3355443200	; 0xc8000000
   82070:	425a      	negs	r2, r3
   82072:	f000 011f 	and.w	r1, r0, #31
   82076:	415a      	adcs	r2, r3
   82078:	4628      	mov	r0, r5
   8207a:	fa04 f101 	lsl.w	r1, r4, r1
   8207e:	f3c6 0380 	ubfx	r3, r6, #2, #1
   82082:	4d05      	ldr	r5, [pc, #20]	; (82098 <pio_configure_pin+0xc0>)
   82084:	47a8      	blx	r5
   82086:	e7df      	b.n	82048 <pio_configure_pin+0x70>
   82088:	2000      	movs	r0, #0
   8208a:	b003      	add	sp, #12
   8208c:	bdf0      	pop	{r4, r5, r6, r7, pc}
   8208e:	bf00      	nop
   82090:	00081f45 	.word	0x00081f45
   82094:	00081f81 	.word	0x00081f81
   82098:	00081fad 	.word	0x00081fad

0008209c <pio_configure_pin_group>:
   8209c:	f002 43f0 	and.w	r3, r2, #2013265920	; 0x78000000
   820a0:	f1b3 5f20 	cmp.w	r3, #671088640	; 0x28000000
   820a4:	b573      	push	{r0, r1, r4, r5, r6, lr}
   820a6:	4605      	mov	r5, r0
   820a8:	460c      	mov	r4, r1
   820aa:	4616      	mov	r6, r2
   820ac:	d01c      	beq.n	820e8 <pio_configure_pin_group+0x4c>
   820ae:	d80b      	bhi.n	820c8 <pio_configure_pin_group+0x2c>
   820b0:	f1b3 6f00 	cmp.w	r3, #134217728	; 0x8000000
   820b4:	d00f      	beq.n	820d6 <pio_configure_pin_group+0x3a>
   820b6:	f1b3 5f80 	cmp.w	r3, #268435456	; 0x10000000
   820ba:	d129      	bne.n	82110 <pio_configure_pin_group+0x74>
   820bc:	6469      	str	r1, [r5, #68]	; 0x44
   820be:	6f03      	ldr	r3, [r0, #112]	; 0x70
   820c0:	430b      	orrs	r3, r1
   820c2:	6703      	str	r3, [r0, #112]	; 0x70
   820c4:	6069      	str	r1, [r5, #4]
   820c6:	e00a      	b.n	820de <pio_configure_pin_group+0x42>
   820c8:	f1b3 5f40 	cmp.w	r3, #805306368	; 0x30000000
   820cc:	d010      	beq.n	820f0 <pio_configure_pin_group+0x54>
   820ce:	f1b3 5f60 	cmp.w	r3, #939524096	; 0x38000000
   820d2:	d00d      	beq.n	820f0 <pio_configure_pin_group+0x54>
   820d4:	e01c      	b.n	82110 <pio_configure_pin_group+0x74>
   820d6:	4619      	mov	r1, r3
   820d8:	4622      	mov	r2, r4
   820da:	4b0f      	ldr	r3, [pc, #60]	; (82118 <pio_configure_pin_group+0x7c>)
   820dc:	4798      	blx	r3
   820de:	07f2      	lsls	r2, r6, #31
   820e0:	bf4c      	ite	mi
   820e2:	666c      	strmi	r4, [r5, #100]	; 0x64
   820e4:	662c      	strpl	r4, [r5, #96]	; 0x60
   820e6:	e001      	b.n	820ec <pio_configure_pin_group+0x50>
   820e8:	4b0c      	ldr	r3, [pc, #48]	; (8211c <pio_configure_pin_group+0x80>)
   820ea:	4798      	blx	r3
   820ec:	2001      	movs	r0, #1
   820ee:	e010      	b.n	82112 <pio_configure_pin_group+0x76>
   820f0:	f006 5260 	and.w	r2, r6, #939524096	; 0x38000000
   820f4:	f006 0301 	and.w	r3, r6, #1
   820f8:	9300      	str	r3, [sp, #0]
   820fa:	f102 4348 	add.w	r3, r2, #3355443200	; 0xc8000000
   820fe:	425a      	negs	r2, r3
   82100:	4621      	mov	r1, r4
   82102:	415a      	adcs	r2, r3
   82104:	4628      	mov	r0, r5
   82106:	f3c6 0380 	ubfx	r3, r6, #2, #1
   8210a:	4c05      	ldr	r4, [pc, #20]	; (82120 <pio_configure_pin_group+0x84>)
   8210c:	47a0      	blx	r4
   8210e:	e7ed      	b.n	820ec <pio_configure_pin_group+0x50>
   82110:	2000      	movs	r0, #0
   82112:	b002      	add	sp, #8
   82114:	bd70      	pop	{r4, r5, r6, pc}
   82116:	bf00      	nop
   82118:	00081f45 	.word	0x00081f45
   8211c:	00081f81 	.word	0x00081f81
   82120:	00081fad 	.word	0x00081fad

00082124 <pio_handler_process>:
   82124:	b5f8      	push	{r3, r4, r5, r6, r7, lr}
   82126:	4b13      	ldr	r3, [pc, #76]	; (82174 <pio_handler_process+0x50>)
   82128:	4604      	mov	r4, r0
   8212a:	460f      	mov	r7, r1
   8212c:	4798      	blx	r3
   8212e:	4b12      	ldr	r3, [pc, #72]	; (82178 <pio_handler_process+0x54>)
   82130:	4605      	mov	r5, r0
   82132:	4620      	mov	r0, r4
   82134:	4798      	blx	r3
   82136:	4005      	ands	r5, r0
   82138:	d01b      	beq.n	82172 <pio_handler_process+0x4e>
   8213a:	4c10      	ldr	r4, [pc, #64]	; (8217c <pio_handler_process+0x58>)
   8213c:	f104 0660 	add.w	r6, r4, #96	; 0x60
   82140:	f854 3c0c 	ldr.w	r3, [r4, #-12]
   82144:	42bb      	cmp	r3, r7
   82146:	d110      	bne.n	8216a <pio_handler_process+0x46>
   82148:	f854 1c08 	ldr.w	r1, [r4, #-8]
   8214c:	4229      	tst	r1, r5
   8214e:	d00c      	beq.n	8216a <pio_handler_process+0x46>
   82150:	6823      	ldr	r3, [r4, #0]
   82152:	4638      	mov	r0, r7
   82154:	4798      	blx	r3
   82156:	f854 3c08 	ldr.w	r3, [r4, #-8]
   8215a:	42b4      	cmp	r4, r6
   8215c:	ea25 0503 	bic.w	r5, r5, r3
   82160:	d007      	beq.n	82172 <pio_handler_process+0x4e>
   82162:	3410      	adds	r4, #16
   82164:	2d00      	cmp	r5, #0
   82166:	d1eb      	bne.n	82140 <pio_handler_process+0x1c>
   82168:	bdf8      	pop	{r3, r4, r5, r6, r7, pc}
   8216a:	42b4      	cmp	r4, r6
   8216c:	d001      	beq.n	82172 <pio_handler_process+0x4e>
   8216e:	3410      	adds	r4, #16
   82170:	e7e6      	b.n	82140 <pio_handler_process+0x1c>
   82172:	bdf8      	pop	{r3, r4, r5, r6, r7, pc}
   82174:	00081fd1 	.word	0x00081fd1
   82178:	00081fd5 	.word	0x00081fd5
   8217c:	2007abe0 	.word	0x2007abe0

00082180 <PIOA_Handler>:
   82180:	b508      	push	{r3, lr}
   82182:	4802      	ldr	r0, [pc, #8]	; (8218c <PIOA_Handler+0xc>)
   82184:	210b      	movs	r1, #11
   82186:	4b02      	ldr	r3, [pc, #8]	; (82190 <PIOA_Handler+0x10>)
   82188:	4798      	blx	r3
   8218a:	bd08      	pop	{r3, pc}
   8218c:	400e0e00 	.word	0x400e0e00
   82190:	00082125 	.word	0x00082125

00082194 <PIOB_Handler>:
   82194:	b508      	push	{r3, lr}
   82196:	4802      	ldr	r0, [pc, #8]	; (821a0 <PIOB_Handler+0xc>)
   82198:	210c      	movs	r1, #12
   8219a:	4b02      	ldr	r3, [pc, #8]	; (821a4 <PIOB_Handler+0x10>)
   8219c:	4798      	blx	r3
   8219e:	bd08      	pop	{r3, pc}
   821a0:	400e1000 	.word	0x400e1000
   821a4:	00082125 	.word	0x00082125

000821a8 <PIOC_Handler>:
   821a8:	b508      	push	{r3, lr}
   821aa:	4802      	ldr	r0, [pc, #8]	; (821b4 <PIOC_Handler+0xc>)
   821ac:	210d      	movs	r1, #13
   821ae:	4b02      	ldr	r3, [pc, #8]	; (821b8 <PIOC_Handler+0x10>)
   821b0:	4798      	blx	r3
   821b2:	bd08      	pop	{r3, pc}
   821b4:	400e1200 	.word	0x400e1200
   821b8:	00082125 	.word	0x00082125

000821bc <PIOD_Handler>:
   821bc:	b508      	push	{r3, lr}
   821be:	4802      	ldr	r0, [pc, #8]	; (821c8 <PIOD_Handler+0xc>)
   821c0:	210e      	movs	r1, #14
   821c2:	4b02      	ldr	r3, [pc, #8]	; (821cc <PIOD_Handler+0x10>)
   821c4:	4798      	blx	r3
   821c6:	bd08      	pop	{r3, pc}
   821c8:	400e1400 	.word	0x400e1400
   821cc:	00082125 	.word	0x00082125

000821d0 <pmc_switch_mck_to_pllack>:
   821d0:	4b0f      	ldr	r3, [pc, #60]	; (82210 <pmc_switch_mck_to_pllack+0x40>)
   821d2:	6b1a      	ldr	r2, [r3, #48]	; 0x30
   821d4:	f022 0270 	bic.w	r2, r2, #112	; 0x70
   821d8:	4310      	orrs	r0, r2
   821da:	f640 0201 	movw	r2, #2049	; 0x801
   821de:	6318      	str	r0, [r3, #48]	; 0x30
   821e0:	6e98      	ldr	r0, [r3, #104]	; 0x68
   821e2:	490b      	ldr	r1, [pc, #44]	; (82210 <pmc_switch_mck_to_pllack+0x40>)
   821e4:	0700      	lsls	r0, r0, #28
   821e6:	d403      	bmi.n	821f0 <pmc_switch_mck_to_pllack+0x20>
   821e8:	3a01      	subs	r2, #1
   821ea:	d1f9      	bne.n	821e0 <pmc_switch_mck_to_pllack+0x10>
   821ec:	2001      	movs	r0, #1
   821ee:	4770      	bx	lr
   821f0:	6b0a      	ldr	r2, [r1, #48]	; 0x30
   821f2:	f022 0203 	bic.w	r2, r2, #3
   821f6:	f042 0202 	orr.w	r2, r2, #2
   821fa:	630a      	str	r2, [r1, #48]	; 0x30
   821fc:	f640 0201 	movw	r2, #2049	; 0x801
   82200:	6e99      	ldr	r1, [r3, #104]	; 0x68
   82202:	0709      	lsls	r1, r1, #28
   82204:	d402      	bmi.n	8220c <pmc_switch_mck_to_pllack+0x3c>
   82206:	3a01      	subs	r2, #1
   82208:	d1fa      	bne.n	82200 <pmc_switch_mck_to_pllack+0x30>
   8220a:	e7ef      	b.n	821ec <pmc_switch_mck_to_pllack+0x1c>
   8220c:	2000      	movs	r0, #0
   8220e:	4770      	bx	lr
   82210:	400e0600 	.word	0x400e0600

00082214 <pmc_switch_mainck_to_xtal>:
   82214:	4a0f      	ldr	r2, [pc, #60]	; (82254 <pmc_switch_mainck_to_xtal+0x40>)
   82216:	6a13      	ldr	r3, [r2, #32]
   82218:	b128      	cbz	r0, 82226 <pmc_switch_mainck_to_xtal+0x12>
   8221a:	490f      	ldr	r1, [pc, #60]	; (82258 <pmc_switch_mainck_to_xtal+0x44>)
   8221c:	4019      	ands	r1, r3
   8221e:	4b0f      	ldr	r3, [pc, #60]	; (8225c <pmc_switch_mainck_to_xtal+0x48>)
   82220:	430b      	orrs	r3, r1
   82222:	6213      	str	r3, [r2, #32]
   82224:	4770      	bx	lr
   82226:	f423 135c 	bic.w	r3, r3, #3604480	; 0x370000
   8222a:	f023 0303 	bic.w	r3, r3, #3
   8222e:	f443 135c 	orr.w	r3, r3, #3604480	; 0x370000
   82232:	0209      	lsls	r1, r1, #8
   82234:	f043 0301 	orr.w	r3, r3, #1
   82238:	b289      	uxth	r1, r1
   8223a:	430b      	orrs	r3, r1
   8223c:	6213      	str	r3, [r2, #32]
   8223e:	6e93      	ldr	r3, [r2, #104]	; 0x68
   82240:	4904      	ldr	r1, [pc, #16]	; (82254 <pmc_switch_mainck_to_xtal+0x40>)
   82242:	07db      	lsls	r3, r3, #31
   82244:	d5fb      	bpl.n	8223e <pmc_switch_mainck_to_xtal+0x2a>
   82246:	6a0b      	ldr	r3, [r1, #32]
   82248:	f043 739b 	orr.w	r3, r3, #20316160	; 0x1360000
   8224c:	f443 3380 	orr.w	r3, r3, #65536	; 0x10000
   82250:	620b      	str	r3, [r1, #32]
   82252:	4770      	bx	lr
   82254:	400e0600 	.word	0x400e0600
   82258:	fec8fffc 	.word	0xfec8fffc
   8225c:	01370002 	.word	0x01370002

00082260 <pmc_osc_is_ready_mainck>:
   82260:	4b02      	ldr	r3, [pc, #8]	; (8226c <pmc_osc_is_ready_mainck+0xc>)
   82262:	6e98      	ldr	r0, [r3, #104]	; 0x68
   82264:	f400 3080 	and.w	r0, r0, #65536	; 0x10000
   82268:	4770      	bx	lr
   8226a:	bf00      	nop
   8226c:	400e0600 	.word	0x400e0600

00082270 <pmc_disable_pllack>:
   82270:	4b02      	ldr	r3, [pc, #8]	; (8227c <pmc_disable_pllack+0xc>)
   82272:	f04f 5200 	mov.w	r2, #536870912	; 0x20000000
   82276:	629a      	str	r2, [r3, #40]	; 0x28
   82278:	4770      	bx	lr
   8227a:	bf00      	nop
   8227c:	400e0600 	.word	0x400e0600

00082280 <pmc_is_locked_pllack>:
   82280:	4b02      	ldr	r3, [pc, #8]	; (8228c <pmc_is_locked_pllack+0xc>)
   82282:	6e98      	ldr	r0, [r3, #104]	; 0x68
   82284:	f000 0002 	and.w	r0, r0, #2
   82288:	4770      	bx	lr
   8228a:	bf00      	nop
   8228c:	400e0600 	.word	0x400e0600

00082290 <pmc_enable_periph_clk>:
   82290:	282c      	cmp	r0, #44	; 0x2c
   82292:	d815      	bhi.n	822c0 <pmc_enable_periph_clk+0x30>
   82294:	281f      	cmp	r0, #31
   82296:	4a0c      	ldr	r2, [pc, #48]	; (822c8 <pmc_enable_periph_clk+0x38>)
   82298:	f04f 0301 	mov.w	r3, #1
   8229c:	d806      	bhi.n	822ac <pmc_enable_periph_clk+0x1c>
   8229e:	6991      	ldr	r1, [r2, #24]
   822a0:	4083      	lsls	r3, r0
   822a2:	4019      	ands	r1, r3
   822a4:	4299      	cmp	r1, r3
   822a6:	d00d      	beq.n	822c4 <pmc_enable_periph_clk+0x34>
   822a8:	6113      	str	r3, [r2, #16]
   822aa:	e00b      	b.n	822c4 <pmc_enable_periph_clk+0x34>
   822ac:	f8d2 1108 	ldr.w	r1, [r2, #264]	; 0x108
   822b0:	3820      	subs	r0, #32
   822b2:	4083      	lsls	r3, r0
   822b4:	4019      	ands	r1, r3
   822b6:	4299      	cmp	r1, r3
   822b8:	d004      	beq.n	822c4 <pmc_enable_periph_clk+0x34>
   822ba:	f8c2 3100 	str.w	r3, [r2, #256]	; 0x100
   822be:	e001      	b.n	822c4 <pmc_enable_periph_clk+0x34>
   822c0:	2001      	movs	r0, #1
   822c2:	4770      	bx	lr
   822c4:	2000      	movs	r0, #0
   822c6:	4770      	bx	lr
   822c8:	400e0600 	.word	0x400e0600

000822cc <Dummy_Handler>:
   822cc:	e7fe      	b.n	822cc <Dummy_Handler>
	...

000822d0 <Reset_Handler>:
   822d0:	b508      	push	{r3, lr}
   822d2:	4a16      	ldr	r2, [pc, #88]	; (8232c <Reset_Handler+0x5c>)
   822d4:	4b16      	ldr	r3, [pc, #88]	; (82330 <Reset_Handler+0x60>)
   822d6:	429a      	cmp	r2, r3
   822d8:	d001      	beq.n	822de <Reset_Handler+0xe>
   822da:	3a04      	subs	r2, #4
   822dc:	e001      	b.n	822e2 <Reset_Handler+0x12>
   822de:	4b15      	ldr	r3, [pc, #84]	; (82334 <Reset_Handler+0x64>)
   822e0:	e007      	b.n	822f2 <Reset_Handler+0x22>
   822e2:	4915      	ldr	r1, [pc, #84]	; (82338 <Reset_Handler+0x68>)
   822e4:	428b      	cmp	r3, r1
   822e6:	d2fa      	bcs.n	822de <Reset_Handler+0xe>
   822e8:	f852 1f04 	ldr.w	r1, [r2, #4]!
   822ec:	f843 1b04 	str.w	r1, [r3], #4
   822f0:	e7f7      	b.n	822e2 <Reset_Handler+0x12>
   822f2:	4a12      	ldr	r2, [pc, #72]	; (8233c <Reset_Handler+0x6c>)
   822f4:	4293      	cmp	r3, r2
   822f6:	d203      	bcs.n	82300 <Reset_Handler+0x30>
   822f8:	2200      	movs	r2, #0
   822fa:	f843 2b04 	str.w	r2, [r3], #4
   822fe:	e7f8      	b.n	822f2 <Reset_Handler+0x22>
   82300:	4b0f      	ldr	r3, [pc, #60]	; (82340 <Reset_Handler+0x70>)
   82302:	4a10      	ldr	r2, [pc, #64]	; (82344 <Reset_Handler+0x74>)
   82304:	f023 4160 	bic.w	r1, r3, #3758096384	; 0xe0000000
   82308:	f021 017f 	bic.w	r1, r1, #127	; 0x7f
   8230c:	f103 4360 	add.w	r3, r3, #3758096384	; 0xe0000000
   82310:	f5b3 1f80 	cmp.w	r3, #1048576	; 0x100000
   82314:	6091      	str	r1, [r2, #8]
   82316:	bf3e      	ittt	cc
   82318:	6893      	ldrcc	r3, [r2, #8]
   8231a:	f043 5300 	orrcc.w	r3, r3, #536870912	; 0x20000000
   8231e:	6093      	strcc	r3, [r2, #8]
   82320:	4b09      	ldr	r3, [pc, #36]	; (82348 <Reset_Handler+0x78>)
   82322:	4798      	blx	r3
   82324:	4b09      	ldr	r3, [pc, #36]	; (8234c <Reset_Handler+0x7c>)
   82326:	4798      	blx	r3
   82328:	e7fe      	b.n	82328 <Reset_Handler+0x58>
   8232a:	bf00      	nop
   8232c:	00088da4 	.word	0x00088da4
   82330:	20070000 	.word	0x20070000
   82334:	200709a8 	.word	0x200709a8
   82338:	200709a8 	.word	0x200709a8
   8233c:	2007ae98 	.word	0x2007ae98
   82340:	00080000 	.word	0x00080000
   82344:	e000ed00 	.word	0xe000ed00
   82348:	00082c2d 	.word	0x00082c2d
   8234c:	00082465 	.word	0x00082465

00082350 <SystemCoreClockUpdate>:
   82350:	b510      	push	{r4, lr}
   82352:	4a2c      	ldr	r2, [pc, #176]	; (82404 <SystemCoreClockUpdate+0xb4>)
   82354:	6b13      	ldr	r3, [r2, #48]	; 0x30
   82356:	f003 0303 	and.w	r3, r3, #3
   8235a:	2b01      	cmp	r3, #1
   8235c:	4b2a      	ldr	r3, [pc, #168]	; (82408 <SystemCoreClockUpdate+0xb8>)
   8235e:	d00d      	beq.n	8237c <SystemCoreClockUpdate+0x2c>
   82360:	d303      	bcc.n	8236a <SystemCoreClockUpdate+0x1a>
   82362:	6a11      	ldr	r1, [r2, #32]
   82364:	01cc      	lsls	r4, r1, #7
   82366:	d51a      	bpl.n	8239e <SystemCoreClockUpdate+0x4e>
   82368:	e025      	b.n	823b6 <SystemCoreClockUpdate+0x66>
   8236a:	4928      	ldr	r1, [pc, #160]	; (8240c <SystemCoreClockUpdate+0xbc>)
   8236c:	6949      	ldr	r1, [r1, #20]
   8236e:	0608      	lsls	r0, r1, #24
   82370:	bf4c      	ite	mi
   82372:	f44f 4100 	movmi.w	r1, #32768	; 0x8000
   82376:	f44f 41fa 	movpl.w	r1, #32000	; 0x7d00
   8237a:	e030      	b.n	823de <SystemCoreClockUpdate+0x8e>
   8237c:	6a11      	ldr	r1, [r2, #32]
   8237e:	01c9      	lsls	r1, r1, #7
   82380:	d40b      	bmi.n	8239a <SystemCoreClockUpdate+0x4a>
   82382:	4923      	ldr	r1, [pc, #140]	; (82410 <SystemCoreClockUpdate+0xc0>)
   82384:	6019      	str	r1, [r3, #0]
   82386:	6a11      	ldr	r1, [r2, #32]
   82388:	f001 0170 	and.w	r1, r1, #112	; 0x70
   8238c:	2910      	cmp	r1, #16
   8238e:	d002      	beq.n	82396 <SystemCoreClockUpdate+0x46>
   82390:	2920      	cmp	r1, #32
   82392:	d002      	beq.n	8239a <SystemCoreClockUpdate+0x4a>
   82394:	e024      	b.n	823e0 <SystemCoreClockUpdate+0x90>
   82396:	491f      	ldr	r1, [pc, #124]	; (82414 <SystemCoreClockUpdate+0xc4>)
   82398:	e021      	b.n	823de <SystemCoreClockUpdate+0x8e>
   8239a:	491f      	ldr	r1, [pc, #124]	; (82418 <SystemCoreClockUpdate+0xc8>)
   8239c:	e01f      	b.n	823de <SystemCoreClockUpdate+0x8e>
   8239e:	491c      	ldr	r1, [pc, #112]	; (82410 <SystemCoreClockUpdate+0xc0>)
   823a0:	6019      	str	r1, [r3, #0]
   823a2:	6a11      	ldr	r1, [r2, #32]
   823a4:	f001 0170 	and.w	r1, r1, #112	; 0x70
   823a8:	2910      	cmp	r1, #16
   823aa:	d002      	beq.n	823b2 <SystemCoreClockUpdate+0x62>
   823ac:	2920      	cmp	r1, #32
   823ae:	d002      	beq.n	823b6 <SystemCoreClockUpdate+0x66>
   823b0:	e003      	b.n	823ba <SystemCoreClockUpdate+0x6a>
   823b2:	4918      	ldr	r1, [pc, #96]	; (82414 <SystemCoreClockUpdate+0xc4>)
   823b4:	e000      	b.n	823b8 <SystemCoreClockUpdate+0x68>
   823b6:	4918      	ldr	r1, [pc, #96]	; (82418 <SystemCoreClockUpdate+0xc8>)
   823b8:	6019      	str	r1, [r3, #0]
   823ba:	6b11      	ldr	r1, [r2, #48]	; 0x30
   823bc:	4811      	ldr	r0, [pc, #68]	; (82404 <SystemCoreClockUpdate+0xb4>)
   823be:	f001 0103 	and.w	r1, r1, #3
   823c2:	2902      	cmp	r1, #2
   823c4:	bf01      	itttt	eq
   823c6:	6a81      	ldreq	r1, [r0, #40]	; 0x28
   823c8:	6a80      	ldreq	r0, [r0, #40]	; 0x28
   823ca:	f3c1 440a 	ubfxeq	r4, r1, #16, #11
   823ce:	6819      	ldreq	r1, [r3, #0]
   823d0:	bf03      	ittte	eq
   823d2:	b2c0      	uxtbeq	r0, r0
   823d4:	fb04 1101 	mlaeq	r1, r4, r1, r1
   823d8:	fbb1 f1f0 	udiveq	r1, r1, r0
   823dc:	490f      	ldrne	r1, [pc, #60]	; (8241c <SystemCoreClockUpdate+0xcc>)
   823de:	6019      	str	r1, [r3, #0]
   823e0:	6b12      	ldr	r2, [r2, #48]	; 0x30
   823e2:	f002 0270 	and.w	r2, r2, #112	; 0x70
   823e6:	2a70      	cmp	r2, #112	; 0x70
   823e8:	bf03      	ittte	eq
   823ea:	681a      	ldreq	r2, [r3, #0]
   823ec:	2103      	moveq	r1, #3
   823ee:	fbb2 f2f1 	udiveq	r2, r2, r1
   823f2:	4a04      	ldrne	r2, [pc, #16]	; (82404 <SystemCoreClockUpdate+0xb4>)
   823f4:	bf1f      	itttt	ne
   823f6:	6b11      	ldrne	r1, [r2, #48]	; 0x30
   823f8:	681a      	ldrne	r2, [r3, #0]
   823fa:	f3c1 1102 	ubfxne	r1, r1, #4, #3
   823fe:	40ca      	lsrne	r2, r1
   82400:	601a      	str	r2, [r3, #0]
   82402:	bd10      	pop	{r4, pc}
   82404:	400e0600 	.word	0x400e0600
   82408:	200700fc 	.word	0x200700fc
   8240c:	400e1a10 	.word	0x400e1a10
   82410:	003d0900 	.word	0x003d0900
   82414:	007a1200 	.word	0x007a1200
   82418:	00b71b00 	.word	0x00b71b00
   8241c:	0e4e1c00 	.word	0x0e4e1c00

00082420 <_sbrk>:
   82420:	4b07      	ldr	r3, [pc, #28]	; (82440 <_sbrk+0x20>)
   82422:	681a      	ldr	r2, [r3, #0]
   82424:	b90a      	cbnz	r2, 8242a <_sbrk+0xa>
   82426:	4a07      	ldr	r2, [pc, #28]	; (82444 <_sbrk+0x24>)
   82428:	601a      	str	r2, [r3, #0]
   8242a:	681b      	ldr	r3, [r3, #0]
   8242c:	4a06      	ldr	r2, [pc, #24]	; (82448 <_sbrk+0x28>)
   8242e:	4418      	add	r0, r3
   82430:	4290      	cmp	r0, r2
   82432:	bfdd      	ittte	le
   82434:	4a02      	ldrle	r2, [pc, #8]	; (82440 <_sbrk+0x20>)
   82436:	6010      	strle	r0, [r2, #0]
   82438:	4618      	movle	r0, r3
   8243a:	f04f 30ff 	movgt.w	r0, #4294967295
   8243e:	4770      	bx	lr
   82440:	2007ac44 	.word	0x2007ac44
   82444:	2007ce98 	.word	0x2007ce98
   82448:	20087ffc 	.word	0x20087ffc

0008244c <_close>:
   8244c:	f04f 30ff 	mov.w	r0, #4294967295
   82450:	4770      	bx	lr

00082452 <_fstat>:
   82452:	f44f 5300 	mov.w	r3, #8192	; 0x2000
   82456:	604b      	str	r3, [r1, #4]
   82458:	2000      	movs	r0, #0
   8245a:	4770      	bx	lr

0008245c <_isatty>:
   8245c:	2001      	movs	r0, #1
   8245e:	4770      	bx	lr

00082460 <_lseek>:
   82460:	2000      	movs	r0, #0
   82462:	4770      	bx	lr

00082464 <main>:
   82464:	b5f0      	push	{r4, r5, r6, r7, lr}
   82466:	4b3f      	ldr	r3, [pc, #252]	; (82564 <main+0x100>)
   82468:	b085      	sub	sp, #20
   8246a:	4798      	blx	r3
   8246c:	4b3e      	ldr	r3, [pc, #248]	; (82568 <main+0x104>)
   8246e:	4798      	blx	r3
   82470:	4c3e      	ldr	r4, [pc, #248]	; (8256c <main+0x108>)
   82472:	200b      	movs	r0, #11
   82474:	47a0      	blx	r4
   82476:	200c      	movs	r0, #12
   82478:	47a0      	blx	r4
   8247a:	200d      	movs	r0, #13
   8247c:	47a0      	blx	r4
   8247e:	200e      	movs	r0, #14
   82480:	47a0      	blx	r4
   82482:	4b3b      	ldr	r3, [pc, #236]	; (82570 <main+0x10c>)
   82484:	4798      	blx	r3
   82486:	4b3b      	ldr	r3, [pc, #236]	; (82574 <main+0x110>)
   82488:	4798      	blx	r3
   8248a:	4b3b      	ldr	r3, [pc, #236]	; (82578 <main+0x114>)
   8248c:	4798      	blx	r3
   8248e:	4b3b      	ldr	r3, [pc, #236]	; (8257c <main+0x118>)
   82490:	4798      	blx	r3
   82492:	4b3b      	ldr	r3, [pc, #236]	; (82580 <main+0x11c>)
   82494:	4798      	blx	r3
   82496:	2203      	movs	r2, #3
   82498:	2001      	movs	r0, #1
   8249a:	2100      	movs	r1, #0
   8249c:	4b39      	ldr	r3, [pc, #228]	; (82584 <main+0x120>)
   8249e:	4798      	blx	r3
   824a0:	4a39      	ldr	r2, [pc, #228]	; (82588 <main+0x124>)
   824a2:	6010      	str	r0, [r2, #0]
   824a4:	b120      	cbz	r0, 824b0 <main+0x4c>
   824a6:	2100      	movs	r1, #0
   824a8:	460a      	mov	r2, r1
   824aa:	460b      	mov	r3, r1
   824ac:	4c37      	ldr	r4, [pc, #220]	; (8258c <main+0x128>)
   824ae:	47a0      	blx	r4
   824b0:	4b37      	ldr	r3, [pc, #220]	; (82590 <main+0x12c>)
   824b2:	4f38      	ldr	r7, [pc, #224]	; (82594 <main+0x130>)
   824b4:	6818      	ldr	r0, [r3, #0]
   824b6:	4938      	ldr	r1, [pc, #224]	; (82598 <main+0x134>)
   824b8:	47b8      	blx	r7
   824ba:	4e38      	ldr	r6, [pc, #224]	; (8259c <main+0x138>)
   824bc:	47b0      	blx	r6
   824be:	4d38      	ldr	r5, [pc, #224]	; (825a0 <main+0x13c>)
   824c0:	220a      	movs	r2, #10
   824c2:	4938      	ldr	r1, [pc, #224]	; (825a4 <main+0x140>)
   824c4:	4c38      	ldr	r4, [pc, #224]	; (825a8 <main+0x144>)
   824c6:	47a8      	blx	r5
   824c8:	4836      	ldr	r0, [pc, #216]	; (825a4 <main+0x140>)
   824ca:	47a0      	blx	r4
   824cc:	4837      	ldr	r0, [pc, #220]	; (825ac <main+0x148>)
   824ce:	47a0      	blx	r4
   824d0:	4b37      	ldr	r3, [pc, #220]	; (825b0 <main+0x14c>)
   824d2:	4931      	ldr	r1, [pc, #196]	; (82598 <main+0x134>)
   824d4:	6818      	ldr	r0, [r3, #0]
   824d6:	47b8      	blx	r7
   824d8:	47b0      	blx	r6
   824da:	220a      	movs	r2, #10
   824dc:	4931      	ldr	r1, [pc, #196]	; (825a4 <main+0x140>)
   824de:	47a8      	blx	r5
   824e0:	4830      	ldr	r0, [pc, #192]	; (825a4 <main+0x140>)
   824e2:	47a0      	blx	r4
   824e4:	4831      	ldr	r0, [pc, #196]	; (825ac <main+0x148>)
   824e6:	47a0      	blx	r4
   824e8:	4b32      	ldr	r3, [pc, #200]	; (825b4 <main+0x150>)
   824ea:	492b      	ldr	r1, [pc, #172]	; (82598 <main+0x134>)
   824ec:	6818      	ldr	r0, [r3, #0]
   824ee:	47b8      	blx	r7
   824f0:	47b0      	blx	r6
   824f2:	492c      	ldr	r1, [pc, #176]	; (825a4 <main+0x140>)
   824f4:	220a      	movs	r2, #10
   824f6:	47a8      	blx	r5
   824f8:	482a      	ldr	r0, [pc, #168]	; (825a4 <main+0x140>)
   824fa:	47a0      	blx	r4
   824fc:	482b      	ldr	r0, [pc, #172]	; (825ac <main+0x148>)
   824fe:	47a0      	blx	r4
   82500:	4b2d      	ldr	r3, [pc, #180]	; (825b8 <main+0x154>)
   82502:	f44f 767a 	mov.w	r6, #1000	; 0x3e8
   82506:	8818      	ldrh	r0, [r3, #0]
   82508:	4926      	ldr	r1, [pc, #152]	; (825a4 <main+0x140>)
   8250a:	220a      	movs	r2, #10
   8250c:	4370      	muls	r0, r6
   8250e:	47a8      	blx	r5
   82510:	4824      	ldr	r0, [pc, #144]	; (825a4 <main+0x140>)
   82512:	47a0      	blx	r4
   82514:	4825      	ldr	r0, [pc, #148]	; (825ac <main+0x148>)
   82516:	47a0      	blx	r4
   82518:	4b28      	ldr	r3, [pc, #160]	; (825bc <main+0x158>)
   8251a:	4922      	ldr	r1, [pc, #136]	; (825a4 <main+0x140>)
   8251c:	8818      	ldrh	r0, [r3, #0]
   8251e:	220a      	movs	r2, #10
   82520:	4370      	muls	r0, r6
   82522:	47a8      	blx	r5
   82524:	481f      	ldr	r0, [pc, #124]	; (825a4 <main+0x140>)
   82526:	47a0      	blx	r4
   82528:	4820      	ldr	r0, [pc, #128]	; (825ac <main+0x148>)
   8252a:	47a0      	blx	r4
   8252c:	2602      	movs	r6, #2
   8252e:	2400      	movs	r4, #0
   82530:	4623      	mov	r3, r4
   82532:	4d23      	ldr	r5, [pc, #140]	; (825c0 <main+0x15c>)
   82534:	9600      	str	r6, [sp, #0]
   82536:	9401      	str	r4, [sp, #4]
   82538:	9402      	str	r4, [sp, #8]
   8253a:	9403      	str	r4, [sp, #12]
   8253c:	4921      	ldr	r1, [pc, #132]	; (825c4 <main+0x160>)
   8253e:	f44f 7200 	mov.w	r2, #512	; 0x200
   82542:	4821      	ldr	r0, [pc, #132]	; (825c8 <main+0x164>)
   82544:	47a8      	blx	r5
   82546:	4921      	ldr	r1, [pc, #132]	; (825cc <main+0x168>)
   82548:	f44f 7200 	mov.w	r2, #512	; 0x200
   8254c:	4623      	mov	r3, r4
   8254e:	9600      	str	r6, [sp, #0]
   82550:	9401      	str	r4, [sp, #4]
   82552:	9402      	str	r4, [sp, #8]
   82554:	9403      	str	r4, [sp, #12]
   82556:	481e      	ldr	r0, [pc, #120]	; (825d0 <main+0x16c>)
   82558:	47a8      	blx	r5
   8255a:	4b1e      	ldr	r3, [pc, #120]	; (825d4 <main+0x170>)
   8255c:	4798      	blx	r3
   8255e:	4620      	mov	r0, r4
   82560:	b005      	add	sp, #20
   82562:	bdf0      	pop	{r4, r5, r6, r7, pc}
   82564:	00081e61 	.word	0x00081e61
   82568:	00081ec5 	.word	0x00081ec5
   8256c:	00082291 	.word	0x00082291
   82570:	00080639 	.word	0x00080639
   82574:	00080245 	.word	0x00080245
   82578:	00080151 	.word	0x00080151
   8257c:	00080275 	.word	0x00080275
   82580:	00080569 	.word	0x00080569
   82584:	00080b51 	.word	0x00080b51
   82588:	20070100 	.word	0x20070100
   8258c:	00080ba9 	.word	0x00080ba9
   82590:	2007ae90 	.word	0x2007ae90
   82594:	00082895 	.word	0x00082895
   82598:	447a0000 	.word	0x447a0000
   8259c:	00082b35 	.word	0x00082b35
   825a0:	00082cd5 	.word	0x00082cd5
   825a4:	2007ac4a 	.word	0x2007ac4a
   825a8:	00082c7d 	.word	0x00082c7d
   825ac:	00088940 	.word	0x00088940
   825b0:	2007ae88 	.word	0x2007ae88
   825b4:	2007ae84 	.word	0x2007ae84
   825b8:	2007ae80 	.word	0x2007ae80
   825bc:	2007ae8c 	.word	0x2007ae8c
   825c0:	00080f31 	.word	0x00080f31
   825c4:	0008897c 	.word	0x0008897c
   825c8:	00080329 	.word	0x00080329
   825cc:	00088980 	.word	0x00088980
   825d0:	000803a5 	.word	0x000803a5
   825d4:	00081101 	.word	0x00081101

000825d8 <__aeabi_d2f>:
   825d8:	ea4f 0241 	mov.w	r2, r1, lsl #1
   825dc:	f1b2 43e0 	subs.w	r3, r2, #1879048192	; 0x70000000
   825e0:	bf24      	itt	cs
   825e2:	f5b3 1c00 	subscs.w	ip, r3, #2097152	; 0x200000
   825e6:	f1dc 5cfe 	rsbscs	ip, ip, #532676608	; 0x1fc00000
   825ea:	d90d      	bls.n	82608 <__aeabi_d2f+0x30>
   825ec:	f001 4c00 	and.w	ip, r1, #2147483648	; 0x80000000
   825f0:	ea4f 02c0 	mov.w	r2, r0, lsl #3
   825f4:	ea4c 7050 	orr.w	r0, ip, r0, lsr #29
   825f8:	f1b2 4f00 	cmp.w	r2, #2147483648	; 0x80000000
   825fc:	eb40 0083 	adc.w	r0, r0, r3, lsl #2
   82600:	bf08      	it	eq
   82602:	f020 0001 	biceq.w	r0, r0, #1
   82606:	4770      	bx	lr
   82608:	f011 4f80 	tst.w	r1, #1073741824	; 0x40000000
   8260c:	d121      	bne.n	82652 <__aeabi_d2f+0x7a>
   8260e:	f113 7238 	adds.w	r2, r3, #48234496	; 0x2e00000
   82612:	bfbc      	itt	lt
   82614:	f001 4000 	andlt.w	r0, r1, #2147483648	; 0x80000000
   82618:	4770      	bxlt	lr
   8261a:	f441 1180 	orr.w	r1, r1, #1048576	; 0x100000
   8261e:	ea4f 5252 	mov.w	r2, r2, lsr #21
   82622:	f1c2 0218 	rsb	r2, r2, #24
   82626:	f1c2 0c20 	rsb	ip, r2, #32
   8262a:	fa10 f30c 	lsls.w	r3, r0, ip
   8262e:	fa20 f002 	lsr.w	r0, r0, r2
   82632:	bf18      	it	ne
   82634:	f040 0001 	orrne.w	r0, r0, #1
   82638:	ea4f 23c1 	mov.w	r3, r1, lsl #11
   8263c:	ea4f 23d3 	mov.w	r3, r3, lsr #11
   82640:	fa03 fc0c 	lsl.w	ip, r3, ip
   82644:	ea40 000c 	orr.w	r0, r0, ip
   82648:	fa23 f302 	lsr.w	r3, r3, r2
   8264c:	ea4f 0343 	mov.w	r3, r3, lsl #1
   82650:	e7cc      	b.n	825ec <__aeabi_d2f+0x14>
   82652:	ea7f 5362 	mvns.w	r3, r2, asr #21
   82656:	d107      	bne.n	82668 <__aeabi_d2f+0x90>
   82658:	ea50 3301 	orrs.w	r3, r0, r1, lsl #12
   8265c:	bf1e      	ittt	ne
   8265e:	f04f 40fe 	movne.w	r0, #2130706432	; 0x7f000000
   82662:	f440 0040 	orrne.w	r0, r0, #12582912	; 0xc00000
   82666:	4770      	bxne	lr
   82668:	f001 4000 	and.w	r0, r1, #2147483648	; 0x80000000
   8266c:	f040 40fe 	orr.w	r0, r0, #2130706432	; 0x7f000000
   82670:	f440 0000 	orr.w	r0, r0, #8388608	; 0x800000
   82674:	4770      	bx	lr
   82676:	bf00      	nop

00082678 <__aeabi_frsub>:
   82678:	f080 4000 	eor.w	r0, r0, #2147483648	; 0x80000000
   8267c:	e002      	b.n	82684 <__addsf3>
   8267e:	bf00      	nop

00082680 <__aeabi_fsub>:
   82680:	f081 4100 	eor.w	r1, r1, #2147483648	; 0x80000000

00082684 <__addsf3>:
   82684:	0042      	lsls	r2, r0, #1
   82686:	bf1f      	itttt	ne
   82688:	ea5f 0341 	movsne.w	r3, r1, lsl #1
   8268c:	ea92 0f03 	teqne	r2, r3
   82690:	ea7f 6c22 	mvnsne.w	ip, r2, asr #24
   82694:	ea7f 6c23 	mvnsne.w	ip, r3, asr #24
   82698:	d06a      	beq.n	82770 <__addsf3+0xec>
   8269a:	ea4f 6212 	mov.w	r2, r2, lsr #24
   8269e:	ebd2 6313 	rsbs	r3, r2, r3, lsr #24
   826a2:	bfc1      	itttt	gt
   826a4:	18d2      	addgt	r2, r2, r3
   826a6:	4041      	eorgt	r1, r0
   826a8:	4048      	eorgt	r0, r1
   826aa:	4041      	eorgt	r1, r0
   826ac:	bfb8      	it	lt
   826ae:	425b      	neglt	r3, r3
   826b0:	2b19      	cmp	r3, #25
   826b2:	bf88      	it	hi
   826b4:	4770      	bxhi	lr
   826b6:	f010 4f00 	tst.w	r0, #2147483648	; 0x80000000
   826ba:	f440 0000 	orr.w	r0, r0, #8388608	; 0x800000
   826be:	f020 407f 	bic.w	r0, r0, #4278190080	; 0xff000000
   826c2:	bf18      	it	ne
   826c4:	4240      	negne	r0, r0
   826c6:	f011 4f00 	tst.w	r1, #2147483648	; 0x80000000
   826ca:	f441 0100 	orr.w	r1, r1, #8388608	; 0x800000
   826ce:	f021 417f 	bic.w	r1, r1, #4278190080	; 0xff000000
   826d2:	bf18      	it	ne
   826d4:	4249      	negne	r1, r1
   826d6:	ea92 0f03 	teq	r2, r3
   826da:	d03f      	beq.n	8275c <__addsf3+0xd8>
   826dc:	f1a2 0201 	sub.w	r2, r2, #1
   826e0:	fa41 fc03 	asr.w	ip, r1, r3
   826e4:	eb10 000c 	adds.w	r0, r0, ip
   826e8:	f1c3 0320 	rsb	r3, r3, #32
   826ec:	fa01 f103 	lsl.w	r1, r1, r3
   826f0:	f000 4300 	and.w	r3, r0, #2147483648	; 0x80000000
   826f4:	d502      	bpl.n	826fc <__addsf3+0x78>
   826f6:	4249      	negs	r1, r1
   826f8:	eb60 0040 	sbc.w	r0, r0, r0, lsl #1
   826fc:	f5b0 0f00 	cmp.w	r0, #8388608	; 0x800000
   82700:	d313      	bcc.n	8272a <__addsf3+0xa6>
   82702:	f1b0 7f80 	cmp.w	r0, #16777216	; 0x1000000
   82706:	d306      	bcc.n	82716 <__addsf3+0x92>
   82708:	0840      	lsrs	r0, r0, #1
   8270a:	ea4f 0131 	mov.w	r1, r1, rrx
   8270e:	f102 0201 	add.w	r2, r2, #1
   82712:	2afe      	cmp	r2, #254	; 0xfe
   82714:	d251      	bcs.n	827ba <__addsf3+0x136>
   82716:	f1b1 4f00 	cmp.w	r1, #2147483648	; 0x80000000
   8271a:	eb40 50c2 	adc.w	r0, r0, r2, lsl #23
   8271e:	bf08      	it	eq
   82720:	f020 0001 	biceq.w	r0, r0, #1
   82724:	ea40 0003 	orr.w	r0, r0, r3
   82728:	4770      	bx	lr
   8272a:	0049      	lsls	r1, r1, #1
   8272c:	eb40 0000 	adc.w	r0, r0, r0
   82730:	f410 0f00 	tst.w	r0, #8388608	; 0x800000
   82734:	f1a2 0201 	sub.w	r2, r2, #1
   82738:	d1ed      	bne.n	82716 <__addsf3+0x92>
   8273a:	fab0 fc80 	clz	ip, r0
   8273e:	f1ac 0c08 	sub.w	ip, ip, #8
   82742:	ebb2 020c 	subs.w	r2, r2, ip
   82746:	fa00 f00c 	lsl.w	r0, r0, ip
   8274a:	bfaa      	itet	ge
   8274c:	eb00 50c2 	addge.w	r0, r0, r2, lsl #23
   82750:	4252      	neglt	r2, r2
   82752:	4318      	orrge	r0, r3
   82754:	bfbc      	itt	lt
   82756:	40d0      	lsrlt	r0, r2
   82758:	4318      	orrlt	r0, r3
   8275a:	4770      	bx	lr
   8275c:	f092 0f00 	teq	r2, #0
   82760:	f481 0100 	eor.w	r1, r1, #8388608	; 0x800000
   82764:	bf06      	itte	eq
   82766:	f480 0000 	eoreq.w	r0, r0, #8388608	; 0x800000
   8276a:	3201      	addeq	r2, #1
   8276c:	3b01      	subne	r3, #1
   8276e:	e7b5      	b.n	826dc <__addsf3+0x58>
   82770:	ea4f 0341 	mov.w	r3, r1, lsl #1
   82774:	ea7f 6c22 	mvns.w	ip, r2, asr #24
   82778:	bf18      	it	ne
   8277a:	ea7f 6c23 	mvnsne.w	ip, r3, asr #24
   8277e:	d021      	beq.n	827c4 <__addsf3+0x140>
   82780:	ea92 0f03 	teq	r2, r3
   82784:	d004      	beq.n	82790 <__addsf3+0x10c>
   82786:	f092 0f00 	teq	r2, #0
   8278a:	bf08      	it	eq
   8278c:	4608      	moveq	r0, r1
   8278e:	4770      	bx	lr
   82790:	ea90 0f01 	teq	r0, r1
   82794:	bf1c      	itt	ne
   82796:	2000      	movne	r0, #0
   82798:	4770      	bxne	lr
   8279a:	f012 4f7f 	tst.w	r2, #4278190080	; 0xff000000
   8279e:	d104      	bne.n	827aa <__addsf3+0x126>
   827a0:	0040      	lsls	r0, r0, #1
   827a2:	bf28      	it	cs
   827a4:	f040 4000 	orrcs.w	r0, r0, #2147483648	; 0x80000000
   827a8:	4770      	bx	lr
   827aa:	f112 7200 	adds.w	r2, r2, #33554432	; 0x2000000
   827ae:	bf3c      	itt	cc
   827b0:	f500 0000 	addcc.w	r0, r0, #8388608	; 0x800000
   827b4:	4770      	bxcc	lr
   827b6:	f000 4300 	and.w	r3, r0, #2147483648	; 0x80000000
   827ba:	f043 40fe 	orr.w	r0, r3, #2130706432	; 0x7f000000
   827be:	f440 0000 	orr.w	r0, r0, #8388608	; 0x800000
   827c2:	4770      	bx	lr
   827c4:	ea7f 6222 	mvns.w	r2, r2, asr #24
   827c8:	bf16      	itet	ne
   827ca:	4608      	movne	r0, r1
   827cc:	ea7f 6323 	mvnseq.w	r3, r3, asr #24
   827d0:	4601      	movne	r1, r0
   827d2:	0242      	lsls	r2, r0, #9
   827d4:	bf06      	itte	eq
   827d6:	ea5f 2341 	movseq.w	r3, r1, lsl #9
   827da:	ea90 0f01 	teqeq	r0, r1
   827de:	f440 0080 	orrne.w	r0, r0, #4194304	; 0x400000
   827e2:	4770      	bx	lr

000827e4 <__aeabi_ui2f>:
   827e4:	f04f 0300 	mov.w	r3, #0
   827e8:	e004      	b.n	827f4 <__aeabi_i2f+0x8>
   827ea:	bf00      	nop

000827ec <__aeabi_i2f>:
   827ec:	f010 4300 	ands.w	r3, r0, #2147483648	; 0x80000000
   827f0:	bf48      	it	mi
   827f2:	4240      	negmi	r0, r0
   827f4:	ea5f 0c00 	movs.w	ip, r0
   827f8:	bf08      	it	eq
   827fa:	4770      	bxeq	lr
   827fc:	f043 4396 	orr.w	r3, r3, #1258291200	; 0x4b000000
   82800:	4601      	mov	r1, r0
   82802:	f04f 0000 	mov.w	r0, #0
   82806:	e01c      	b.n	82842 <__aeabi_l2f+0x2a>

00082808 <__aeabi_ul2f>:
   82808:	ea50 0201 	orrs.w	r2, r0, r1
   8280c:	bf08      	it	eq
   8280e:	4770      	bxeq	lr
   82810:	f04f 0300 	mov.w	r3, #0
   82814:	e00a      	b.n	8282c <__aeabi_l2f+0x14>
   82816:	bf00      	nop

00082818 <__aeabi_l2f>:
   82818:	ea50 0201 	orrs.w	r2, r0, r1
   8281c:	bf08      	it	eq
   8281e:	4770      	bxeq	lr
   82820:	f011 4300 	ands.w	r3, r1, #2147483648	; 0x80000000
   82824:	d502      	bpl.n	8282c <__aeabi_l2f+0x14>
   82826:	4240      	negs	r0, r0
   82828:	eb61 0141 	sbc.w	r1, r1, r1, lsl #1
   8282c:	ea5f 0c01 	movs.w	ip, r1
   82830:	bf02      	ittt	eq
   82832:	4684      	moveq	ip, r0
   82834:	4601      	moveq	r1, r0
   82836:	2000      	moveq	r0, #0
   82838:	f043 43b6 	orr.w	r3, r3, #1526726656	; 0x5b000000
   8283c:	bf08      	it	eq
   8283e:	f1a3 5380 	subeq.w	r3, r3, #268435456	; 0x10000000
   82842:	f5a3 0300 	sub.w	r3, r3, #8388608	; 0x800000
   82846:	fabc f28c 	clz	r2, ip
   8284a:	3a08      	subs	r2, #8
   8284c:	eba3 53c2 	sub.w	r3, r3, r2, lsl #23
   82850:	db10      	blt.n	82874 <__aeabi_l2f+0x5c>
   82852:	fa01 fc02 	lsl.w	ip, r1, r2
   82856:	4463      	add	r3, ip
   82858:	fa00 fc02 	lsl.w	ip, r0, r2
   8285c:	f1c2 0220 	rsb	r2, r2, #32
   82860:	f1bc 4f00 	cmp.w	ip, #2147483648	; 0x80000000
   82864:	fa20 f202 	lsr.w	r2, r0, r2
   82868:	eb43 0002 	adc.w	r0, r3, r2
   8286c:	bf08      	it	eq
   8286e:	f020 0001 	biceq.w	r0, r0, #1
   82872:	4770      	bx	lr
   82874:	f102 0220 	add.w	r2, r2, #32
   82878:	fa01 fc02 	lsl.w	ip, r1, r2
   8287c:	f1c2 0220 	rsb	r2, r2, #32
   82880:	ea50 004c 	orrs.w	r0, r0, ip, lsl #1
   82884:	fa21 f202 	lsr.w	r2, r1, r2
   82888:	eb43 0002 	adc.w	r0, r3, r2
   8288c:	bf08      	it	eq
   8288e:	ea20 70dc 	biceq.w	r0, r0, ip, lsr #31
   82892:	4770      	bx	lr

00082894 <__aeabi_fmul>:
   82894:	f04f 0cff 	mov.w	ip, #255	; 0xff
   82898:	ea1c 52d0 	ands.w	r2, ip, r0, lsr #23
   8289c:	bf1e      	ittt	ne
   8289e:	ea1c 53d1 	andsne.w	r3, ip, r1, lsr #23
   828a2:	ea92 0f0c 	teqne	r2, ip
   828a6:	ea93 0f0c 	teqne	r3, ip
   828aa:	d06f      	beq.n	8298c <__aeabi_fmul+0xf8>
   828ac:	441a      	add	r2, r3
   828ae:	ea80 0c01 	eor.w	ip, r0, r1
   828b2:	0240      	lsls	r0, r0, #9
   828b4:	bf18      	it	ne
   828b6:	ea5f 2141 	movsne.w	r1, r1, lsl #9
   828ba:	d01e      	beq.n	828fa <__aeabi_fmul+0x66>
   828bc:	f04f 6300 	mov.w	r3, #134217728	; 0x8000000
   828c0:	ea43 1050 	orr.w	r0, r3, r0, lsr #5
   828c4:	ea43 1151 	orr.w	r1, r3, r1, lsr #5
   828c8:	fba0 3101 	umull	r3, r1, r0, r1
   828cc:	f00c 4000 	and.w	r0, ip, #2147483648	; 0x80000000
   828d0:	f5b1 0f00 	cmp.w	r1, #8388608	; 0x800000
   828d4:	bf3e      	ittt	cc
   828d6:	0049      	lslcc	r1, r1, #1
   828d8:	ea41 71d3 	orrcc.w	r1, r1, r3, lsr #31
   828dc:	005b      	lslcc	r3, r3, #1
   828de:	ea40 0001 	orr.w	r0, r0, r1
   828e2:	f162 027f 	sbc.w	r2, r2, #127	; 0x7f
   828e6:	2afd      	cmp	r2, #253	; 0xfd
   828e8:	d81d      	bhi.n	82926 <__aeabi_fmul+0x92>
   828ea:	f1b3 4f00 	cmp.w	r3, #2147483648	; 0x80000000
   828ee:	eb40 50c2 	adc.w	r0, r0, r2, lsl #23
   828f2:	bf08      	it	eq
   828f4:	f020 0001 	biceq.w	r0, r0, #1
   828f8:	4770      	bx	lr
   828fa:	f090 0f00 	teq	r0, #0
   828fe:	f00c 4c00 	and.w	ip, ip, #2147483648	; 0x80000000
   82902:	bf08      	it	eq
   82904:	0249      	lsleq	r1, r1, #9
   82906:	ea4c 2050 	orr.w	r0, ip, r0, lsr #9
   8290a:	ea40 2051 	orr.w	r0, r0, r1, lsr #9
   8290e:	3a7f      	subs	r2, #127	; 0x7f
   82910:	bfc2      	ittt	gt
   82912:	f1d2 03ff 	rsbsgt	r3, r2, #255	; 0xff
   82916:	ea40 50c2 	orrgt.w	r0, r0, r2, lsl #23
   8291a:	4770      	bxgt	lr
   8291c:	f440 0000 	orr.w	r0, r0, #8388608	; 0x800000
   82920:	f04f 0300 	mov.w	r3, #0
   82924:	3a01      	subs	r2, #1
   82926:	dc5d      	bgt.n	829e4 <__aeabi_fmul+0x150>
   82928:	f112 0f19 	cmn.w	r2, #25
   8292c:	bfdc      	itt	le
   8292e:	f000 4000 	andle.w	r0, r0, #2147483648	; 0x80000000
   82932:	4770      	bxle	lr
   82934:	f1c2 0200 	rsb	r2, r2, #0
   82938:	0041      	lsls	r1, r0, #1
   8293a:	fa21 f102 	lsr.w	r1, r1, r2
   8293e:	f1c2 0220 	rsb	r2, r2, #32
   82942:	fa00 fc02 	lsl.w	ip, r0, r2
   82946:	ea5f 0031 	movs.w	r0, r1, rrx
   8294a:	f140 0000 	adc.w	r0, r0, #0
   8294e:	ea53 034c 	orrs.w	r3, r3, ip, lsl #1
   82952:	bf08      	it	eq
   82954:	ea20 70dc 	biceq.w	r0, r0, ip, lsr #31
   82958:	4770      	bx	lr
   8295a:	f092 0f00 	teq	r2, #0
   8295e:	f000 4c00 	and.w	ip, r0, #2147483648	; 0x80000000
   82962:	bf02      	ittt	eq
   82964:	0040      	lsleq	r0, r0, #1
   82966:	f410 0f00 	tsteq.w	r0, #8388608	; 0x800000
   8296a:	3a01      	subeq	r2, #1
   8296c:	d0f9      	beq.n	82962 <__aeabi_fmul+0xce>
   8296e:	ea40 000c 	orr.w	r0, r0, ip
   82972:	f093 0f00 	teq	r3, #0
   82976:	f001 4c00 	and.w	ip, r1, #2147483648	; 0x80000000
   8297a:	bf02      	ittt	eq
   8297c:	0049      	lsleq	r1, r1, #1
   8297e:	f411 0f00 	tsteq.w	r1, #8388608	; 0x800000
   82982:	3b01      	subeq	r3, #1
   82984:	d0f9      	beq.n	8297a <__aeabi_fmul+0xe6>
   82986:	ea41 010c 	orr.w	r1, r1, ip
   8298a:	e78f      	b.n	828ac <__aeabi_fmul+0x18>
   8298c:	ea0c 53d1 	and.w	r3, ip, r1, lsr #23
   82990:	ea92 0f0c 	teq	r2, ip
   82994:	bf18      	it	ne
   82996:	ea93 0f0c 	teqne	r3, ip
   8299a:	d00a      	beq.n	829b2 <__aeabi_fmul+0x11e>
   8299c:	f030 4c00 	bics.w	ip, r0, #2147483648	; 0x80000000
   829a0:	bf18      	it	ne
   829a2:	f031 4c00 	bicsne.w	ip, r1, #2147483648	; 0x80000000
   829a6:	d1d8      	bne.n	8295a <__aeabi_fmul+0xc6>
   829a8:	ea80 0001 	eor.w	r0, r0, r1
   829ac:	f000 4000 	and.w	r0, r0, #2147483648	; 0x80000000
   829b0:	4770      	bx	lr
   829b2:	f090 0f00 	teq	r0, #0
   829b6:	bf17      	itett	ne
   829b8:	f090 4f00 	teqne	r0, #2147483648	; 0x80000000
   829bc:	4608      	moveq	r0, r1
   829be:	f091 0f00 	teqne	r1, #0
   829c2:	f091 4f00 	teqne	r1, #2147483648	; 0x80000000
   829c6:	d014      	beq.n	829f2 <__aeabi_fmul+0x15e>
   829c8:	ea92 0f0c 	teq	r2, ip
   829cc:	d101      	bne.n	829d2 <__aeabi_fmul+0x13e>
   829ce:	0242      	lsls	r2, r0, #9
   829d0:	d10f      	bne.n	829f2 <__aeabi_fmul+0x15e>
   829d2:	ea93 0f0c 	teq	r3, ip
   829d6:	d103      	bne.n	829e0 <__aeabi_fmul+0x14c>
   829d8:	024b      	lsls	r3, r1, #9
   829da:	bf18      	it	ne
   829dc:	4608      	movne	r0, r1
   829de:	d108      	bne.n	829f2 <__aeabi_fmul+0x15e>
   829e0:	ea80 0001 	eor.w	r0, r0, r1
   829e4:	f000 4000 	and.w	r0, r0, #2147483648	; 0x80000000
   829e8:	f040 40fe 	orr.w	r0, r0, #2130706432	; 0x7f000000
   829ec:	f440 0000 	orr.w	r0, r0, #8388608	; 0x800000
   829f0:	4770      	bx	lr
   829f2:	f040 40fe 	orr.w	r0, r0, #2130706432	; 0x7f000000
   829f6:	f440 0040 	orr.w	r0, r0, #12582912	; 0xc00000
   829fa:	4770      	bx	lr

000829fc <__aeabi_fdiv>:
   829fc:	f04f 0cff 	mov.w	ip, #255	; 0xff
   82a00:	ea1c 52d0 	ands.w	r2, ip, r0, lsr #23
   82a04:	bf1e      	ittt	ne
   82a06:	ea1c 53d1 	andsne.w	r3, ip, r1, lsr #23
   82a0a:	ea92 0f0c 	teqne	r2, ip
   82a0e:	ea93 0f0c 	teqne	r3, ip
   82a12:	d069      	beq.n	82ae8 <__aeabi_fdiv+0xec>
   82a14:	eba2 0203 	sub.w	r2, r2, r3
   82a18:	ea80 0c01 	eor.w	ip, r0, r1
   82a1c:	0249      	lsls	r1, r1, #9
   82a1e:	ea4f 2040 	mov.w	r0, r0, lsl #9
   82a22:	d037      	beq.n	82a94 <__aeabi_fdiv+0x98>
   82a24:	f04f 5380 	mov.w	r3, #268435456	; 0x10000000
   82a28:	ea43 1111 	orr.w	r1, r3, r1, lsr #4
   82a2c:	ea43 1310 	orr.w	r3, r3, r0, lsr #4
   82a30:	f00c 4000 	and.w	r0, ip, #2147483648	; 0x80000000
   82a34:	428b      	cmp	r3, r1
   82a36:	bf38      	it	cc
   82a38:	005b      	lslcc	r3, r3, #1
   82a3a:	f142 027d 	adc.w	r2, r2, #125	; 0x7d
   82a3e:	f44f 0c00 	mov.w	ip, #8388608	; 0x800000
   82a42:	428b      	cmp	r3, r1
   82a44:	bf24      	itt	cs
   82a46:	1a5b      	subcs	r3, r3, r1
   82a48:	ea40 000c 	orrcs.w	r0, r0, ip
   82a4c:	ebb3 0f51 	cmp.w	r3, r1, lsr #1
   82a50:	bf24      	itt	cs
   82a52:	eba3 0351 	subcs.w	r3, r3, r1, lsr #1
   82a56:	ea40 005c 	orrcs.w	r0, r0, ip, lsr #1
   82a5a:	ebb3 0f91 	cmp.w	r3, r1, lsr #2
   82a5e:	bf24      	itt	cs
   82a60:	eba3 0391 	subcs.w	r3, r3, r1, lsr #2
   82a64:	ea40 009c 	orrcs.w	r0, r0, ip, lsr #2
   82a68:	ebb3 0fd1 	cmp.w	r3, r1, lsr #3
   82a6c:	bf24      	itt	cs
   82a6e:	eba3 03d1 	subcs.w	r3, r3, r1, lsr #3
   82a72:	ea40 00dc 	orrcs.w	r0, r0, ip, lsr #3
   82a76:	011b      	lsls	r3, r3, #4
   82a78:	bf18      	it	ne
   82a7a:	ea5f 1c1c 	movsne.w	ip, ip, lsr #4
   82a7e:	d1e0      	bne.n	82a42 <__aeabi_fdiv+0x46>
   82a80:	2afd      	cmp	r2, #253	; 0xfd
   82a82:	f63f af50 	bhi.w	82926 <__aeabi_fmul+0x92>
   82a86:	428b      	cmp	r3, r1
   82a88:	eb40 50c2 	adc.w	r0, r0, r2, lsl #23
   82a8c:	bf08      	it	eq
   82a8e:	f020 0001 	biceq.w	r0, r0, #1
   82a92:	4770      	bx	lr
   82a94:	f00c 4c00 	and.w	ip, ip, #2147483648	; 0x80000000
   82a98:	ea4c 2050 	orr.w	r0, ip, r0, lsr #9
   82a9c:	327f      	adds	r2, #127	; 0x7f
   82a9e:	bfc2      	ittt	gt
   82aa0:	f1d2 03ff 	rsbsgt	r3, r2, #255	; 0xff
   82aa4:	ea40 50c2 	orrgt.w	r0, r0, r2, lsl #23
   82aa8:	4770      	bxgt	lr
   82aaa:	f440 0000 	orr.w	r0, r0, #8388608	; 0x800000
   82aae:	f04f 0300 	mov.w	r3, #0
   82ab2:	3a01      	subs	r2, #1
   82ab4:	e737      	b.n	82926 <__aeabi_fmul+0x92>
   82ab6:	f092 0f00 	teq	r2, #0
   82aba:	f000 4c00 	and.w	ip, r0, #2147483648	; 0x80000000
   82abe:	bf02      	ittt	eq
   82ac0:	0040      	lsleq	r0, r0, #1
   82ac2:	f410 0f00 	tsteq.w	r0, #8388608	; 0x800000
   82ac6:	3a01      	subeq	r2, #1
   82ac8:	d0f9      	beq.n	82abe <__aeabi_fdiv+0xc2>
   82aca:	ea40 000c 	orr.w	r0, r0, ip
   82ace:	f093 0f00 	teq	r3, #0
   82ad2:	f001 4c00 	and.w	ip, r1, #2147483648	; 0x80000000
   82ad6:	bf02      	ittt	eq
   82ad8:	0049      	lsleq	r1, r1, #1
   82ada:	f411 0f00 	tsteq.w	r1, #8388608	; 0x800000
   82ade:	3b01      	subeq	r3, #1
   82ae0:	d0f9      	beq.n	82ad6 <__aeabi_fdiv+0xda>
   82ae2:	ea41 010c 	orr.w	r1, r1, ip
   82ae6:	e795      	b.n	82a14 <__aeabi_fdiv+0x18>
   82ae8:	ea0c 53d1 	and.w	r3, ip, r1, lsr #23
   82aec:	ea92 0f0c 	teq	r2, ip
   82af0:	d108      	bne.n	82b04 <__aeabi_fdiv+0x108>
   82af2:	0242      	lsls	r2, r0, #9
   82af4:	f47f af7d 	bne.w	829f2 <__aeabi_fmul+0x15e>
   82af8:	ea93 0f0c 	teq	r3, ip
   82afc:	f47f af70 	bne.w	829e0 <__aeabi_fmul+0x14c>
   82b00:	4608      	mov	r0, r1
   82b02:	e776      	b.n	829f2 <__aeabi_fmul+0x15e>
   82b04:	ea93 0f0c 	teq	r3, ip
   82b08:	d104      	bne.n	82b14 <__aeabi_fdiv+0x118>
   82b0a:	024b      	lsls	r3, r1, #9
   82b0c:	f43f af4c 	beq.w	829a8 <__aeabi_fmul+0x114>
   82b10:	4608      	mov	r0, r1
   82b12:	e76e      	b.n	829f2 <__aeabi_fmul+0x15e>
   82b14:	f030 4c00 	bics.w	ip, r0, #2147483648	; 0x80000000
   82b18:	bf18      	it	ne
   82b1a:	f031 4c00 	bicsne.w	ip, r1, #2147483648	; 0x80000000
   82b1e:	d1ca      	bne.n	82ab6 <__aeabi_fdiv+0xba>
   82b20:	f030 4200 	bics.w	r2, r0, #2147483648	; 0x80000000
   82b24:	f47f af5c 	bne.w	829e0 <__aeabi_fmul+0x14c>
   82b28:	f031 4300 	bics.w	r3, r1, #2147483648	; 0x80000000
   82b2c:	f47f af3c 	bne.w	829a8 <__aeabi_fmul+0x114>
   82b30:	e75f      	b.n	829f2 <__aeabi_fmul+0x15e>
   82b32:	bf00      	nop

00082b34 <__aeabi_f2iz>:
   82b34:	ea4f 0240 	mov.w	r2, r0, lsl #1
   82b38:	f1b2 4ffe 	cmp.w	r2, #2130706432	; 0x7f000000
   82b3c:	d30f      	bcc.n	82b5e <__aeabi_f2iz+0x2a>
   82b3e:	f04f 039e 	mov.w	r3, #158	; 0x9e
   82b42:	ebb3 6212 	subs.w	r2, r3, r2, lsr #24
   82b46:	d90d      	bls.n	82b64 <__aeabi_f2iz+0x30>
   82b48:	ea4f 2300 	mov.w	r3, r0, lsl #8
   82b4c:	f043 4300 	orr.w	r3, r3, #2147483648	; 0x80000000
   82b50:	f010 4f00 	tst.w	r0, #2147483648	; 0x80000000
   82b54:	fa23 f002 	lsr.w	r0, r3, r2
   82b58:	bf18      	it	ne
   82b5a:	4240      	negne	r0, r0
   82b5c:	4770      	bx	lr
   82b5e:	f04f 0000 	mov.w	r0, #0
   82b62:	4770      	bx	lr
   82b64:	f112 0f61 	cmn.w	r2, #97	; 0x61
   82b68:	d101      	bne.n	82b6e <__aeabi_f2iz+0x3a>
   82b6a:	0242      	lsls	r2, r0, #9
   82b6c:	d105      	bne.n	82b7a <__aeabi_f2iz+0x46>
   82b6e:	f010 4000 	ands.w	r0, r0, #2147483648	; 0x80000000
   82b72:	bf08      	it	eq
   82b74:	f06f 4000 	mvneq.w	r0, #2147483648	; 0x80000000
   82b78:	4770      	bx	lr
   82b7a:	f04f 0000 	mov.w	r0, #0
   82b7e:	4770      	bx	lr

00082b80 <__aeabi_f2uiz>:
   82b80:	0042      	lsls	r2, r0, #1
   82b82:	d20e      	bcs.n	82ba2 <__aeabi_f2uiz+0x22>
   82b84:	f1b2 4ffe 	cmp.w	r2, #2130706432	; 0x7f000000
   82b88:	d30b      	bcc.n	82ba2 <__aeabi_f2uiz+0x22>
   82b8a:	f04f 039e 	mov.w	r3, #158	; 0x9e
   82b8e:	ebb3 6212 	subs.w	r2, r3, r2, lsr #24
   82b92:	d409      	bmi.n	82ba8 <__aeabi_f2uiz+0x28>
   82b94:	ea4f 2300 	mov.w	r3, r0, lsl #8
   82b98:	f043 4300 	orr.w	r3, r3, #2147483648	; 0x80000000
   82b9c:	fa23 f002 	lsr.w	r0, r3, r2
   82ba0:	4770      	bx	lr
   82ba2:	f04f 0000 	mov.w	r0, #0
   82ba6:	4770      	bx	lr
   82ba8:	f112 0f61 	cmn.w	r2, #97	; 0x61
   82bac:	d101      	bne.n	82bb2 <__aeabi_f2uiz+0x32>
   82bae:	0242      	lsls	r2, r0, #9
   82bb0:	d102      	bne.n	82bb8 <__aeabi_f2uiz+0x38>
   82bb2:	f04f 30ff 	mov.w	r0, #4294967295
   82bb6:	4770      	bx	lr
   82bb8:	f04f 0000 	mov.w	r0, #0
   82bbc:	4770      	bx	lr
   82bbe:	bf00      	nop

00082bc0 <atof>:
   82bc0:	2100      	movs	r1, #0
   82bc2:	f001 ba51 	b.w	84068 <strtod>
   82bc6:	bf00      	nop

00082bc8 <atoi>:
   82bc8:	2100      	movs	r1, #0
   82bca:	220a      	movs	r2, #10
   82bcc:	f001 bae2 	b.w	84194 <strtol>

00082bd0 <_gets_r>:
   82bd0:	b5f8      	push	{r3, r4, r5, r6, r7, lr}
   82bd2:	460f      	mov	r7, r1
   82bd4:	4605      	mov	r5, r0
   82bd6:	460c      	mov	r4, r1
   82bd8:	4e0f      	ldr	r6, [pc, #60]	; (82c18 <_gets_r+0x48>)
   82bda:	e007      	b.n	82bec <_gets_r+0x1c>
   82bdc:	680b      	ldr	r3, [r1, #0]
   82bde:	1c5a      	adds	r2, r3, #1
   82be0:	600a      	str	r2, [r1, #0]
   82be2:	7818      	ldrb	r0, [r3, #0]
   82be4:	280a      	cmp	r0, #10
   82be6:	d011      	beq.n	82c0c <_gets_r+0x3c>
   82be8:	f804 0b01 	strb.w	r0, [r4], #1
   82bec:	6833      	ldr	r3, [r6, #0]
   82bee:	6859      	ldr	r1, [r3, #4]
   82bf0:	684b      	ldr	r3, [r1, #4]
   82bf2:	3b01      	subs	r3, #1
   82bf4:	2b00      	cmp	r3, #0
   82bf6:	604b      	str	r3, [r1, #4]
   82bf8:	daf0      	bge.n	82bdc <_gets_r+0xc>
   82bfa:	4628      	mov	r0, r5
   82bfc:	f000 f930 	bl	82e60 <__srget_r>
   82c00:	280a      	cmp	r0, #10
   82c02:	d003      	beq.n	82c0c <_gets_r+0x3c>
   82c04:	1c43      	adds	r3, r0, #1
   82c06:	d1ef      	bne.n	82be8 <_gets_r+0x18>
   82c08:	42a7      	cmp	r7, r4
   82c0a:	d003      	beq.n	82c14 <_gets_r+0x44>
   82c0c:	2300      	movs	r3, #0
   82c0e:	7023      	strb	r3, [r4, #0]
   82c10:	4638      	mov	r0, r7
   82c12:	bdf8      	pop	{r3, r4, r5, r6, r7, pc}
   82c14:	2000      	movs	r0, #0
   82c16:	bdf8      	pop	{r3, r4, r5, r6, r7, pc}
   82c18:	20070530 	.word	0x20070530

00082c1c <gets>:
   82c1c:	4b02      	ldr	r3, [pc, #8]	; (82c28 <gets+0xc>)
   82c1e:	4601      	mov	r1, r0
   82c20:	6818      	ldr	r0, [r3, #0]
   82c22:	f7ff bfd5 	b.w	82bd0 <_gets_r>
   82c26:	bf00      	nop
   82c28:	20070530 	.word	0x20070530

00082c2c <__libc_init_array>:
   82c2c:	b570      	push	{r4, r5, r6, lr}
   82c2e:	4e0f      	ldr	r6, [pc, #60]	; (82c6c <__libc_init_array+0x40>)
   82c30:	4d0f      	ldr	r5, [pc, #60]	; (82c70 <__libc_init_array+0x44>)
   82c32:	1b76      	subs	r6, r6, r5
   82c34:	10b6      	asrs	r6, r6, #2
   82c36:	bf18      	it	ne
   82c38:	2400      	movne	r4, #0
   82c3a:	d005      	beq.n	82c48 <__libc_init_array+0x1c>
   82c3c:	3401      	adds	r4, #1
   82c3e:	f855 3b04 	ldr.w	r3, [r5], #4
   82c42:	4798      	blx	r3
   82c44:	42a6      	cmp	r6, r4
   82c46:	d1f9      	bne.n	82c3c <__libc_init_array+0x10>
   82c48:	4e0a      	ldr	r6, [pc, #40]	; (82c74 <__libc_init_array+0x48>)
   82c4a:	4d0b      	ldr	r5, [pc, #44]	; (82c78 <__libc_init_array+0x4c>)
   82c4c:	f006 f894 	bl	88d78 <_init>
   82c50:	1b76      	subs	r6, r6, r5
   82c52:	10b6      	asrs	r6, r6, #2
   82c54:	bf18      	it	ne
   82c56:	2400      	movne	r4, #0
   82c58:	d006      	beq.n	82c68 <__libc_init_array+0x3c>
   82c5a:	3401      	adds	r4, #1
   82c5c:	f855 3b04 	ldr.w	r3, [r5], #4
   82c60:	4798      	blx	r3
   82c62:	42a6      	cmp	r6, r4
   82c64:	d1f9      	bne.n	82c5a <__libc_init_array+0x2e>
   82c66:	bd70      	pop	{r4, r5, r6, pc}
   82c68:	bd70      	pop	{r4, r5, r6, pc}
   82c6a:	bf00      	nop
   82c6c:	00088d84 	.word	0x00088d84
   82c70:	00088d84 	.word	0x00088d84
   82c74:	00088d8c 	.word	0x00088d8c
   82c78:	00088d84 	.word	0x00088d84

00082c7c <iprintf>:
   82c7c:	b40f      	push	{r0, r1, r2, r3}
   82c7e:	b510      	push	{r4, lr}
   82c80:	4b07      	ldr	r3, [pc, #28]	; (82ca0 <iprintf+0x24>)
   82c82:	b082      	sub	sp, #8
   82c84:	ac04      	add	r4, sp, #16
   82c86:	f854 2b04 	ldr.w	r2, [r4], #4
   82c8a:	6818      	ldr	r0, [r3, #0]
   82c8c:	4623      	mov	r3, r4
   82c8e:	6881      	ldr	r1, [r0, #8]
   82c90:	9401      	str	r4, [sp, #4]
   82c92:	f001 fb07 	bl	842a4 <_vfiprintf_r>
   82c96:	b002      	add	sp, #8
   82c98:	e8bd 4010 	ldmia.w	sp!, {r4, lr}
   82c9c:	b004      	add	sp, #16
   82c9e:	4770      	bx	lr
   82ca0:	20070530 	.word	0x20070530

00082ca4 <__itoa>:
   82ca4:	1e93      	subs	r3, r2, #2
   82ca6:	2b22      	cmp	r3, #34	; 0x22
   82ca8:	d810      	bhi.n	82ccc <__itoa+0x28>
   82caa:	2a0a      	cmp	r2, #10
   82cac:	b510      	push	{r4, lr}
   82cae:	d006      	beq.n	82cbe <__itoa+0x1a>
   82cb0:	2300      	movs	r3, #0
   82cb2:	460c      	mov	r4, r1
   82cb4:	4419      	add	r1, r3
   82cb6:	f001 fa79 	bl	841ac <__utoa>
   82cba:	4620      	mov	r0, r4
   82cbc:	bd10      	pop	{r4, pc}
   82cbe:	2800      	cmp	r0, #0
   82cc0:	daf6      	bge.n	82cb0 <__itoa+0xc>
   82cc2:	232d      	movs	r3, #45	; 0x2d
   82cc4:	700b      	strb	r3, [r1, #0]
   82cc6:	4240      	negs	r0, r0
   82cc8:	2301      	movs	r3, #1
   82cca:	e7f2      	b.n	82cb2 <__itoa+0xe>
   82ccc:	2000      	movs	r0, #0
   82cce:	7008      	strb	r0, [r1, #0]
   82cd0:	4770      	bx	lr
   82cd2:	bf00      	nop

00082cd4 <itoa>:
   82cd4:	f7ff bfe6 	b.w	82ca4 <__itoa>

00082cd8 <memcpy>:
   82cd8:	4684      	mov	ip, r0
   82cda:	ea41 0300 	orr.w	r3, r1, r0
   82cde:	f013 0303 	ands.w	r3, r3, #3
   82ce2:	d149      	bne.n	82d78 <memcpy+0xa0>
   82ce4:	3a40      	subs	r2, #64	; 0x40
   82ce6:	d323      	bcc.n	82d30 <memcpy+0x58>
   82ce8:	680b      	ldr	r3, [r1, #0]
   82cea:	6003      	str	r3, [r0, #0]
   82cec:	684b      	ldr	r3, [r1, #4]
   82cee:	6043      	str	r3, [r0, #4]
   82cf0:	688b      	ldr	r3, [r1, #8]
   82cf2:	6083      	str	r3, [r0, #8]
   82cf4:	68cb      	ldr	r3, [r1, #12]
   82cf6:	60c3      	str	r3, [r0, #12]
   82cf8:	690b      	ldr	r3, [r1, #16]
   82cfa:	6103      	str	r3, [r0, #16]
   82cfc:	694b      	ldr	r3, [r1, #20]
   82cfe:	6143      	str	r3, [r0, #20]
   82d00:	698b      	ldr	r3, [r1, #24]
   82d02:	6183      	str	r3, [r0, #24]
   82d04:	69cb      	ldr	r3, [r1, #28]
   82d06:	61c3      	str	r3, [r0, #28]
   82d08:	6a0b      	ldr	r3, [r1, #32]
   82d0a:	6203      	str	r3, [r0, #32]
   82d0c:	6a4b      	ldr	r3, [r1, #36]	; 0x24
   82d0e:	6243      	str	r3, [r0, #36]	; 0x24
   82d10:	6a8b      	ldr	r3, [r1, #40]	; 0x28
   82d12:	6283      	str	r3, [r0, #40]	; 0x28
   82d14:	6acb      	ldr	r3, [r1, #44]	; 0x2c
   82d16:	62c3      	str	r3, [r0, #44]	; 0x2c
   82d18:	6b0b      	ldr	r3, [r1, #48]	; 0x30
   82d1a:	6303      	str	r3, [r0, #48]	; 0x30
   82d1c:	6b4b      	ldr	r3, [r1, #52]	; 0x34
   82d1e:	6343      	str	r3, [r0, #52]	; 0x34
   82d20:	6b8b      	ldr	r3, [r1, #56]	; 0x38
   82d22:	6383      	str	r3, [r0, #56]	; 0x38
   82d24:	6bcb      	ldr	r3, [r1, #60]	; 0x3c
   82d26:	63c3      	str	r3, [r0, #60]	; 0x3c
   82d28:	3040      	adds	r0, #64	; 0x40
   82d2a:	3140      	adds	r1, #64	; 0x40
   82d2c:	3a40      	subs	r2, #64	; 0x40
   82d2e:	d2db      	bcs.n	82ce8 <memcpy+0x10>
   82d30:	3230      	adds	r2, #48	; 0x30
   82d32:	d30b      	bcc.n	82d4c <memcpy+0x74>
   82d34:	680b      	ldr	r3, [r1, #0]
   82d36:	6003      	str	r3, [r0, #0]
   82d38:	684b      	ldr	r3, [r1, #4]
   82d3a:	6043      	str	r3, [r0, #4]
   82d3c:	688b      	ldr	r3, [r1, #8]
   82d3e:	6083      	str	r3, [r0, #8]
   82d40:	68cb      	ldr	r3, [r1, #12]
   82d42:	60c3      	str	r3, [r0, #12]
   82d44:	3010      	adds	r0, #16
   82d46:	3110      	adds	r1, #16
   82d48:	3a10      	subs	r2, #16
   82d4a:	d2f3      	bcs.n	82d34 <memcpy+0x5c>
   82d4c:	320c      	adds	r2, #12
   82d4e:	d305      	bcc.n	82d5c <memcpy+0x84>
   82d50:	f851 3b04 	ldr.w	r3, [r1], #4
   82d54:	f840 3b04 	str.w	r3, [r0], #4
   82d58:	3a04      	subs	r2, #4
   82d5a:	d2f9      	bcs.n	82d50 <memcpy+0x78>
   82d5c:	3204      	adds	r2, #4
   82d5e:	d008      	beq.n	82d72 <memcpy+0x9a>
   82d60:	07d2      	lsls	r2, r2, #31
   82d62:	bf1c      	itt	ne
   82d64:	f811 3b01 	ldrbne.w	r3, [r1], #1
   82d68:	f800 3b01 	strbne.w	r3, [r0], #1
   82d6c:	d301      	bcc.n	82d72 <memcpy+0x9a>
   82d6e:	880b      	ldrh	r3, [r1, #0]
   82d70:	8003      	strh	r3, [r0, #0]
   82d72:	4660      	mov	r0, ip
   82d74:	4770      	bx	lr
   82d76:	bf00      	nop
   82d78:	2a08      	cmp	r2, #8
   82d7a:	d313      	bcc.n	82da4 <memcpy+0xcc>
   82d7c:	078b      	lsls	r3, r1, #30
   82d7e:	d0b1      	beq.n	82ce4 <memcpy+0xc>
   82d80:	f010 0303 	ands.w	r3, r0, #3
   82d84:	d0ae      	beq.n	82ce4 <memcpy+0xc>
   82d86:	f1c3 0304 	rsb	r3, r3, #4
   82d8a:	1ad2      	subs	r2, r2, r3
   82d8c:	07db      	lsls	r3, r3, #31
   82d8e:	bf1c      	itt	ne
   82d90:	f811 3b01 	ldrbne.w	r3, [r1], #1
   82d94:	f800 3b01 	strbne.w	r3, [r0], #1
   82d98:	d3a4      	bcc.n	82ce4 <memcpy+0xc>
   82d9a:	f831 3b02 	ldrh.w	r3, [r1], #2
   82d9e:	f820 3b02 	strh.w	r3, [r0], #2
   82da2:	e79f      	b.n	82ce4 <memcpy+0xc>
   82da4:	3a04      	subs	r2, #4
   82da6:	d3d9      	bcc.n	82d5c <memcpy+0x84>
   82da8:	3a01      	subs	r2, #1
   82daa:	f811 3b01 	ldrb.w	r3, [r1], #1
   82dae:	f800 3b01 	strb.w	r3, [r0], #1
   82db2:	d2f9      	bcs.n	82da8 <memcpy+0xd0>
   82db4:	780b      	ldrb	r3, [r1, #0]
   82db6:	7003      	strb	r3, [r0, #0]
   82db8:	784b      	ldrb	r3, [r1, #1]
   82dba:	7043      	strb	r3, [r0, #1]
   82dbc:	788b      	ldrb	r3, [r1, #2]
   82dbe:	7083      	strb	r3, [r0, #2]
   82dc0:	4660      	mov	r0, ip
   82dc2:	4770      	bx	lr

00082dc4 <memset>:
   82dc4:	b470      	push	{r4, r5, r6}
   82dc6:	0784      	lsls	r4, r0, #30
   82dc8:	d046      	beq.n	82e58 <memset+0x94>
   82dca:	1e54      	subs	r4, r2, #1
   82dcc:	2a00      	cmp	r2, #0
   82dce:	d041      	beq.n	82e54 <memset+0x90>
   82dd0:	b2cd      	uxtb	r5, r1
   82dd2:	4603      	mov	r3, r0
   82dd4:	e002      	b.n	82ddc <memset+0x18>
   82dd6:	1e62      	subs	r2, r4, #1
   82dd8:	b3e4      	cbz	r4, 82e54 <memset+0x90>
   82dda:	4614      	mov	r4, r2
   82ddc:	f803 5b01 	strb.w	r5, [r3], #1
   82de0:	079a      	lsls	r2, r3, #30
   82de2:	d1f8      	bne.n	82dd6 <memset+0x12>
   82de4:	2c03      	cmp	r4, #3
   82de6:	d92e      	bls.n	82e46 <memset+0x82>
   82de8:	b2cd      	uxtb	r5, r1
   82dea:	ea45 2505 	orr.w	r5, r5, r5, lsl #8
   82dee:	2c0f      	cmp	r4, #15
   82df0:	ea45 4505 	orr.w	r5, r5, r5, lsl #16
   82df4:	d919      	bls.n	82e2a <memset+0x66>
   82df6:	4626      	mov	r6, r4
   82df8:	f103 0210 	add.w	r2, r3, #16
   82dfc:	3e10      	subs	r6, #16
   82dfe:	2e0f      	cmp	r6, #15
   82e00:	f842 5c10 	str.w	r5, [r2, #-16]
   82e04:	f842 5c0c 	str.w	r5, [r2, #-12]
   82e08:	f842 5c08 	str.w	r5, [r2, #-8]
   82e0c:	f842 5c04 	str.w	r5, [r2, #-4]
   82e10:	f102 0210 	add.w	r2, r2, #16
   82e14:	d8f2      	bhi.n	82dfc <memset+0x38>
   82e16:	f1a4 0210 	sub.w	r2, r4, #16
   82e1a:	f022 020f 	bic.w	r2, r2, #15
   82e1e:	f004 040f 	and.w	r4, r4, #15
   82e22:	3210      	adds	r2, #16
   82e24:	2c03      	cmp	r4, #3
   82e26:	4413      	add	r3, r2
   82e28:	d90d      	bls.n	82e46 <memset+0x82>
   82e2a:	461e      	mov	r6, r3
   82e2c:	4622      	mov	r2, r4
   82e2e:	3a04      	subs	r2, #4
   82e30:	2a03      	cmp	r2, #3
   82e32:	f846 5b04 	str.w	r5, [r6], #4
   82e36:	d8fa      	bhi.n	82e2e <memset+0x6a>
   82e38:	1f22      	subs	r2, r4, #4
   82e3a:	f022 0203 	bic.w	r2, r2, #3
   82e3e:	3204      	adds	r2, #4
   82e40:	4413      	add	r3, r2
   82e42:	f004 0403 	and.w	r4, r4, #3
   82e46:	b12c      	cbz	r4, 82e54 <memset+0x90>
   82e48:	b2c9      	uxtb	r1, r1
   82e4a:	441c      	add	r4, r3
   82e4c:	f803 1b01 	strb.w	r1, [r3], #1
   82e50:	42a3      	cmp	r3, r4
   82e52:	d1fb      	bne.n	82e4c <memset+0x88>
   82e54:	bc70      	pop	{r4, r5, r6}
   82e56:	4770      	bx	lr
   82e58:	4614      	mov	r4, r2
   82e5a:	4603      	mov	r3, r0
   82e5c:	e7c2      	b.n	82de4 <memset+0x20>
   82e5e:	bf00      	nop

00082e60 <__srget_r>:
   82e60:	b538      	push	{r3, r4, r5, lr}
   82e62:	460c      	mov	r4, r1
   82e64:	4605      	mov	r5, r0
   82e66:	b108      	cbz	r0, 82e6c <__srget_r+0xc>
   82e68:	6b83      	ldr	r3, [r0, #56]	; 0x38
   82e6a:	b163      	cbz	r3, 82e86 <__srget_r+0x26>
   82e6c:	4628      	mov	r0, r5
   82e6e:	4621      	mov	r1, r4
   82e70:	f004 fb4c 	bl	8750c <__srefill_r>
   82e74:	b950      	cbnz	r0, 82e8c <__srget_r+0x2c>
   82e76:	e894 000c 	ldmia.w	r4, {r2, r3}
   82e7a:	3b01      	subs	r3, #1
   82e7c:	1c51      	adds	r1, r2, #1
   82e7e:	e884 000a 	stmia.w	r4, {r1, r3}
   82e82:	7810      	ldrb	r0, [r2, #0]
   82e84:	bd38      	pop	{r3, r4, r5, pc}
   82e86:	f002 fa0f 	bl	852a8 <__sinit>
   82e8a:	e7ef      	b.n	82e6c <__srget_r+0xc>
   82e8c:	f04f 30ff 	mov.w	r0, #4294967295
   82e90:	bd38      	pop	{r3, r4, r5, pc}
   82e92:	bf00      	nop

00082e94 <setbuf>:
   82e94:	2900      	cmp	r1, #0
   82e96:	bf0c      	ite	eq
   82e98:	2202      	moveq	r2, #2
   82e9a:	2200      	movne	r2, #0
   82e9c:	f44f 6380 	mov.w	r3, #1024	; 0x400
   82ea0:	f000 b800 	b.w	82ea4 <setvbuf>

00082ea4 <setvbuf>:
   82ea4:	e92d 41f0 	stmdb	sp!, {r4, r5, r6, r7, r8, lr}
   82ea8:	4d3a      	ldr	r5, [pc, #232]	; (82f94 <setvbuf+0xf0>)
   82eaa:	4604      	mov	r4, r0
   82eac:	682e      	ldr	r6, [r5, #0]
   82eae:	4690      	mov	r8, r2
   82eb0:	460d      	mov	r5, r1
   82eb2:	461f      	mov	r7, r3
   82eb4:	b116      	cbz	r6, 82ebc <setvbuf+0x18>
   82eb6:	6bb3      	ldr	r3, [r6, #56]	; 0x38
   82eb8:	2b00      	cmp	r3, #0
   82eba:	d03c      	beq.n	82f36 <setvbuf+0x92>
   82ebc:	f1b8 0f02 	cmp.w	r8, #2
   82ec0:	d82f      	bhi.n	82f22 <setvbuf+0x7e>
   82ec2:	2f00      	cmp	r7, #0
   82ec4:	db2d      	blt.n	82f22 <setvbuf+0x7e>
   82ec6:	4621      	mov	r1, r4
   82ec8:	4630      	mov	r0, r6
   82eca:	f002 f947 	bl	8515c <_fflush_r>
   82ece:	89a1      	ldrh	r1, [r4, #12]
   82ed0:	2300      	movs	r3, #0
   82ed2:	6063      	str	r3, [r4, #4]
   82ed4:	61a3      	str	r3, [r4, #24]
   82ed6:	060b      	lsls	r3, r1, #24
   82ed8:	d427      	bmi.n	82f2a <setvbuf+0x86>
   82eda:	f021 0183 	bic.w	r1, r1, #131	; 0x83
   82ede:	b289      	uxth	r1, r1
   82ee0:	f1b8 0f02 	cmp.w	r8, #2
   82ee4:	81a1      	strh	r1, [r4, #12]
   82ee6:	d02a      	beq.n	82f3e <setvbuf+0x9a>
   82ee8:	2d00      	cmp	r5, #0
   82eea:	d036      	beq.n	82f5a <setvbuf+0xb6>
   82eec:	f1b8 0f01 	cmp.w	r8, #1
   82ef0:	d011      	beq.n	82f16 <setvbuf+0x72>
   82ef2:	b289      	uxth	r1, r1
   82ef4:	f001 0008 	and.w	r0, r1, #8
   82ef8:	4b27      	ldr	r3, [pc, #156]	; (82f98 <setvbuf+0xf4>)
   82efa:	b280      	uxth	r0, r0
   82efc:	63f3      	str	r3, [r6, #60]	; 0x3c
   82efe:	6025      	str	r5, [r4, #0]
   82f00:	6125      	str	r5, [r4, #16]
   82f02:	6167      	str	r7, [r4, #20]
   82f04:	b178      	cbz	r0, 82f26 <setvbuf+0x82>
   82f06:	f011 0f03 	tst.w	r1, #3
   82f0a:	bf18      	it	ne
   82f0c:	2700      	movne	r7, #0
   82f0e:	2000      	movs	r0, #0
   82f10:	60a7      	str	r7, [r4, #8]
   82f12:	e8bd 81f0 	ldmia.w	sp!, {r4, r5, r6, r7, r8, pc}
   82f16:	f041 0101 	orr.w	r1, r1, #1
   82f1a:	427b      	negs	r3, r7
   82f1c:	81a1      	strh	r1, [r4, #12]
   82f1e:	61a3      	str	r3, [r4, #24]
   82f20:	e7e7      	b.n	82ef2 <setvbuf+0x4e>
   82f22:	f04f 30ff 	mov.w	r0, #4294967295
   82f26:	e8bd 81f0 	ldmia.w	sp!, {r4, r5, r6, r7, r8, pc}
   82f2a:	6921      	ldr	r1, [r4, #16]
   82f2c:	4630      	mov	r0, r6
   82f2e:	f002 fa93 	bl	85458 <_free_r>
   82f32:	89a1      	ldrh	r1, [r4, #12]
   82f34:	e7d1      	b.n	82eda <setvbuf+0x36>
   82f36:	4630      	mov	r0, r6
   82f38:	f002 f9b6 	bl	852a8 <__sinit>
   82f3c:	e7be      	b.n	82ebc <setvbuf+0x18>
   82f3e:	2000      	movs	r0, #0
   82f40:	f104 0343 	add.w	r3, r4, #67	; 0x43
   82f44:	f041 0102 	orr.w	r1, r1, #2
   82f48:	2500      	movs	r5, #0
   82f4a:	2201      	movs	r2, #1
   82f4c:	81a1      	strh	r1, [r4, #12]
   82f4e:	60a5      	str	r5, [r4, #8]
   82f50:	6023      	str	r3, [r4, #0]
   82f52:	6123      	str	r3, [r4, #16]
   82f54:	6162      	str	r2, [r4, #20]
   82f56:	e8bd 81f0 	ldmia.w	sp!, {r4, r5, r6, r7, r8, pc}
   82f5a:	2f00      	cmp	r7, #0
   82f5c:	bf08      	it	eq
   82f5e:	f44f 6780 	moveq.w	r7, #1024	; 0x400
   82f62:	4638      	mov	r0, r7
   82f64:	f003 f946 	bl	861f4 <malloc>
   82f68:	4605      	mov	r5, r0
   82f6a:	b128      	cbz	r0, 82f78 <setvbuf+0xd4>
   82f6c:	89a1      	ldrh	r1, [r4, #12]
   82f6e:	f041 0180 	orr.w	r1, r1, #128	; 0x80
   82f72:	b289      	uxth	r1, r1
   82f74:	81a1      	strh	r1, [r4, #12]
   82f76:	e7b9      	b.n	82eec <setvbuf+0x48>
   82f78:	f44f 6080 	mov.w	r0, #1024	; 0x400
   82f7c:	f003 f93a 	bl	861f4 <malloc>
   82f80:	4605      	mov	r5, r0
   82f82:	b918      	cbnz	r0, 82f8c <setvbuf+0xe8>
   82f84:	89a1      	ldrh	r1, [r4, #12]
   82f86:	f04f 30ff 	mov.w	r0, #4294967295
   82f8a:	e7d9      	b.n	82f40 <setvbuf+0x9c>
   82f8c:	f44f 6780 	mov.w	r7, #1024	; 0x400
   82f90:	e7ec      	b.n	82f6c <setvbuf+0xc8>
   82f92:	bf00      	nop
   82f94:	20070530 	.word	0x20070530
   82f98:	000851ad 	.word	0x000851ad

00082f9c <strlen>:
   82f9c:	f020 0103 	bic.w	r1, r0, #3
   82fa0:	f010 0003 	ands.w	r0, r0, #3
   82fa4:	f1c0 0000 	rsb	r0, r0, #0
   82fa8:	f851 3b04 	ldr.w	r3, [r1], #4
   82fac:	f100 0c04 	add.w	ip, r0, #4
   82fb0:	ea4f 0ccc 	mov.w	ip, ip, lsl #3
   82fb4:	f06f 0200 	mvn.w	r2, #0
   82fb8:	bf1c      	itt	ne
   82fba:	fa22 f20c 	lsrne.w	r2, r2, ip
   82fbe:	4313      	orrne	r3, r2
   82fc0:	f04f 0c01 	mov.w	ip, #1
   82fc4:	ea4c 2c0c 	orr.w	ip, ip, ip, lsl #8
   82fc8:	ea4c 4c0c 	orr.w	ip, ip, ip, lsl #16
   82fcc:	eba3 020c 	sub.w	r2, r3, ip
   82fd0:	ea22 0203 	bic.w	r2, r2, r3
   82fd4:	ea12 12cc 	ands.w	r2, r2, ip, lsl #7
   82fd8:	bf04      	itt	eq
   82fda:	f851 3b04 	ldreq.w	r3, [r1], #4
   82fde:	3004      	addeq	r0, #4
   82fe0:	d0f4      	beq.n	82fcc <strlen+0x30>
   82fe2:	f1c2 0100 	rsb	r1, r2, #0
   82fe6:	ea02 0201 	and.w	r2, r2, r1
   82fea:	fab2 f282 	clz	r2, r2
   82fee:	f1c2 021f 	rsb	r2, r2, #31
   82ff2:	eb00 00d2 	add.w	r0, r0, r2, lsr #3
   82ff6:	4770      	bx	lr

00082ff8 <strncmp>:
   82ff8:	2a00      	cmp	r2, #0
   82ffa:	d03c      	beq.n	83076 <strncmp+0x7e>
   82ffc:	ea40 0301 	orr.w	r3, r0, r1
   83000:	f013 0303 	ands.w	r3, r3, #3
   83004:	b4f0      	push	{r4, r5, r6, r7}
   83006:	d125      	bne.n	83054 <strncmp+0x5c>
   83008:	2a03      	cmp	r2, #3
   8300a:	d923      	bls.n	83054 <strncmp+0x5c>
   8300c:	6804      	ldr	r4, [r0, #0]
   8300e:	680d      	ldr	r5, [r1, #0]
   83010:	42ac      	cmp	r4, r5
   83012:	d11f      	bne.n	83054 <strncmp+0x5c>
   83014:	3a04      	subs	r2, #4
   83016:	d030      	beq.n	8307a <strncmp+0x82>
   83018:	f1a4 3501 	sub.w	r5, r4, #16843009	; 0x1010101
   8301c:	ea25 0404 	bic.w	r4, r5, r4
   83020:	f014 3f80 	tst.w	r4, #2155905152	; 0x80808080
   83024:	d12c      	bne.n	83080 <strncmp+0x88>
   83026:	1d07      	adds	r7, r0, #4
   83028:	1d0d      	adds	r5, r1, #4
   8302a:	e00d      	b.n	83048 <strncmp+0x50>
   8302c:	f857 3b04 	ldr.w	r3, [r7], #4
   83030:	680e      	ldr	r6, [r1, #0]
   83032:	f1a3 3401 	sub.w	r4, r3, #16843009	; 0x1010101
   83036:	42b3      	cmp	r3, r6
   83038:	ea24 0403 	bic.w	r4, r4, r3
   8303c:	d10a      	bne.n	83054 <strncmp+0x5c>
   8303e:	3a04      	subs	r2, #4
   83040:	d01b      	beq.n	8307a <strncmp+0x82>
   83042:	f014 3f80 	tst.w	r4, #2155905152	; 0x80808080
   83046:	d11e      	bne.n	83086 <strncmp+0x8e>
   83048:	2a03      	cmp	r2, #3
   8304a:	4629      	mov	r1, r5
   8304c:	4638      	mov	r0, r7
   8304e:	f105 0504 	add.w	r5, r5, #4
   83052:	d8eb      	bhi.n	8302c <strncmp+0x34>
   83054:	7803      	ldrb	r3, [r0, #0]
   83056:	780c      	ldrb	r4, [r1, #0]
   83058:	3a01      	subs	r2, #1
   8305a:	42a3      	cmp	r3, r4
   8305c:	d108      	bne.n	83070 <strncmp+0x78>
   8305e:	b162      	cbz	r2, 8307a <strncmp+0x82>
   83060:	b173      	cbz	r3, 83080 <strncmp+0x88>
   83062:	f810 3f01 	ldrb.w	r3, [r0, #1]!
   83066:	f811 4f01 	ldrb.w	r4, [r1, #1]!
   8306a:	3a01      	subs	r2, #1
   8306c:	42a3      	cmp	r3, r4
   8306e:	d0f6      	beq.n	8305e <strncmp+0x66>
   83070:	1b18      	subs	r0, r3, r4
   83072:	bcf0      	pop	{r4, r5, r6, r7}
   83074:	4770      	bx	lr
   83076:	4610      	mov	r0, r2
   83078:	4770      	bx	lr
   8307a:	4610      	mov	r0, r2
   8307c:	bcf0      	pop	{r4, r5, r6, r7}
   8307e:	4770      	bx	lr
   83080:	4618      	mov	r0, r3
   83082:	bcf0      	pop	{r4, r5, r6, r7}
   83084:	4770      	bx	lr
   83086:	2000      	movs	r0, #0
   83088:	e7f3      	b.n	83072 <strncmp+0x7a>
   8308a:	bf00      	nop

0008308c <strncpy>:
   8308c:	ea40 0301 	orr.w	r3, r0, r1
   83090:	079b      	lsls	r3, r3, #30
   83092:	b470      	push	{r4, r5, r6}
   83094:	d12b      	bne.n	830ee <strncpy+0x62>
   83096:	2a03      	cmp	r2, #3
   83098:	d929      	bls.n	830ee <strncpy+0x62>
   8309a:	460c      	mov	r4, r1
   8309c:	4603      	mov	r3, r0
   8309e:	4621      	mov	r1, r4
   830a0:	f854 6b04 	ldr.w	r6, [r4], #4
   830a4:	f1a6 3501 	sub.w	r5, r6, #16843009	; 0x1010101
   830a8:	ea25 0506 	bic.w	r5, r5, r6
   830ac:	f015 3f80 	tst.w	r5, #2155905152	; 0x80808080
   830b0:	d105      	bne.n	830be <strncpy+0x32>
   830b2:	3a04      	subs	r2, #4
   830b4:	2a03      	cmp	r2, #3
   830b6:	f843 6b04 	str.w	r6, [r3], #4
   830ba:	4621      	mov	r1, r4
   830bc:	d8ef      	bhi.n	8309e <strncpy+0x12>
   830be:	b1a2      	cbz	r2, 830ea <strncpy+0x5e>
   830c0:	780c      	ldrb	r4, [r1, #0]
   830c2:	3a01      	subs	r2, #1
   830c4:	701c      	strb	r4, [r3, #0]
   830c6:	3101      	adds	r1, #1
   830c8:	3301      	adds	r3, #1
   830ca:	b13c      	cbz	r4, 830dc <strncpy+0x50>
   830cc:	b16a      	cbz	r2, 830ea <strncpy+0x5e>
   830ce:	f811 4b01 	ldrb.w	r4, [r1], #1
   830d2:	3a01      	subs	r2, #1
   830d4:	f803 4b01 	strb.w	r4, [r3], #1
   830d8:	2c00      	cmp	r4, #0
   830da:	d1f7      	bne.n	830cc <strncpy+0x40>
   830dc:	b12a      	cbz	r2, 830ea <strncpy+0x5e>
   830de:	441a      	add	r2, r3
   830e0:	2100      	movs	r1, #0
   830e2:	f803 1b01 	strb.w	r1, [r3], #1
   830e6:	4293      	cmp	r3, r2
   830e8:	d1fb      	bne.n	830e2 <strncpy+0x56>
   830ea:	bc70      	pop	{r4, r5, r6}
   830ec:	4770      	bx	lr
   830ee:	4603      	mov	r3, r0
   830f0:	e7e5      	b.n	830be <strncpy+0x32>
   830f2:	bf00      	nop

000830f4 <sulp>:
   830f4:	e92d 41f0 	stmdb	sp!, {r4, r5, r6, r7, r8, lr}
   830f8:	460f      	mov	r7, r1
   830fa:	4690      	mov	r8, r2
   830fc:	f003 feb0 	bl	86e60 <__ulp>
   83100:	4604      	mov	r4, r0
   83102:	460d      	mov	r5, r1
   83104:	f1b8 0f00 	cmp.w	r8, #0
   83108:	d011      	beq.n	8312e <sulp+0x3a>
   8310a:	f3c7 530a 	ubfx	r3, r7, #20, #11
   8310e:	f1c3 036b 	rsb	r3, r3, #107	; 0x6b
   83112:	2b00      	cmp	r3, #0
   83114:	dd0b      	ble.n	8312e <sulp+0x3a>
   83116:	051b      	lsls	r3, r3, #20
   83118:	f103 557f 	add.w	r5, r3, #1069547520	; 0x3fc00000
   8311c:	2400      	movs	r4, #0
   8311e:	f505 1540 	add.w	r5, r5, #3145728	; 0x300000
   83122:	4622      	mov	r2, r4
   83124:	462b      	mov	r3, r5
   83126:	f004 fe49 	bl	87dbc <__aeabi_dmul>
   8312a:	e8bd 81f0 	ldmia.w	sp!, {r4, r5, r6, r7, r8, pc}
   8312e:	4620      	mov	r0, r4
   83130:	4629      	mov	r1, r5
   83132:	e8bd 81f0 	ldmia.w	sp!, {r4, r5, r6, r7, r8, pc}
   83136:	bf00      	nop

00083138 <_strtod_r>:
   83138:	e92d 4ff0 	stmdb	sp!, {r4, r5, r6, r7, r8, r9, sl, fp, lr}
   8313c:	460f      	mov	r7, r1
   8313e:	b09f      	sub	sp, #124	; 0x7c
   83140:	4683      	mov	fp, r0
   83142:	460b      	mov	r3, r1
   83144:	2000      	movs	r0, #0
   83146:	2100      	movs	r1, #0
   83148:	e9cd 0104 	strd	r0, r1, [sp, #16]
   8314c:	9203      	str	r2, [sp, #12]
   8314e:	2200      	movs	r2, #0
   83150:	9719      	str	r7, [sp, #100]	; 0x64
   83152:	921a      	str	r2, [sp, #104]	; 0x68
   83154:	461c      	mov	r4, r3
   83156:	f813 6b01 	ldrb.w	r6, [r3], #1
   8315a:	2e2d      	cmp	r6, #45	; 0x2d
   8315c:	f200 80f0 	bhi.w	83340 <_strtod_r+0x208>
   83160:	e8df f016 	tbh	[pc, r6, lsl #1]
   83164:	00ee002e 	.word	0x00ee002e
   83168:	00ee00ee 	.word	0x00ee00ee
   8316c:	00ee00ee 	.word	0x00ee00ee
   83170:	00ee00ee 	.word	0x00ee00ee
   83174:	00dd00ee 	.word	0x00dd00ee
   83178:	00dd00dd 	.word	0x00dd00dd
   8317c:	00dd00dd 	.word	0x00dd00dd
   83180:	00ee00ee 	.word	0x00ee00ee
   83184:	00ee00ee 	.word	0x00ee00ee
   83188:	00ee00ee 	.word	0x00ee00ee
   8318c:	00ee00ee 	.word	0x00ee00ee
   83190:	00ee00ee 	.word	0x00ee00ee
   83194:	00ee00ee 	.word	0x00ee00ee
   83198:	00ee00ee 	.word	0x00ee00ee
   8319c:	00ee00ee 	.word	0x00ee00ee
   831a0:	00ee00ee 	.word	0x00ee00ee
   831a4:	00ee00dd 	.word	0x00ee00dd
   831a8:	00ee00ee 	.word	0x00ee00ee
   831ac:	00ee00ee 	.word	0x00ee00ee
   831b0:	00ee00ee 	.word	0x00ee00ee
   831b4:	00ee00ee 	.word	0x00ee00ee
   831b8:	004400ee 	.word	0x004400ee
   831bc:	00da00ee 	.word	0x00da00ee
   831c0:	9b03      	ldr	r3, [sp, #12]
   831c2:	f04f 0800 	mov.w	r8, #0
   831c6:	f04f 0900 	mov.w	r9, #0
   831ca:	b153      	cbz	r3, 831e2 <_strtod_r+0xaa>
   831cc:	2300      	movs	r3, #0
   831ce:	9306      	str	r3, [sp, #24]
   831d0:	9b03      	ldr	r3, [sp, #12]
   831d2:	601f      	str	r7, [r3, #0]
   831d4:	9b06      	ldr	r3, [sp, #24]
   831d6:	b123      	cbz	r3, 831e2 <_strtod_r+0xaa>
   831d8:	4641      	mov	r1, r8
   831da:	f109 4300 	add.w	r3, r9, #2147483648	; 0x80000000
   831de:	4688      	mov	r8, r1
   831e0:	4699      	mov	r9, r3
   831e2:	4640      	mov	r0, r8
   831e4:	4649      	mov	r1, r9
   831e6:	b01f      	add	sp, #124	; 0x7c
   831e8:	e8bd 8ff0 	ldmia.w	sp!, {r4, r5, r6, r7, r8, r9, sl, fp, pc}
   831ec:	2300      	movs	r3, #0
   831ee:	9306      	str	r3, [sp, #24]
   831f0:	1c63      	adds	r3, r4, #1
   831f2:	9319      	str	r3, [sp, #100]	; 0x64
   831f4:	7866      	ldrb	r6, [r4, #1]
   831f6:	2e00      	cmp	r6, #0
   831f8:	d0e2      	beq.n	831c0 <_strtod_r+0x88>
   831fa:	2e30      	cmp	r6, #48	; 0x30
   831fc:	461c      	mov	r4, r3
   831fe:	f000 80a4 	beq.w	8334a <_strtod_r+0x212>
   83202:	2300      	movs	r3, #0
   83204:	9408      	str	r4, [sp, #32]
   83206:	930a      	str	r3, [sp, #40]	; 0x28
   83208:	f1a6 0330 	sub.w	r3, r6, #48	; 0x30
   8320c:	f04f 0a00 	mov.w	sl, #0
   83210:	2b09      	cmp	r3, #9
   83212:	4655      	mov	r5, sl
   83214:	4623      	mov	r3, r4
   83216:	4654      	mov	r4, sl
   83218:	d819      	bhi.n	8324e <_strtod_r+0x116>
   8321a:	2c08      	cmp	r4, #8
   8321c:	bfc8      	it	gt
   8321e:	eb0a 0a8a 	addgt.w	sl, sl, sl, lsl #2
   83222:	eb05 0285 	add.w	r2, r5, r5, lsl #2
   83226:	f103 0301 	add.w	r3, r3, #1
   8322a:	eb06 0242 	add.w	r2, r6, r2, lsl #1
   8322e:	9319      	str	r3, [sp, #100]	; 0x64
   83230:	bfc4      	itt	gt
   83232:	eb06 064a 	addgt.w	r6, r6, sl, lsl #1
   83236:	f1a6 0a30 	subgt.w	sl, r6, #48	; 0x30
   8323a:	781e      	ldrb	r6, [r3, #0]
   8323c:	bfd8      	it	le
   8323e:	f1a2 0530 	suble.w	r5, r2, #48	; 0x30
   83242:	f1a6 0230 	sub.w	r2, r6, #48	; 0x30
   83246:	2a09      	cmp	r2, #9
   83248:	f104 0401 	add.w	r4, r4, #1
   8324c:	d9e5      	bls.n	8321a <_strtod_r+0xe2>
   8324e:	4658      	mov	r0, fp
   83250:	9307      	str	r3, [sp, #28]
   83252:	f002 ff5b 	bl	8610c <_localeconv_r>
   83256:	f8d0 8000 	ldr.w	r8, [r0]
   8325a:	4658      	mov	r0, fp
   8325c:	f002 ff56 	bl	8610c <_localeconv_r>
   83260:	6800      	ldr	r0, [r0, #0]
   83262:	f7ff fe9b 	bl	82f9c <strlen>
   83266:	9b07      	ldr	r3, [sp, #28]
   83268:	4602      	mov	r2, r0
   8326a:	4641      	mov	r1, r8
   8326c:	4618      	mov	r0, r3
   8326e:	f7ff fec3 	bl	82ff8 <strncmp>
   83272:	4680      	mov	r8, r0
   83274:	2800      	cmp	r0, #0
   83276:	f000 80e4 	beq.w	83442 <_strtod_r+0x30a>
   8327a:	2000      	movs	r0, #0
   8327c:	4684      	mov	ip, r0
   8327e:	4686      	mov	lr, r0
   83280:	46a1      	mov	r9, r4
   83282:	2e65      	cmp	r6, #101	; 0x65
   83284:	d073      	beq.n	8336e <_strtod_r+0x236>
   83286:	2e45      	cmp	r6, #69	; 0x45
   83288:	d071      	beq.n	8336e <_strtod_r+0x236>
   8328a:	2300      	movs	r3, #0
   8328c:	f1b9 0f00 	cmp.w	r9, #0
   83290:	d047      	beq.n	83322 <_strtod_r+0x1ea>
   83292:	f1b9 0f10 	cmp.w	r9, #16
   83296:	46c8      	mov	r8, r9
   83298:	ebcc 0303 	rsb	r3, ip, r3
   8329c:	4628      	mov	r0, r5
   8329e:	bfa8      	it	ge
   832a0:	f04f 0810 	movge.w	r8, #16
   832a4:	9307      	str	r3, [sp, #28]
   832a6:	f004 fd13 	bl	87cd0 <__aeabi_ui2d>
   832aa:	2c00      	cmp	r4, #0
   832ac:	bf08      	it	eq
   832ae:	464c      	moveq	r4, r9
   832b0:	f1b8 0f09 	cmp.w	r8, #9
   832b4:	e9cd 0104 	strd	r0, r1, [sp, #16]
   832b8:	dd13      	ble.n	832e2 <_strtod_r+0x1aa>
   832ba:	4b76      	ldr	r3, [pc, #472]	; (83494 <_strtod_r+0x35c>)
   832bc:	eb03 03c8 	add.w	r3, r3, r8, lsl #3
   832c0:	e953 2312 	ldrd	r2, r3, [r3, #-72]	; 0x48
   832c4:	f004 fd7a 	bl	87dbc <__aeabi_dmul>
   832c8:	4606      	mov	r6, r0
   832ca:	4650      	mov	r0, sl
   832cc:	460f      	mov	r7, r1
   832ce:	f004 fcff 	bl	87cd0 <__aeabi_ui2d>
   832d2:	4602      	mov	r2, r0
   832d4:	460b      	mov	r3, r1
   832d6:	4630      	mov	r0, r6
   832d8:	4639      	mov	r1, r7
   832da:	f004 fbbd 	bl	87a58 <__adddf3>
   832de:	e9cd 0104 	strd	r0, r1, [sp, #16]
   832e2:	f1b9 0f0f 	cmp.w	r9, #15
   832e6:	f300 80d7 	bgt.w	83498 <_strtod_r+0x360>
   832ea:	9b07      	ldr	r3, [sp, #28]
   832ec:	2b00      	cmp	r3, #0
   832ee:	f000 80a5 	beq.w	8343c <_strtod_r+0x304>
   832f2:	9b07      	ldr	r3, [sp, #28]
   832f4:	f340 8567 	ble.w	83dc6 <_strtod_r+0xc8e>
   832f8:	2b16      	cmp	r3, #22
   832fa:	f300 84d2 	bgt.w	83ca2 <_strtod_r+0xb6a>
   832fe:	e9dd 2304 	ldrd	r2, r3, [sp, #16]
   83302:	9807      	ldr	r0, [sp, #28]
   83304:	4963      	ldr	r1, [pc, #396]	; (83494 <_strtod_r+0x35c>)
   83306:	eb01 01c0 	add.w	r1, r1, r0, lsl #3
   8330a:	e9d1 0100 	ldrd	r0, r1, [r1]
   8330e:	f004 fd55 	bl	87dbc <__aeabi_dmul>
   83312:	4680      	mov	r8, r0
   83314:	4689      	mov	r9, r1
   83316:	e00d      	b.n	83334 <_strtod_r+0x1fc>
   83318:	2301      	movs	r3, #1
   8331a:	9306      	str	r3, [sp, #24]
   8331c:	e768      	b.n	831f0 <_strtod_r+0xb8>
   8331e:	9319      	str	r3, [sp, #100]	; 0x64
   83320:	e718      	b.n	83154 <_strtod_r+0x1c>
   83322:	b918      	cbnz	r0, 8332c <_strtod_r+0x1f4>
   83324:	9b0a      	ldr	r3, [sp, #40]	; 0x28
   83326:	2b00      	cmp	r3, #0
   83328:	f000 82a1 	beq.w	8386e <_strtod_r+0x736>
   8332c:	f04f 0800 	mov.w	r8, #0
   83330:	f04f 0900 	mov.w	r9, #0
   83334:	9b03      	ldr	r3, [sp, #12]
   83336:	2b00      	cmp	r3, #0
   83338:	f43f af4c 	beq.w	831d4 <_strtod_r+0x9c>
   8333c:	9f19      	ldr	r7, [sp, #100]	; 0x64
   8333e:	e747      	b.n	831d0 <_strtod_r+0x98>
   83340:	2300      	movs	r3, #0
   83342:	2e30      	cmp	r6, #48	; 0x30
   83344:	9306      	str	r3, [sp, #24]
   83346:	f47f af5c 	bne.w	83202 <_strtod_r+0xca>
   8334a:	7863      	ldrb	r3, [r4, #1]
   8334c:	2b58      	cmp	r3, #88	; 0x58
   8334e:	f000 83a4 	beq.w	83a9a <_strtod_r+0x962>
   83352:	2b78      	cmp	r3, #120	; 0x78
   83354:	f000 83a1 	beq.w	83a9a <_strtod_r+0x962>
   83358:	3401      	adds	r4, #1
   8335a:	9419      	str	r4, [sp, #100]	; 0x64
   8335c:	7826      	ldrb	r6, [r4, #0]
   8335e:	2e30      	cmp	r6, #48	; 0x30
   83360:	d0fa      	beq.n	83358 <_strtod_r+0x220>
   83362:	2e00      	cmp	r6, #0
   83364:	d0e2      	beq.n	8332c <_strtod_r+0x1f4>
   83366:	2301      	movs	r3, #1
   83368:	9408      	str	r4, [sp, #32]
   8336a:	930a      	str	r3, [sp, #40]	; 0x28
   8336c:	e74c      	b.n	83208 <_strtod_r+0xd0>
   8336e:	f1b9 0f00 	cmp.w	r9, #0
   83372:	d04e      	beq.n	83412 <_strtod_r+0x2da>
   83374:	9f19      	ldr	r7, [sp, #100]	; 0x64
   83376:	1c7b      	adds	r3, r7, #1
   83378:	9319      	str	r3, [sp, #100]	; 0x64
   8337a:	787e      	ldrb	r6, [r7, #1]
   8337c:	2e2b      	cmp	r6, #43	; 0x2b
   8337e:	f000 826d 	beq.w	8385c <_strtod_r+0x724>
   83382:	2e2d      	cmp	r6, #45	; 0x2d
   83384:	f000 8264 	beq.w	83850 <_strtod_r+0x718>
   83388:	f04f 0800 	mov.w	r8, #0
   8338c:	f1a6 0330 	sub.w	r3, r6, #48	; 0x30
   83390:	2b09      	cmp	r3, #9
   83392:	4632      	mov	r2, r6
   83394:	f200 8202 	bhi.w	8379c <_strtod_r+0x664>
   83398:	2e30      	cmp	r6, #48	; 0x30
   8339a:	d106      	bne.n	833aa <_strtod_r+0x272>
   8339c:	9b19      	ldr	r3, [sp, #100]	; 0x64
   8339e:	3301      	adds	r3, #1
   833a0:	9319      	str	r3, [sp, #100]	; 0x64
   833a2:	781e      	ldrb	r6, [r3, #0]
   833a4:	2e30      	cmp	r6, #48	; 0x30
   833a6:	d0fa      	beq.n	8339e <_strtod_r+0x266>
   833a8:	4632      	mov	r2, r6
   833aa:	3a31      	subs	r2, #49	; 0x31
   833ac:	2a08      	cmp	r2, #8
   833ae:	f63f af6c 	bhi.w	8328a <_strtod_r+0x152>
   833b2:	9b19      	ldr	r3, [sp, #100]	; 0x64
   833b4:	4619      	mov	r1, r3
   833b6:	460a      	mov	r2, r1
   833b8:	3201      	adds	r2, #1
   833ba:	9219      	str	r2, [sp, #100]	; 0x64
   833bc:	9307      	str	r3, [sp, #28]
   833be:	f1a6 0330 	sub.w	r3, r6, #48	; 0x30
   833c2:	784e      	ldrb	r6, [r1, #1]
   833c4:	f1a6 0130 	sub.w	r1, r6, #48	; 0x30
   833c8:	2909      	cmp	r1, #9
   833ca:	d80b      	bhi.n	833e4 <_strtod_r+0x2ac>
   833cc:	3201      	adds	r2, #1
   833ce:	9219      	str	r2, [sp, #100]	; 0x64
   833d0:	eb03 0383 	add.w	r3, r3, r3, lsl #2
   833d4:	eb06 0343 	add.w	r3, r6, r3, lsl #1
   833d8:	7816      	ldrb	r6, [r2, #0]
   833da:	3b30      	subs	r3, #48	; 0x30
   833dc:	f1a6 0130 	sub.w	r1, r6, #48	; 0x30
   833e0:	2909      	cmp	r1, #9
   833e2:	d9f3      	bls.n	833cc <_strtod_r+0x294>
   833e4:	9907      	ldr	r1, [sp, #28]
   833e6:	1a52      	subs	r2, r2, r1
   833e8:	2a08      	cmp	r2, #8
   833ea:	f300 8451 	bgt.w	83c90 <_strtod_r+0xb58>
   833ee:	f644 621f 	movw	r2, #19999	; 0x4e1f
   833f2:	4293      	cmp	r3, r2
   833f4:	bfa8      	it	ge
   833f6:	4613      	movge	r3, r2
   833f8:	f1c8 0200 	rsb	r2, r8, #0
   833fc:	4053      	eors	r3, r2
   833fe:	4443      	add	r3, r8
   83400:	f1b9 0f00 	cmp.w	r9, #0
   83404:	f47f af45 	bne.w	83292 <_strtod_r+0x15a>
   83408:	e78b      	b.n	83322 <_strtod_r+0x1ea>
   8340a:	f04f 0c00 	mov.w	ip, #0
   8340e:	f04f 0e01 	mov.w	lr, #1
   83412:	2800      	cmp	r0, #0
   83414:	f040 8228 	bne.w	83868 <_strtod_r+0x730>
   83418:	9b0a      	ldr	r3, [sp, #40]	; 0x28
   8341a:	2b00      	cmp	r3, #0
   8341c:	f43f aed0 	beq.w	831c0 <_strtod_r+0x88>
   83420:	4681      	mov	r9, r0
   83422:	e7a7      	b.n	83374 <_strtod_r+0x23c>
   83424:	f06f 4300 	mvn.w	r3, #2147483648	; 0x80000000
   83428:	9305      	str	r3, [sp, #20]
   8342a:	f04f 33ff 	mov.w	r3, #4294967295
   8342e:	9304      	str	r3, [sp, #16]
   83430:	072b      	lsls	r3, r5, #28
   83432:	bf42      	ittt	mi
   83434:	9b05      	ldrmi	r3, [sp, #20]
   83436:	f043 4300 	orrmi.w	r3, r3, #2147483648	; 0x80000000
   8343a:	9305      	strmi	r3, [sp, #20]
   8343c:	e9dd 8904 	ldrd	r8, r9, [sp, #16]
   83440:	e778      	b.n	83334 <_strtod_r+0x1fc>
   83442:	4658      	mov	r0, fp
   83444:	f002 fe62 	bl	8610c <_localeconv_r>
   83448:	6800      	ldr	r0, [r0, #0]
   8344a:	f7ff fda7 	bl	82f9c <strlen>
   8344e:	9b19      	ldr	r3, [sp, #100]	; 0x64
   83450:	181a      	adds	r2, r3, r0
   83452:	9219      	str	r2, [sp, #100]	; 0x64
   83454:	5c1e      	ldrb	r6, [r3, r0]
   83456:	2c00      	cmp	r4, #0
   83458:	f040 81e8 	bne.w	8382c <_strtod_r+0x6f4>
   8345c:	2e30      	cmp	r6, #48	; 0x30
   8345e:	4620      	mov	r0, r4
   83460:	d105      	bne.n	8346e <_strtod_r+0x336>
   83462:	3201      	adds	r2, #1
   83464:	9219      	str	r2, [sp, #100]	; 0x64
   83466:	7816      	ldrb	r6, [r2, #0]
   83468:	3001      	adds	r0, #1
   8346a:	2e30      	cmp	r6, #48	; 0x30
   8346c:	d0f9      	beq.n	83462 <_strtod_r+0x32a>
   8346e:	f1a6 0331 	sub.w	r3, r6, #49	; 0x31
   83472:	2b08      	cmp	r3, #8
   83474:	f200 82a0 	bhi.w	839b8 <_strtod_r+0x880>
   83478:	9b19      	ldr	r3, [sp, #100]	; 0x64
   8347a:	3e30      	subs	r6, #48	; 0x30
   8347c:	9308      	str	r3, [sp, #32]
   8347e:	f100 0c01 	add.w	ip, r0, #1
   83482:	f04f 0901 	mov.w	r9, #1
   83486:	eb05 0585 	add.w	r5, r5, r5, lsl #2
   8348a:	eb06 0545 	add.w	r5, r6, r5, lsl #1
   8348e:	2000      	movs	r0, #0
   83490:	e1da      	b.n	83848 <_strtod_r+0x710>
   83492:	bf00      	nop
   83494:	00088c78 	.word	0x00088c78
   83498:	9b07      	ldr	r3, [sp, #28]
   8349a:	ebc8 0809 	rsb	r8, r8, r9
   8349e:	4498      	add	r8, r3
   834a0:	f1b8 0f00 	cmp.w	r8, #0
   834a4:	f340 839a 	ble.w	83bdc <_strtod_r+0xaa4>
   834a8:	f018 000f 	ands.w	r0, r8, #15
   834ac:	d00a      	beq.n	834c4 <_strtod_r+0x38c>
   834ae:	e9dd 2304 	ldrd	r2, r3, [sp, #16]
   834b2:	49c1      	ldr	r1, [pc, #772]	; (837b8 <_strtod_r+0x680>)
   834b4:	eb01 01c0 	add.w	r1, r1, r0, lsl #3
   834b8:	e9d1 0100 	ldrd	r0, r1, [r1]
   834bc:	f004 fc7e 	bl	87dbc <__aeabi_dmul>
   834c0:	e9cd 0104 	strd	r0, r1, [sp, #16]
   834c4:	f038 060f 	bics.w	r6, r8, #15
   834c8:	f040 8228 	bne.w	8391c <_strtod_r+0x7e4>
   834cc:	2300      	movs	r3, #0
   834ce:	930a      	str	r3, [sp, #40]	; 0x28
   834d0:	9500      	str	r5, [sp, #0]
   834d2:	9908      	ldr	r1, [sp, #32]
   834d4:	4622      	mov	r2, r4
   834d6:	464b      	mov	r3, r9
   834d8:	4658      	mov	r0, fp
   834da:	f003 fa3f 	bl	8695c <__s2b>
   834de:	9010      	str	r0, [sp, #64]	; 0x40
   834e0:	2800      	cmp	r0, #0
   834e2:	f000 833b 	beq.w	83b5c <_strtod_r+0xa24>
   834e6:	9a07      	ldr	r2, [sp, #28]
   834e8:	2100      	movs	r1, #0
   834ea:	2a00      	cmp	r2, #0
   834ec:	f1c2 0300 	rsb	r3, r2, #0
   834f0:	bfa8      	it	ge
   834f2:	460b      	movge	r3, r1
   834f4:	460f      	mov	r7, r1
   834f6:	930c      	str	r3, [sp, #48]	; 0x30
   834f8:	ea22 73e2 	bic.w	r3, r2, r2, asr #31
   834fc:	9107      	str	r1, [sp, #28]
   834fe:	930b      	str	r3, [sp, #44]	; 0x2c
   83500:	9c10      	ldr	r4, [sp, #64]	; 0x40
   83502:	4658      	mov	r0, fp
   83504:	6861      	ldr	r1, [r4, #4]
   83506:	f003 f9b5 	bl	86874 <_Balloc>
   8350a:	4682      	mov	sl, r0
   8350c:	2800      	cmp	r0, #0
   8350e:	f000 82a5 	beq.w	83a5c <_strtod_r+0x924>
   83512:	e9dd 2304 	ldrd	r2, r3, [sp, #16]
   83516:	4621      	mov	r1, r4
   83518:	4690      	mov	r8, r2
   8351a:	4699      	mov	r9, r3
   8351c:	6922      	ldr	r2, [r4, #16]
   8351e:	310c      	adds	r1, #12
   83520:	3202      	adds	r2, #2
   83522:	0092      	lsls	r2, r2, #2
   83524:	300c      	adds	r0, #12
   83526:	e9cd 8908 	strd	r8, r9, [sp, #32]
   8352a:	f7ff fbd5 	bl	82cd8 <memcpy>
   8352e:	a81b      	add	r0, sp, #108	; 0x6c
   83530:	a91c      	add	r1, sp, #112	; 0x70
   83532:	e88d 0003 	stmia.w	sp, {r0, r1}
   83536:	4642      	mov	r2, r8
   83538:	464b      	mov	r3, r9
   8353a:	4658      	mov	r0, fp
   8353c:	f003 fd1a 	bl	86f74 <__d2b>
   83540:	901a      	str	r0, [sp, #104]	; 0x68
   83542:	2800      	cmp	r0, #0
   83544:	f000 828b 	beq.w	83a5e <_strtod_r+0x926>
   83548:	4658      	mov	r0, fp
   8354a:	2101      	movs	r1, #1
   8354c:	f003 faa0 	bl	86a90 <__i2b>
   83550:	4607      	mov	r7, r0
   83552:	2800      	cmp	r0, #0
   83554:	f000 8282 	beq.w	83a5c <_strtod_r+0x924>
   83558:	9a1b      	ldr	r2, [sp, #108]	; 0x6c
   8355a:	2a00      	cmp	r2, #0
   8355c:	f2c0 8112 	blt.w	83784 <_strtod_r+0x64c>
   83560:	9b0c      	ldr	r3, [sp, #48]	; 0x30
   83562:	990b      	ldr	r1, [sp, #44]	; 0x2c
   83564:	eb03 0802 	add.w	r8, r3, r2
   83568:	980a      	ldr	r0, [sp, #40]	; 0x28
   8356a:	9b1c      	ldr	r3, [sp, #112]	; 0x70
   8356c:	1a12      	subs	r2, r2, r0
   8356e:	441a      	add	r2, r3
   83570:	f46f 707f 	mvn.w	r0, #1020	; 0x3fc
   83574:	4282      	cmp	r2, r0
   83576:	f1c3 0336 	rsb	r3, r3, #54	; 0x36
   8357a:	f280 80ec 	bge.w	83756 <_strtod_r+0x61e>
   8357e:	1a80      	subs	r0, r0, r2
   83580:	281f      	cmp	r0, #31
   83582:	eba3 0300 	sub.w	r3, r3, r0
   83586:	f300 8102 	bgt.w	8378e <_strtod_r+0x656>
   8358a:	2501      	movs	r5, #1
   8358c:	2200      	movs	r2, #0
   8358e:	4085      	lsls	r5, r0
   83590:	9211      	str	r2, [sp, #68]	; 0x44
   83592:	eb08 0903 	add.w	r9, r8, r3
   83596:	45c1      	cmp	r9, r8
   83598:	464a      	mov	r2, r9
   8359a:	bfa8      	it	ge
   8359c:	4642      	movge	r2, r8
   8359e:	18ce      	adds	r6, r1, r3
   835a0:	9b0a      	ldr	r3, [sp, #40]	; 0x28
   835a2:	441e      	add	r6, r3
   835a4:	42b2      	cmp	r2, r6
   835a6:	4613      	mov	r3, r2
   835a8:	bfa8      	it	ge
   835aa:	4633      	movge	r3, r6
   835ac:	2b00      	cmp	r3, #0
   835ae:	dd04      	ble.n	835ba <_strtod_r+0x482>
   835b0:	ebc3 0909 	rsb	r9, r3, r9
   835b4:	1af6      	subs	r6, r6, r3
   835b6:	ebc3 0808 	rsb	r8, r3, r8
   835ba:	9b0c      	ldr	r3, [sp, #48]	; 0x30
   835bc:	b1b3      	cbz	r3, 835ec <_strtod_r+0x4b4>
   835be:	4639      	mov	r1, r7
   835c0:	4658      	mov	r0, fp
   835c2:	461a      	mov	r2, r3
   835c4:	f003 fb0e 	bl	86be4 <__pow5mult>
   835c8:	4607      	mov	r7, r0
   835ca:	2800      	cmp	r0, #0
   835cc:	f000 8246 	beq.w	83a5c <_strtod_r+0x924>
   835d0:	4658      	mov	r0, fp
   835d2:	4639      	mov	r1, r7
   835d4:	9a1a      	ldr	r2, [sp, #104]	; 0x68
   835d6:	f003 fa65 	bl	86aa4 <__multiply>
   835da:	4604      	mov	r4, r0
   835dc:	2800      	cmp	r0, #0
   835de:	f000 823d 	beq.w	83a5c <_strtod_r+0x924>
   835e2:	4658      	mov	r0, fp
   835e4:	991a      	ldr	r1, [sp, #104]	; 0x68
   835e6:	f003 f96d 	bl	868c4 <_Bfree>
   835ea:	941a      	str	r4, [sp, #104]	; 0x68
   835ec:	f1b9 0f00 	cmp.w	r9, #0
   835f0:	dd08      	ble.n	83604 <_strtod_r+0x4cc>
   835f2:	464a      	mov	r2, r9
   835f4:	4658      	mov	r0, fp
   835f6:	991a      	ldr	r1, [sp, #104]	; 0x68
   835f8:	f003 fb44 	bl	86c84 <__lshift>
   835fc:	901a      	str	r0, [sp, #104]	; 0x68
   835fe:	2800      	cmp	r0, #0
   83600:	f000 822d 	beq.w	83a5e <_strtod_r+0x926>
   83604:	9b0b      	ldr	r3, [sp, #44]	; 0x2c
   83606:	b143      	cbz	r3, 8361a <_strtod_r+0x4e2>
   83608:	4651      	mov	r1, sl
   8360a:	4658      	mov	r0, fp
   8360c:	9a0b      	ldr	r2, [sp, #44]	; 0x2c
   8360e:	f003 fae9 	bl	86be4 <__pow5mult>
   83612:	4682      	mov	sl, r0
   83614:	2800      	cmp	r0, #0
   83616:	f000 8221 	beq.w	83a5c <_strtod_r+0x924>
   8361a:	2e00      	cmp	r6, #0
   8361c:	dd08      	ble.n	83630 <_strtod_r+0x4f8>
   8361e:	4651      	mov	r1, sl
   83620:	4632      	mov	r2, r6
   83622:	4658      	mov	r0, fp
   83624:	f003 fb2e 	bl	86c84 <__lshift>
   83628:	4682      	mov	sl, r0
   8362a:	2800      	cmp	r0, #0
   8362c:	f000 8216 	beq.w	83a5c <_strtod_r+0x924>
   83630:	f1b8 0f00 	cmp.w	r8, #0
   83634:	dd08      	ble.n	83648 <_strtod_r+0x510>
   83636:	4639      	mov	r1, r7
   83638:	4642      	mov	r2, r8
   8363a:	4658      	mov	r0, fp
   8363c:	f003 fb22 	bl	86c84 <__lshift>
   83640:	4607      	mov	r7, r0
   83642:	2800      	cmp	r0, #0
   83644:	f000 820a 	beq.w	83a5c <_strtod_r+0x924>
   83648:	4658      	mov	r0, fp
   8364a:	991a      	ldr	r1, [sp, #104]	; 0x68
   8364c:	4652      	mov	r2, sl
   8364e:	f003 fb95 	bl	86d7c <__mdiff>
   83652:	9007      	str	r0, [sp, #28]
   83654:	2800      	cmp	r0, #0
   83656:	f000 8201 	beq.w	83a5c <_strtod_r+0x924>
   8365a:	9a07      	ldr	r2, [sp, #28]
   8365c:	2600      	movs	r6, #0
   8365e:	68d3      	ldr	r3, [r2, #12]
   83660:	4639      	mov	r1, r7
   83662:	60d6      	str	r6, [r2, #12]
   83664:	930d      	str	r3, [sp, #52]	; 0x34
   83666:	f003 fb65 	bl	86d34 <__mcmp>
   8366a:	42b0      	cmp	r0, r6
   8366c:	f2c0 8420 	blt.w	83eb0 <_strtod_r+0xd78>
   83670:	f000 83dd 	beq.w	83e2e <_strtod_r+0xcf6>
   83674:	9807      	ldr	r0, [sp, #28]
   83676:	4639      	mov	r1, r7
   83678:	f003 fcd0 	bl	8701c <__ratio>
   8367c:	2200      	movs	r2, #0
   8367e:	f04f 4380 	mov.w	r3, #1073741824	; 0x40000000
   83682:	4604      	mov	r4, r0
   83684:	460d      	mov	r5, r1
   83686:	f004 fe15 	bl	882b4 <__aeabi_dcmple>
   8368a:	2800      	cmp	r0, #0
   8368c:	d067      	beq.n	8375e <_strtod_r+0x626>
   8368e:	9b0d      	ldr	r3, [sp, #52]	; 0x34
   83690:	2b00      	cmp	r3, #0
   83692:	f000 80a2 	beq.w	837da <_strtod_r+0x6a2>
   83696:	46b1      	mov	r9, r6
   83698:	4d48      	ldr	r5, [pc, #288]	; (837bc <_strtod_r+0x684>)
   8369a:	f8dd c014 	ldr.w	ip, [sp, #20]
   8369e:	f8df 811c 	ldr.w	r8, [pc, #284]	; 837bc <_strtod_r+0x684>
   836a2:	2400      	movs	r4, #0
   836a4:	4e46      	ldr	r6, [pc, #280]	; (837c0 <_strtod_r+0x688>)
   836a6:	4b47      	ldr	r3, [pc, #284]	; (837c4 <_strtod_r+0x68c>)
   836a8:	ea0c 0606 	and.w	r6, ip, r6
   836ac:	429e      	cmp	r6, r3
   836ae:	f000 8227 	beq.w	83b00 <_strtod_r+0x9c8>
   836b2:	9b0a      	ldr	r3, [sp, #40]	; 0x28
   836b4:	b323      	cbz	r3, 83700 <_strtod_r+0x5c8>
   836b6:	f1b6 6fd4 	cmp.w	r6, #111149056	; 0x6a00000
   836ba:	d821      	bhi.n	83700 <_strtod_r+0x5c8>
   836bc:	a33c      	add	r3, pc, #240	; (adr r3, 837b0 <_strtod_r+0x678>)
   836be:	e9d3 2300 	ldrd	r2, r3, [r3]
   836c2:	4648      	mov	r0, r9
   836c4:	4641      	mov	r1, r8
   836c6:	f004 fdf5 	bl	882b4 <__aeabi_dcmple>
   836ca:	b1b0      	cbz	r0, 836fa <_strtod_r+0x5c2>
   836cc:	4648      	mov	r0, r9
   836ce:	4641      	mov	r1, r8
   836d0:	f004 fe36 	bl	88340 <__aeabi_d2uiz>
   836d4:	4681      	mov	r9, r0
   836d6:	2800      	cmp	r0, #0
   836d8:	f000 8326 	beq.w	83d28 <_strtod_r+0xbf0>
   836dc:	f004 faf8 	bl	87cd0 <__aeabi_ui2d>
   836e0:	4681      	mov	r9, r0
   836e2:	4688      	mov	r8, r1
   836e4:	9b0d      	ldr	r3, [sp, #52]	; 0x34
   836e6:	2b00      	cmp	r3, #0
   836e8:	f040 8319 	bne.w	83d1e <_strtod_r+0xbe6>
   836ec:	f108 4300 	add.w	r3, r8, #2147483648	; 0x80000000
   836f0:	f8cd 9050 	str.w	r9, [sp, #80]	; 0x50
   836f4:	9315      	str	r3, [sp, #84]	; 0x54
   836f6:	e9dd 4514 	ldrd	r4, r5, [sp, #80]	; 0x50
   836fa:	f105 63d6 	add.w	r3, r5, #112197632	; 0x6b00000
   836fe:	1b9d      	subs	r5, r3, r6
   83700:	e9dd 0108 	ldrd	r0, r1, [sp, #32]
   83704:	f003 fbac 	bl	86e60 <__ulp>
   83708:	4602      	mov	r2, r0
   8370a:	460b      	mov	r3, r1
   8370c:	4620      	mov	r0, r4
   8370e:	4629      	mov	r1, r5
   83710:	f004 fb54 	bl	87dbc <__aeabi_dmul>
   83714:	4602      	mov	r2, r0
   83716:	460b      	mov	r3, r1
   83718:	e9dd 0108 	ldrd	r0, r1, [sp, #32]
   8371c:	f004 f99c 	bl	87a58 <__adddf3>
   83720:	460c      	mov	r4, r1
   83722:	e9cd 0104 	strd	r0, r1, [sp, #16]
   83726:	9b0a      	ldr	r3, [sp, #40]	; 0x28
   83728:	b923      	cbnz	r3, 83734 <_strtod_r+0x5fc>
   8372a:	4b25      	ldr	r3, [pc, #148]	; (837c0 <_strtod_r+0x688>)
   8372c:	4023      	ands	r3, r4
   8372e:	429e      	cmp	r6, r3
   83730:	f000 821f 	beq.w	83b72 <_strtod_r+0xa3a>
   83734:	4658      	mov	r0, fp
   83736:	991a      	ldr	r1, [sp, #104]	; 0x68
   83738:	f003 f8c4 	bl	868c4 <_Bfree>
   8373c:	4658      	mov	r0, fp
   8373e:	4651      	mov	r1, sl
   83740:	f003 f8c0 	bl	868c4 <_Bfree>
   83744:	4658      	mov	r0, fp
   83746:	4639      	mov	r1, r7
   83748:	f003 f8bc 	bl	868c4 <_Bfree>
   8374c:	4658      	mov	r0, fp
   8374e:	9907      	ldr	r1, [sp, #28]
   83750:	f003 f8b8 	bl	868c4 <_Bfree>
   83754:	e6d4      	b.n	83500 <_strtod_r+0x3c8>
   83756:	2200      	movs	r2, #0
   83758:	9211      	str	r2, [sp, #68]	; 0x44
   8375a:	2501      	movs	r5, #1
   8375c:	e719      	b.n	83592 <_strtod_r+0x45a>
   8375e:	4b1a      	ldr	r3, [pc, #104]	; (837c8 <_strtod_r+0x690>)
   83760:	4620      	mov	r0, r4
   83762:	4629      	mov	r1, r5
   83764:	2200      	movs	r2, #0
   83766:	f004 fb29 	bl	87dbc <__aeabi_dmul>
   8376a:	9b0d      	ldr	r3, [sp, #52]	; 0x34
   8376c:	4681      	mov	r9, r0
   8376e:	4688      	mov	r8, r1
   83770:	bb73      	cbnz	r3, 837d0 <_strtod_r+0x698>
   83772:	f101 4300 	add.w	r3, r1, #2147483648	; 0x80000000
   83776:	900e      	str	r0, [sp, #56]	; 0x38
   83778:	930f      	str	r3, [sp, #60]	; 0x3c
   8377a:	e9dd 450e 	ldrd	r4, r5, [sp, #56]	; 0x38
   8377e:	f8dd c014 	ldr.w	ip, [sp, #20]
   83782:	e78f      	b.n	836a4 <_strtod_r+0x56c>
   83784:	9b0b      	ldr	r3, [sp, #44]	; 0x2c
   83786:	f8dd 8030 	ldr.w	r8, [sp, #48]	; 0x30
   8378a:	1a99      	subs	r1, r3, r2
   8378c:	e6ec      	b.n	83568 <_strtod_r+0x430>
   8378e:	480f      	ldr	r0, [pc, #60]	; (837cc <_strtod_r+0x694>)
   83790:	2501      	movs	r5, #1
   83792:	1a80      	subs	r0, r0, r2
   83794:	fa05 f200 	lsl.w	r2, r5, r0
   83798:	9211      	str	r2, [sp, #68]	; 0x44
   8379a:	e6fa      	b.n	83592 <_strtod_r+0x45a>
   8379c:	9719      	str	r7, [sp, #100]	; 0x64
   8379e:	2300      	movs	r3, #0
   837a0:	f1b9 0f00 	cmp.w	r9, #0
   837a4:	f47f ad75 	bne.w	83292 <_strtod_r+0x15a>
   837a8:	e5bb      	b.n	83322 <_strtod_r+0x1ea>
   837aa:	bf00      	nop
   837ac:	f3af 8000 	nop.w
   837b0:	ffc00000 	.word	0xffc00000
   837b4:	41dfffff 	.word	0x41dfffff
   837b8:	00088c78 	.word	0x00088c78
   837bc:	3ff00000 	.word	0x3ff00000
   837c0:	7ff00000 	.word	0x7ff00000
   837c4:	7fe00000 	.word	0x7fe00000
   837c8:	3fe00000 	.word	0x3fe00000
   837cc:	fffffbe3 	.word	0xfffffbe3
   837d0:	4602      	mov	r2, r0
   837d2:	460b      	mov	r3, r1
   837d4:	e9cd 230e 	strd	r2, r3, [sp, #56]	; 0x38
   837d8:	e7cf      	b.n	8377a <_strtod_r+0x642>
   837da:	9b04      	ldr	r3, [sp, #16]
   837dc:	e9dd 0104 	ldrd	r0, r1, [sp, #16]
   837e0:	2b00      	cmp	r3, #0
   837e2:	f040 80de 	bne.w	839a2 <_strtod_r+0x86a>
   837e6:	f3c1 0313 	ubfx	r3, r1, #0, #20
   837ea:	468c      	mov	ip, r1
   837ec:	2b00      	cmp	r3, #0
   837ee:	f040 80dc 	bne.w	839aa <_strtod_r+0x872>
   837f2:	9111      	str	r1, [sp, #68]	; 0x44
   837f4:	4620      	mov	r0, r4
   837f6:	4629      	mov	r1, r5
   837f8:	2200      	movs	r2, #0
   837fa:	4bb5      	ldr	r3, [pc, #724]	; (83ad0 <_strtod_r+0x998>)
   837fc:	f004 fd50 	bl	882a0 <__aeabi_dcmplt>
   83800:	f8dd c044 	ldr.w	ip, [sp, #68]	; 0x44
   83804:	2800      	cmp	r0, #0
   83806:	f040 8398 	bne.w	83f3a <_strtod_r+0xe02>
   8380a:	4bb2      	ldr	r3, [pc, #712]	; (83ad4 <_strtod_r+0x99c>)
   8380c:	4620      	mov	r0, r4
   8380e:	4629      	mov	r1, r5
   83810:	2200      	movs	r2, #0
   83812:	f004 fad3 	bl	87dbc <__aeabi_dmul>
   83816:	4681      	mov	r9, r0
   83818:	4688      	mov	r8, r1
   8381a:	f101 4300 	add.w	r3, r1, #2147483648	; 0x80000000
   8381e:	f8dd c044 	ldr.w	ip, [sp, #68]	; 0x44
   83822:	9016      	str	r0, [sp, #88]	; 0x58
   83824:	9317      	str	r3, [sp, #92]	; 0x5c
   83826:	e9dd 4516 	ldrd	r4, r5, [sp, #88]	; 0x58
   8382a:	e73b      	b.n	836a4 <_strtod_r+0x56c>
   8382c:	4640      	mov	r0, r8
   8382e:	46a1      	mov	r9, r4
   83830:	46c4      	mov	ip, r8
   83832:	f1a6 0230 	sub.w	r2, r6, #48	; 0x30
   83836:	2a09      	cmp	r2, #9
   83838:	d813      	bhi.n	83862 <_strtod_r+0x72a>
   8383a:	1c43      	adds	r3, r0, #1
   8383c:	4616      	mov	r6, r2
   8383e:	2a00      	cmp	r2, #0
   83840:	f040 824d 	bne.w	83cde <_strtod_r+0xba6>
   83844:	4618      	mov	r0, r3
   83846:	9b19      	ldr	r3, [sp, #100]	; 0x64
   83848:	1c5a      	adds	r2, r3, #1
   8384a:	9219      	str	r2, [sp, #100]	; 0x64
   8384c:	785e      	ldrb	r6, [r3, #1]
   8384e:	e7f0      	b.n	83832 <_strtod_r+0x6fa>
   83850:	f04f 0801 	mov.w	r8, #1
   83854:	1cbb      	adds	r3, r7, #2
   83856:	9319      	str	r3, [sp, #100]	; 0x64
   83858:	78be      	ldrb	r6, [r7, #2]
   8385a:	e597      	b.n	8338c <_strtod_r+0x254>
   8385c:	f04f 0800 	mov.w	r8, #0
   83860:	e7f8      	b.n	83854 <_strtod_r+0x71c>
   83862:	f04f 0e01 	mov.w	lr, #1
   83866:	e50c      	b.n	83282 <_strtod_r+0x14a>
   83868:	f04f 0900 	mov.w	r9, #0
   8386c:	e582      	b.n	83374 <_strtod_r+0x23c>
   8386e:	f1be 0f00 	cmp.w	lr, #0
   83872:	f47f aca5 	bne.w	831c0 <_strtod_r+0x88>
   83876:	3e49      	subs	r6, #73	; 0x49
   83878:	2e25      	cmp	r6, #37	; 0x25
   8387a:	f63f aca1 	bhi.w	831c0 <_strtod_r+0x88>
   8387e:	a301      	add	r3, pc, #4	; (adr r3, 83884 <_strtod_r+0x74c>)
   83880:	f853 f026 	ldr.w	pc, [r3, r6, lsl #2]
   83884:	00083a03 	.word	0x00083a03
   83888:	000831c1 	.word	0x000831c1
   8388c:	000831c1 	.word	0x000831c1
   83890:	000831c1 	.word	0x000831c1
   83894:	000831c1 	.word	0x000831c1
   83898:	000839cb 	.word	0x000839cb
   8389c:	000831c1 	.word	0x000831c1
   838a0:	000831c1 	.word	0x000831c1
   838a4:	000831c1 	.word	0x000831c1
   838a8:	000831c1 	.word	0x000831c1
   838ac:	000831c1 	.word	0x000831c1
   838b0:	000831c1 	.word	0x000831c1
   838b4:	000831c1 	.word	0x000831c1
   838b8:	000831c1 	.word	0x000831c1
   838bc:	000831c1 	.word	0x000831c1
   838c0:	000831c1 	.word	0x000831c1
   838c4:	000831c1 	.word	0x000831c1
   838c8:	000831c1 	.word	0x000831c1
   838cc:	000831c1 	.word	0x000831c1
   838d0:	000831c1 	.word	0x000831c1
   838d4:	000831c1 	.word	0x000831c1
   838d8:	000831c1 	.word	0x000831c1
   838dc:	000831c1 	.word	0x000831c1
   838e0:	000831c1 	.word	0x000831c1
   838e4:	000831c1 	.word	0x000831c1
   838e8:	000831c1 	.word	0x000831c1
   838ec:	000831c1 	.word	0x000831c1
   838f0:	000831c1 	.word	0x000831c1
   838f4:	000831c1 	.word	0x000831c1
   838f8:	000831c1 	.word	0x000831c1
   838fc:	000831c1 	.word	0x000831c1
   83900:	000831c1 	.word	0x000831c1
   83904:	00083a03 	.word	0x00083a03
   83908:	000831c1 	.word	0x000831c1
   8390c:	000831c1 	.word	0x000831c1
   83910:	000831c1 	.word	0x000831c1
   83914:	000831c1 	.word	0x000831c1
   83918:	000839cb 	.word	0x000839cb
   8391c:	f5b6 7f9a 	cmp.w	r6, #308	; 0x134
   83920:	f300 811c 	bgt.w	83b5c <_strtod_r+0xa24>
   83924:	1136      	asrs	r6, r6, #4
   83926:	2e01      	cmp	r6, #1
   83928:	f8df 81d0 	ldr.w	r8, [pc, #464]	; 83afc <_strtod_r+0x9c4>
   8392c:	f340 8323 	ble.w	83f76 <_strtod_r+0xe3e>
   83930:	e9dd 0104 	ldrd	r0, r1, [sp, #16]
   83934:	4647      	mov	r7, r8
   83936:	f04f 0a00 	mov.w	sl, #0
   8393a:	f016 0f01 	tst.w	r6, #1
   8393e:	f10a 0a01 	add.w	sl, sl, #1
   83942:	ea4f 0666 	mov.w	r6, r6, asr #1
   83946:	d003      	beq.n	83950 <_strtod_r+0x818>
   83948:	e9d7 2300 	ldrd	r2, r3, [r7]
   8394c:	f004 fa36 	bl	87dbc <__aeabi_dmul>
   83950:	2e01      	cmp	r6, #1
   83952:	f107 0708 	add.w	r7, r7, #8
   83956:	d1f0      	bne.n	8393a <_strtod_r+0x802>
   83958:	e9cd 0104 	strd	r0, r1, [sp, #16]
   8395c:	9b05      	ldr	r3, [sp, #20]
   8395e:	eb08 08ca 	add.w	r8, r8, sl, lsl #3
   83962:	f1a3 7354 	sub.w	r3, r3, #55574528	; 0x3500000
   83966:	9305      	str	r3, [sp, #20]
   83968:	e9dd 2304 	ldrd	r2, r3, [sp, #16]
   8396c:	e9d8 0100 	ldrd	r0, r1, [r8]
   83970:	f004 fa24 	bl	87dbc <__aeabi_dmul>
   83974:	f021 4300 	bic.w	r3, r1, #2147483648	; 0x80000000
   83978:	0d1b      	lsrs	r3, r3, #20
   8397a:	4a57      	ldr	r2, [pc, #348]	; (83ad8 <_strtod_r+0x9a0>)
   8397c:	051b      	lsls	r3, r3, #20
   8397e:	4293      	cmp	r3, r2
   83980:	e9cd 0104 	strd	r0, r1, [sp, #16]
   83984:	f200 80ea 	bhi.w	83b5c <_strtod_r+0xa24>
   83988:	f5a2 1280 	sub.w	r2, r2, #1048576	; 0x100000
   8398c:	4293      	cmp	r3, r2
   8398e:	f240 82cf 	bls.w	83f30 <_strtod_r+0xdf8>
   83992:	4b52      	ldr	r3, [pc, #328]	; (83adc <_strtod_r+0x9a4>)
   83994:	9305      	str	r3, [sp, #20]
   83996:	2300      	movs	r3, #0
   83998:	930a      	str	r3, [sp, #40]	; 0x28
   8399a:	f04f 33ff 	mov.w	r3, #4294967295
   8399e:	9304      	str	r3, [sp, #16]
   839a0:	e596      	b.n	834d0 <_strtod_r+0x398>
   839a2:	2801      	cmp	r0, #1
   839a4:	f000 81c3 	beq.w	83d2e <_strtod_r+0xbf6>
   839a8:	468c      	mov	ip, r1
   839aa:	2400      	movs	r4, #0
   839ac:	4d4c      	ldr	r5, [pc, #304]	; (83ae0 <_strtod_r+0x9a8>)
   839ae:	f04f 0900 	mov.w	r9, #0
   839b2:	f8df 811c 	ldr.w	r8, [pc, #284]	; 83ad0 <_strtod_r+0x998>
   839b6:	e675      	b.n	836a4 <_strtod_r+0x56c>
   839b8:	2e65      	cmp	r6, #101	; 0x65
   839ba:	f43f ad26 	beq.w	8340a <_strtod_r+0x2d2>
   839be:	f04f 0900 	mov.w	r9, #0
   839c2:	46cc      	mov	ip, r9
   839c4:	f04f 0e01 	mov.w	lr, #1
   839c8:	e45d      	b.n	83286 <_strtod_r+0x14e>
   839ca:	9919      	ldr	r1, [sp, #100]	; 0x64
   839cc:	4845      	ldr	r0, [pc, #276]	; (83ae4 <_strtod_r+0x9ac>)
   839ce:	e009      	b.n	839e4 <_strtod_r+0x8ac>
   839d0:	f811 3f01 	ldrb.w	r3, [r1, #1]!
   839d4:	f1a3 0441 	sub.w	r4, r3, #65	; 0x41
   839d8:	2c19      	cmp	r4, #25
   839da:	bf98      	it	ls
   839dc:	3320      	addls	r3, #32
   839de:	4293      	cmp	r3, r2
   839e0:	f47f abee 	bne.w	831c0 <_strtod_r+0x88>
   839e4:	f810 2b01 	ldrb.w	r2, [r0], #1
   839e8:	2a00      	cmp	r2, #0
   839ea:	d1f1      	bne.n	839d0 <_strtod_r+0x898>
   839ec:	1c4b      	adds	r3, r1, #1
   839ee:	9319      	str	r3, [sp, #100]	; 0x64
   839f0:	784b      	ldrb	r3, [r1, #1]
   839f2:	2b28      	cmp	r3, #40	; 0x28
   839f4:	f000 82fd 	beq.w	83ff2 <_strtod_r+0xeba>
   839f8:	4b3b      	ldr	r3, [pc, #236]	; (83ae8 <_strtod_r+0x9b0>)
   839fa:	9305      	str	r3, [sp, #20]
   839fc:	2300      	movs	r3, #0
   839fe:	9304      	str	r3, [sp, #16]
   83a00:	e51c      	b.n	8343c <_strtod_r+0x304>
   83a02:	9a19      	ldr	r2, [sp, #100]	; 0x64
   83a04:	4839      	ldr	r0, [pc, #228]	; (83aec <_strtod_r+0x9b4>)
   83a06:	e009      	b.n	83a1c <_strtod_r+0x8e4>
   83a08:	f812 3f01 	ldrb.w	r3, [r2, #1]!
   83a0c:	f1a3 0441 	sub.w	r4, r3, #65	; 0x41
   83a10:	2c19      	cmp	r4, #25
   83a12:	bf98      	it	ls
   83a14:	3320      	addls	r3, #32
   83a16:	428b      	cmp	r3, r1
   83a18:	f47f abd2 	bne.w	831c0 <_strtod_r+0x88>
   83a1c:	f810 1b01 	ldrb.w	r1, [r0], #1
   83a20:	2900      	cmp	r1, #0
   83a22:	d1f1      	bne.n	83a08 <_strtod_r+0x8d0>
   83a24:	9219      	str	r2, [sp, #100]	; 0x64
   83a26:	4615      	mov	r5, r2
   83a28:	4831      	ldr	r0, [pc, #196]	; (83af0 <_strtod_r+0x9b8>)
   83a2a:	e009      	b.n	83a40 <_strtod_r+0x908>
   83a2c:	f812 3f01 	ldrb.w	r3, [r2, #1]!
   83a30:	f1a3 0441 	sub.w	r4, r3, #65	; 0x41
   83a34:	2c19      	cmp	r4, #25
   83a36:	bf98      	it	ls
   83a38:	3320      	addls	r3, #32
   83a3a:	428b      	cmp	r3, r1
   83a3c:	f040 8298 	bne.w	83f70 <_strtod_r+0xe38>
   83a40:	f810 1b01 	ldrb.w	r1, [r0], #1
   83a44:	2900      	cmp	r1, #0
   83a46:	d1f1      	bne.n	83a2c <_strtod_r+0x8f4>
   83a48:	3201      	adds	r2, #1
   83a4a:	9219      	str	r2, [sp, #100]	; 0x64
   83a4c:	4b29      	ldr	r3, [pc, #164]	; (83af4 <_strtod_r+0x9bc>)
   83a4e:	9305      	str	r3, [sp, #20]
   83a50:	2300      	movs	r3, #0
   83a52:	9304      	str	r3, [sp, #16]
   83a54:	e4f2      	b.n	8343c <_strtod_r+0x304>
   83a56:	3101      	adds	r1, #1
   83a58:	f040 82b8 	bne.w	83fcc <_strtod_r+0xe94>
   83a5c:	981a      	ldr	r0, [sp, #104]	; 0x68
   83a5e:	4b25      	ldr	r3, [pc, #148]	; (83af4 <_strtod_r+0x9bc>)
   83a60:	2200      	movs	r2, #0
   83a62:	9305      	str	r3, [sp, #20]
   83a64:	2322      	movs	r3, #34	; 0x22
   83a66:	9204      	str	r2, [sp, #16]
   83a68:	f8cb 3000 	str.w	r3, [fp]
   83a6c:	e9dd 8904 	ldrd	r8, r9, [sp, #16]
   83a70:	4601      	mov	r1, r0
   83a72:	4658      	mov	r0, fp
   83a74:	f002 ff26 	bl	868c4 <_Bfree>
   83a78:	4658      	mov	r0, fp
   83a7a:	4651      	mov	r1, sl
   83a7c:	f002 ff22 	bl	868c4 <_Bfree>
   83a80:	4658      	mov	r0, fp
   83a82:	4639      	mov	r1, r7
   83a84:	f002 ff1e 	bl	868c4 <_Bfree>
   83a88:	4658      	mov	r0, fp
   83a8a:	9910      	ldr	r1, [sp, #64]	; 0x40
   83a8c:	f002 ff1a 	bl	868c4 <_Bfree>
   83a90:	4658      	mov	r0, fp
   83a92:	9907      	ldr	r1, [sp, #28]
   83a94:	f002 ff16 	bl	868c4 <_Bfree>
   83a98:	e44c      	b.n	83334 <_strtod_r+0x1fc>
   83a9a:	9a06      	ldr	r2, [sp, #24]
   83a9c:	ab1a      	add	r3, sp, #104	; 0x68
   83a9e:	9201      	str	r2, [sp, #4]
   83aa0:	9300      	str	r3, [sp, #0]
   83aa2:	4658      	mov	r0, fp
   83aa4:	a919      	add	r1, sp, #100	; 0x64
   83aa6:	4a14      	ldr	r2, [pc, #80]	; (83af8 <_strtod_r+0x9c0>)
   83aa8:	ab1b      	add	r3, sp, #108	; 0x6c
   83aaa:	f001 ffd9 	bl	85a60 <__gethex>
   83aae:	f010 0607 	ands.w	r6, r0, #7
   83ab2:	4605      	mov	r5, r0
   83ab4:	f43f ac3a 	beq.w	8332c <_strtod_r+0x1f4>
   83ab8:	2e06      	cmp	r6, #6
   83aba:	f040 8147 	bne.w	83d4c <_strtod_r+0xc14>
   83abe:	3401      	adds	r4, #1
   83ac0:	2300      	movs	r3, #0
   83ac2:	9419      	str	r4, [sp, #100]	; 0x64
   83ac4:	f04f 0800 	mov.w	r8, #0
   83ac8:	f04f 0900 	mov.w	r9, #0
   83acc:	9306      	str	r3, [sp, #24]
   83ace:	e431      	b.n	83334 <_strtod_r+0x1fc>
   83ad0:	3ff00000 	.word	0x3ff00000
   83ad4:	3fe00000 	.word	0x3fe00000
   83ad8:	7ca00000 	.word	0x7ca00000
   83adc:	7fefffff 	.word	0x7fefffff
   83ae0:	bff00000 	.word	0xbff00000
   83ae4:	000889d8 	.word	0x000889d8
   83ae8:	fff80000 	.word	0xfff80000
   83aec:	000889cc 	.word	0x000889cc
   83af0:	000889d0 	.word	0x000889d0
   83af4:	7ff00000 	.word	0x7ff00000
   83af8:	000889dc 	.word	0x000889dc
   83afc:	00088d50 	.word	0x00088d50
   83b00:	f1ac 7354 	sub.w	r3, ip, #55574528	; 0x3500000
   83b04:	9305      	str	r3, [sp, #20]
   83b06:	e9dd 2304 	ldrd	r2, r3, [sp, #16]
   83b0a:	4610      	mov	r0, r2
   83b0c:	4619      	mov	r1, r3
   83b0e:	f003 f9a7 	bl	86e60 <__ulp>
   83b12:	4602      	mov	r2, r0
   83b14:	460b      	mov	r3, r1
   83b16:	4620      	mov	r0, r4
   83b18:	4629      	mov	r1, r5
   83b1a:	f004 f94f 	bl	87dbc <__aeabi_dmul>
   83b1e:	4602      	mov	r2, r0
   83b20:	460b      	mov	r3, r1
   83b22:	e9dd 0104 	ldrd	r0, r1, [sp, #16]
   83b26:	f003 ff97 	bl	87a58 <__adddf3>
   83b2a:	f021 4300 	bic.w	r3, r1, #2147483648	; 0x80000000
   83b2e:	0d1b      	lsrs	r3, r3, #20
   83b30:	4ab3      	ldr	r2, [pc, #716]	; (83e00 <_strtod_r+0xcc8>)
   83b32:	051b      	lsls	r3, r3, #20
   83b34:	4293      	cmp	r3, r2
   83b36:	e9cd 0104 	strd	r0, r1, [sp, #16]
   83b3a:	e9dd 0108 	ldrd	r0, r1, [sp, #32]
   83b3e:	e9cd 0112 	strd	r0, r1, [sp, #72]	; 0x48
   83b42:	f240 80a9 	bls.w	83c98 <_strtod_r+0xb60>
   83b46:	4baf      	ldr	r3, [pc, #700]	; (83e04 <_strtod_r+0xccc>)
   83b48:	9a13      	ldr	r2, [sp, #76]	; 0x4c
   83b4a:	429a      	cmp	r2, r3
   83b4c:	f000 81eb 	beq.w	83f26 <_strtod_r+0xdee>
   83b50:	4bac      	ldr	r3, [pc, #688]	; (83e04 <_strtod_r+0xccc>)
   83b52:	9305      	str	r3, [sp, #20]
   83b54:	f04f 33ff 	mov.w	r3, #4294967295
   83b58:	9304      	str	r3, [sp, #16]
   83b5a:	e5eb      	b.n	83734 <_strtod_r+0x5fc>
   83b5c:	4baa      	ldr	r3, [pc, #680]	; (83e08 <_strtod_r+0xcd0>)
   83b5e:	2200      	movs	r2, #0
   83b60:	9305      	str	r3, [sp, #20]
   83b62:	9204      	str	r2, [sp, #16]
   83b64:	2322      	movs	r3, #34	; 0x22
   83b66:	e9dd 8904 	ldrd	r8, r9, [sp, #16]
   83b6a:	f8cb 3000 	str.w	r3, [fp]
   83b6e:	f7ff bbe1 	b.w	83334 <_strtod_r+0x1fc>
   83b72:	4641      	mov	r1, r8
   83b74:	4648      	mov	r0, r9
   83b76:	f004 fbbb 	bl	882f0 <__aeabi_d2iz>
   83b7a:	f004 f8b9 	bl	87cf0 <__aeabi_i2d>
   83b7e:	460b      	mov	r3, r1
   83b80:	4602      	mov	r2, r0
   83b82:	4641      	mov	r1, r8
   83b84:	4648      	mov	r0, r9
   83b86:	f003 ff65 	bl	87a54 <__aeabi_dsub>
   83b8a:	9b0d      	ldr	r3, [sp, #52]	; 0x34
   83b8c:	4680      	mov	r8, r0
   83b8e:	4689      	mov	r9, r1
   83b90:	b983      	cbnz	r3, 83bb4 <_strtod_r+0xa7c>
   83b92:	9b04      	ldr	r3, [sp, #16]
   83b94:	b973      	cbnz	r3, 83bb4 <_strtod_r+0xa7c>
   83b96:	f3c4 0413 	ubfx	r4, r4, #0, #20
   83b9a:	b95c      	cbnz	r4, 83bb4 <_strtod_r+0xa7c>
   83b9c:	a392      	add	r3, pc, #584	; (adr r3, 83de8 <_strtod_r+0xcb0>)
   83b9e:	e9d3 2300 	ldrd	r2, r3, [r3]
   83ba2:	f004 fb7d 	bl	882a0 <__aeabi_dcmplt>
   83ba6:	2800      	cmp	r0, #0
   83ba8:	f43f adc4 	beq.w	83734 <_strtod_r+0x5fc>
   83bac:	e9dd 8904 	ldrd	r8, r9, [sp, #16]
   83bb0:	981a      	ldr	r0, [sp, #104]	; 0x68
   83bb2:	e75d      	b.n	83a70 <_strtod_r+0x938>
   83bb4:	a38e      	add	r3, pc, #568	; (adr r3, 83df0 <_strtod_r+0xcb8>)
   83bb6:	e9d3 2300 	ldrd	r2, r3, [r3]
   83bba:	4640      	mov	r0, r8
   83bbc:	4649      	mov	r1, r9
   83bbe:	f004 fb6f 	bl	882a0 <__aeabi_dcmplt>
   83bc2:	2800      	cmp	r0, #0
   83bc4:	d1f2      	bne.n	83bac <_strtod_r+0xa74>
   83bc6:	a38c      	add	r3, pc, #560	; (adr r3, 83df8 <_strtod_r+0xcc0>)
   83bc8:	e9d3 2300 	ldrd	r2, r3, [r3]
   83bcc:	4640      	mov	r0, r8
   83bce:	4649      	mov	r1, r9
   83bd0:	f004 fb84 	bl	882dc <__aeabi_dcmpgt>
   83bd4:	2800      	cmp	r0, #0
   83bd6:	f43f adad 	beq.w	83734 <_strtod_r+0x5fc>
   83bda:	e7e7      	b.n	83bac <_strtod_r+0xa74>
   83bdc:	f43f ac76 	beq.w	834cc <_strtod_r+0x394>
   83be0:	f1c8 0700 	rsb	r7, r8, #0
   83be4:	f017 020f 	ands.w	r2, r7, #15
   83be8:	d00a      	beq.n	83c00 <_strtod_r+0xac8>
   83bea:	e9dd 0104 	ldrd	r0, r1, [sp, #16]
   83bee:	4b87      	ldr	r3, [pc, #540]	; (83e0c <_strtod_r+0xcd4>)
   83bf0:	eb03 03c2 	add.w	r3, r3, r2, lsl #3
   83bf4:	e9d3 2300 	ldrd	r2, r3, [r3]
   83bf8:	f004 fa0a 	bl	88010 <__aeabi_ddiv>
   83bfc:	e9cd 0104 	strd	r0, r1, [sp, #16]
   83c00:	113f      	asrs	r7, r7, #4
   83c02:	f43f ac63 	beq.w	834cc <_strtod_r+0x394>
   83c06:	2f1f      	cmp	r7, #31
   83c08:	dc39      	bgt.n	83c7e <_strtod_r+0xb46>
   83c0a:	f017 0310 	ands.w	r3, r7, #16
   83c0e:	f000 81e7 	beq.w	83fe0 <_strtod_r+0xea8>
   83c12:	236a      	movs	r3, #106	; 0x6a
   83c14:	2f00      	cmp	r7, #0
   83c16:	bfd8      	it	le
   83c18:	930a      	strle	r3, [sp, #40]	; 0x28
   83c1a:	dd14      	ble.n	83c46 <_strtod_r+0xb0e>
   83c1c:	e9dd 0104 	ldrd	r0, r1, [sp, #16]
   83c20:	4e7b      	ldr	r6, [pc, #492]	; (83e10 <_strtod_r+0xcd8>)
   83c22:	930a      	str	r3, [sp, #40]	; 0x28
   83c24:	f017 0f01 	tst.w	r7, #1
   83c28:	ea4f 0767 	mov.w	r7, r7, asr #1
   83c2c:	d003      	beq.n	83c36 <_strtod_r+0xafe>
   83c2e:	e9d6 2300 	ldrd	r2, r3, [r6]
   83c32:	f004 f8c3 	bl	87dbc <__aeabi_dmul>
   83c36:	2f00      	cmp	r7, #0
   83c38:	f106 0608 	add.w	r6, r6, #8
   83c3c:	dcf2      	bgt.n	83c24 <_strtod_r+0xaec>
   83c3e:	9b0a      	ldr	r3, [sp, #40]	; 0x28
   83c40:	e9cd 0104 	strd	r0, r1, [sp, #16]
   83c44:	b193      	cbz	r3, 83c6c <_strtod_r+0xb34>
   83c46:	e9dd 0104 	ldrd	r0, r1, [sp, #16]
   83c4a:	f3c1 530a 	ubfx	r3, r1, #20, #11
   83c4e:	f1c3 036b 	rsb	r3, r3, #107	; 0x6b
   83c52:	2b00      	cmp	r3, #0
   83c54:	dd0a      	ble.n	83c6c <_strtod_r+0xb34>
   83c56:	2b1f      	cmp	r3, #31
   83c58:	f340 81e8 	ble.w	8402c <_strtod_r+0xef4>
   83c5c:	2200      	movs	r2, #0
   83c5e:	2b34      	cmp	r3, #52	; 0x34
   83c60:	9204      	str	r2, [sp, #16]
   83c62:	f340 81eb 	ble.w	8403c <_strtod_r+0xf04>
   83c66:	f04f 735c 	mov.w	r3, #57671680	; 0x3700000
   83c6a:	9305      	str	r3, [sp, #20]
   83c6c:	e9dd 0104 	ldrd	r0, r1, [sp, #16]
   83c70:	2200      	movs	r2, #0
   83c72:	2300      	movs	r3, #0
   83c74:	f004 fb0a 	bl	8828c <__aeabi_dcmpeq>
   83c78:	2800      	cmp	r0, #0
   83c7a:	f43f ac29 	beq.w	834d0 <_strtod_r+0x398>
   83c7e:	2322      	movs	r3, #34	; 0x22
   83c80:	f8cb 3000 	str.w	r3, [fp]
   83c84:	f04f 0800 	mov.w	r8, #0
   83c88:	f04f 0900 	mov.w	r9, #0
   83c8c:	f7ff bb52 	b.w	83334 <_strtod_r+0x1fc>
   83c90:	f644 631f 	movw	r3, #19999	; 0x4e1f
   83c94:	f7ff bbb0 	b.w	833f8 <_strtod_r+0x2c0>
   83c98:	9b05      	ldr	r3, [sp, #20]
   83c9a:	f103 7454 	add.w	r4, r3, #55574528	; 0x3500000
   83c9e:	9405      	str	r4, [sp, #20]
   83ca0:	e541      	b.n	83726 <_strtod_r+0x5ee>
   83ca2:	9a07      	ldr	r2, [sp, #28]
   83ca4:	f1c9 0325 	rsb	r3, r9, #37	; 0x25
   83ca8:	429a      	cmp	r2, r3
   83caa:	f73f abf5 	bgt.w	83498 <_strtod_r+0x360>
   83cae:	e9dd 2304 	ldrd	r2, r3, [sp, #16]
   83cb2:	4c56      	ldr	r4, [pc, #344]	; (83e0c <_strtod_r+0xcd4>)
   83cb4:	f1c9 090f 	rsb	r9, r9, #15
   83cb8:	eb04 01c9 	add.w	r1, r4, r9, lsl #3
   83cbc:	e9d1 0100 	ldrd	r0, r1, [r1]
   83cc0:	f004 f87c 	bl	87dbc <__aeabi_dmul>
   83cc4:	9b07      	ldr	r3, [sp, #28]
   83cc6:	ebc9 0903 	rsb	r9, r9, r3
   83cca:	eb04 04c9 	add.w	r4, r4, r9, lsl #3
   83cce:	e9d4 2300 	ldrd	r2, r3, [r4]
   83cd2:	f004 f873 	bl	87dbc <__aeabi_dmul>
   83cd6:	4680      	mov	r8, r0
   83cd8:	4689      	mov	r9, r1
   83cda:	f7ff bb2b 	b.w	83334 <_strtod_r+0x1fc>
   83cde:	2b01      	cmp	r3, #1
   83ce0:	449c      	add	ip, r3
   83ce2:	d014      	beq.n	83d0e <_strtod_r+0xbd6>
   83ce4:	4448      	add	r0, r9
   83ce6:	e002      	b.n	83cee <_strtod_r+0xbb6>
   83ce8:	005d      	lsls	r5, r3, #1
   83cea:	4581      	cmp	r9, r0
   83cec:	d010      	beq.n	83d10 <_strtod_r+0xbd8>
   83cee:	f109 0901 	add.w	r9, r9, #1
   83cf2:	f109 33ff 	add.w	r3, r9, #4294967295
   83cf6:	2b08      	cmp	r3, #8
   83cf8:	eb05 0385 	add.w	r3, r5, r5, lsl #2
   83cfc:	ddf4      	ble.n	83ce8 <_strtod_r+0xbb0>
   83cfe:	f1b9 0f10 	cmp.w	r9, #16
   83d02:	bfdc      	itt	le
   83d04:	eb0a 0a8a 	addle.w	sl, sl, sl, lsl #2
   83d08:	ea4f 0a4a 	movle.w	sl, sl, lsl #1
   83d0c:	e7ed      	b.n	83cea <_strtod_r+0xbb2>
   83d0e:	4648      	mov	r0, r9
   83d10:	2808      	cmp	r0, #8
   83d12:	f100 0901 	add.w	r9, r0, #1
   83d16:	dc7f      	bgt.n	83e18 <_strtod_r+0xce0>
   83d18:	9b19      	ldr	r3, [sp, #100]	; 0x64
   83d1a:	f7ff bbb4 	b.w	83486 <_strtod_r+0x34e>
   83d1e:	464a      	mov	r2, r9
   83d20:	4643      	mov	r3, r8
   83d22:	e9cd 2314 	strd	r2, r3, [sp, #80]	; 0x50
   83d26:	e4e6      	b.n	836f6 <_strtod_r+0x5be>
   83d28:	f8df 80e8 	ldr.w	r8, [pc, #232]	; 83e14 <_strtod_r+0xcdc>
   83d2c:	e4da      	b.n	836e4 <_strtod_r+0x5ac>
   83d2e:	e9dd 2304 	ldrd	r2, r3, [sp, #16]
   83d32:	469c      	mov	ip, r3
   83d34:	2b00      	cmp	r3, #0
   83d36:	f47f ae38 	bne.w	839aa <_strtod_r+0x872>
   83d3a:	2322      	movs	r3, #34	; 0x22
   83d3c:	f8cb 3000 	str.w	r3, [fp]
   83d40:	981a      	ldr	r0, [sp, #104]	; 0x68
   83d42:	f04f 0800 	mov.w	r8, #0
   83d46:	f04f 0900 	mov.w	r9, #0
   83d4a:	e691      	b.n	83a70 <_strtod_r+0x938>
   83d4c:	9a1a      	ldr	r2, [sp, #104]	; 0x68
   83d4e:	b13a      	cbz	r2, 83d60 <_strtod_r+0xc28>
   83d50:	a81c      	add	r0, sp, #112	; 0x70
   83d52:	2135      	movs	r1, #53	; 0x35
   83d54:	f003 f98e 	bl	87074 <__copybits>
   83d58:	4658      	mov	r0, fp
   83d5a:	991a      	ldr	r1, [sp, #104]	; 0x68
   83d5c:	f002 fdb2 	bl	868c4 <_Bfree>
   83d60:	9b1b      	ldr	r3, [sp, #108]	; 0x6c
   83d62:	2e06      	cmp	r6, #6
   83d64:	f63f ab64 	bhi.w	83430 <_strtod_r+0x2f8>
   83d68:	a201      	add	r2, pc, #4	; (adr r2, 83d70 <_strtod_r+0xc38>)
   83d6a:	f852 f026 	ldr.w	pc, [r2, r6, lsl #2]
   83d6e:	bf00      	nop
   83d70:	00083dbd 	.word	0x00083dbd
   83d74:	00083da5 	.word	0x00083da5
   83d78:	00083d99 	.word	0x00083d99
   83d7c:	00083d8d 	.word	0x00083d8d
   83d80:	00083425 	.word	0x00083425
   83d84:	00083da5 	.word	0x00083da5
   83d88:	00083dbd 	.word	0x00083dbd
   83d8c:	4b1e      	ldr	r3, [pc, #120]	; (83e08 <_strtod_r+0xcd0>)
   83d8e:	9305      	str	r3, [sp, #20]
   83d90:	2300      	movs	r3, #0
   83d92:	9304      	str	r3, [sp, #16]
   83d94:	f7ff bb4c 	b.w	83430 <_strtod_r+0x2f8>
   83d98:	9b1c      	ldr	r3, [sp, #112]	; 0x70
   83d9a:	9304      	str	r3, [sp, #16]
   83d9c:	9b1d      	ldr	r3, [sp, #116]	; 0x74
   83d9e:	9305      	str	r3, [sp, #20]
   83da0:	f7ff bb46 	b.w	83430 <_strtod_r+0x2f8>
   83da4:	9a1d      	ldr	r2, [sp, #116]	; 0x74
   83da6:	991c      	ldr	r1, [sp, #112]	; 0x70
   83da8:	f203 4333 	addw	r3, r3, #1075	; 0x433
   83dac:	f422 1280 	bic.w	r2, r2, #1048576	; 0x100000
   83db0:	ea42 5303 	orr.w	r3, r2, r3, lsl #20
   83db4:	9104      	str	r1, [sp, #16]
   83db6:	9305      	str	r3, [sp, #20]
   83db8:	f7ff bb3a 	b.w	83430 <_strtod_r+0x2f8>
   83dbc:	2300      	movs	r3, #0
   83dbe:	9305      	str	r3, [sp, #20]
   83dc0:	9304      	str	r3, [sp, #16]
   83dc2:	f7ff bb35 	b.w	83430 <_strtod_r+0x2f8>
   83dc6:	3316      	adds	r3, #22
   83dc8:	f6ff ab66 	blt.w	83498 <_strtod_r+0x360>
   83dcc:	e9dd 0104 	ldrd	r0, r1, [sp, #16]
   83dd0:	9a07      	ldr	r2, [sp, #28]
   83dd2:	4b0e      	ldr	r3, [pc, #56]	; (83e0c <_strtod_r+0xcd4>)
   83dd4:	eba3 03c2 	sub.w	r3, r3, r2, lsl #3
   83dd8:	e9d3 2300 	ldrd	r2, r3, [r3]
   83ddc:	f004 f918 	bl	88010 <__aeabi_ddiv>
   83de0:	4680      	mov	r8, r0
   83de2:	4689      	mov	r9, r1
   83de4:	f7ff baa6 	b.w	83334 <_strtod_r+0x1fc>
   83de8:	94a03595 	.word	0x94a03595
   83dec:	3fcfffff 	.word	0x3fcfffff
   83df0:	94a03595 	.word	0x94a03595
   83df4:	3fdfffff 	.word	0x3fdfffff
   83df8:	35afe535 	.word	0x35afe535
   83dfc:	3fe00000 	.word	0x3fe00000
   83e00:	7c9fffff 	.word	0x7c9fffff
   83e04:	7fefffff 	.word	0x7fefffff
   83e08:	7ff00000 	.word	0x7ff00000
   83e0c:	00088c78 	.word	0x00088c78
   83e10:	00088990 	.word	0x00088990
   83e14:	3ff00000 	.word	0x3ff00000
   83e18:	f1b9 0f10 	cmp.w	r9, #16
   83e1c:	bfd7      	itett	le
   83e1e:	eb0a 0a8a 	addle.w	sl, sl, sl, lsl #2
   83e22:	9b19      	ldrgt	r3, [sp, #100]	; 0x64
   83e24:	9b19      	ldrle	r3, [sp, #100]	; 0x64
   83e26:	eb02 0a4a 	addle.w	sl, r2, sl, lsl #1
   83e2a:	2000      	movs	r0, #0
   83e2c:	e50c      	b.n	83848 <_strtod_r+0x710>
   83e2e:	9e0d      	ldr	r6, [sp, #52]	; 0x34
   83e30:	46ae      	mov	lr, r5
   83e32:	e9dd 8908 	ldrd	r8, r9, [sp, #32]
   83e36:	2e00      	cmp	r6, #0
   83e38:	f000 8088 	beq.w	83f4c <_strtod_r+0xe14>
   83e3c:	e9dd 4504 	ldrd	r4, r5, [sp, #16]
   83e40:	4b82      	ldr	r3, [pc, #520]	; (8404c <_strtod_r+0xf14>)
   83e42:	f3c5 0113 	ubfx	r1, r5, #0, #20
   83e46:	4299      	cmp	r1, r3
   83e48:	462a      	mov	r2, r5
   83e4a:	f000 80a9 	beq.w	83fa0 <_strtod_r+0xe68>
   83e4e:	9b11      	ldr	r3, [sp, #68]	; 0x44
   83e50:	2b00      	cmp	r3, #0
   83e52:	f000 8088 	beq.w	83f66 <_strtod_r+0xe2e>
   83e56:	9a05      	ldr	r2, [sp, #20]
   83e58:	4213      	tst	r3, r2
   83e5a:	d00d      	beq.n	83e78 <_strtod_r+0xd40>
   83e5c:	e9dd 0104 	ldrd	r0, r1, [sp, #16]
   83e60:	9a0a      	ldr	r2, [sp, #40]	; 0x28
   83e62:	2e00      	cmp	r6, #0
   83e64:	f000 808a 	beq.w	83f7c <_strtod_r+0xe44>
   83e68:	f7ff f944 	bl	830f4 <sulp>
   83e6c:	4642      	mov	r2, r8
   83e6e:	464b      	mov	r3, r9
   83e70:	f003 fdf2 	bl	87a58 <__adddf3>
   83e74:	4680      	mov	r8, r0
   83e76:	4689      	mov	r9, r1
   83e78:	9b0a      	ldr	r3, [sp, #40]	; 0x28
   83e7a:	b1bb      	cbz	r3, 83eac <_strtod_r+0xd74>
   83e7c:	4b74      	ldr	r3, [pc, #464]	; (84050 <_strtod_r+0xf18>)
   83e7e:	4640      	mov	r0, r8
   83e80:	9313      	str	r3, [sp, #76]	; 0x4c
   83e82:	2300      	movs	r3, #0
   83e84:	9312      	str	r3, [sp, #72]	; 0x48
   83e86:	e9dd 2312 	ldrd	r2, r3, [sp, #72]	; 0x48
   83e8a:	4649      	mov	r1, r9
   83e8c:	f003 ff96 	bl	87dbc <__aeabi_dmul>
   83e90:	4602      	mov	r2, r0
   83e92:	460b      	mov	r3, r1
   83e94:	4680      	mov	r8, r0
   83e96:	4689      	mov	r9, r1
   83e98:	e9cd 2304 	strd	r2, r3, [sp, #16]
   83e9c:	b931      	cbnz	r1, 83eac <_strtod_r+0xd74>
   83e9e:	9b04      	ldr	r3, [sp, #16]
   83ea0:	b923      	cbnz	r3, 83eac <_strtod_r+0xd74>
   83ea2:	2322      	movs	r3, #34	; 0x22
   83ea4:	981a      	ldr	r0, [sp, #104]	; 0x68
   83ea6:	f8cb 3000 	str.w	r3, [fp]
   83eaa:	e5e1      	b.n	83a70 <_strtod_r+0x938>
   83eac:	981a      	ldr	r0, [sp, #104]	; 0x68
   83eae:	e5df      	b.n	83a70 <_strtod_r+0x938>
   83eb0:	9e0d      	ldr	r6, [sp, #52]	; 0x34
   83eb2:	e9dd 8908 	ldrd	r8, r9, [sp, #32]
   83eb6:	2e00      	cmp	r6, #0
   83eb8:	d1de      	bne.n	83e78 <_strtod_r+0xd40>
   83eba:	9b04      	ldr	r3, [sp, #16]
   83ebc:	2b00      	cmp	r3, #0
   83ebe:	d1db      	bne.n	83e78 <_strtod_r+0xd40>
   83ec0:	e9dd 0104 	ldrd	r0, r1, [sp, #16]
   83ec4:	f3c1 0313 	ubfx	r3, r1, #0, #20
   83ec8:	460c      	mov	r4, r1
   83eca:	2b00      	cmp	r3, #0
   83ecc:	d1d4      	bne.n	83e78 <_strtod_r+0xd40>
   83ece:	9b05      	ldr	r3, [sp, #20]
   83ed0:	f023 4300 	bic.w	r3, r3, #2147483648	; 0x80000000
   83ed4:	0d1b      	lsrs	r3, r3, #20
   83ed6:	051b      	lsls	r3, r3, #20
   83ed8:	f1b3 6fd6 	cmp.w	r3, #112197632	; 0x6b00000
   83edc:	d9cc      	bls.n	83e78 <_strtod_r+0xd40>
   83ede:	9a07      	ldr	r2, [sp, #28]
   83ee0:	6953      	ldr	r3, [r2, #20]
   83ee2:	b913      	cbnz	r3, 83eea <_strtod_r+0xdb2>
   83ee4:	6913      	ldr	r3, [r2, #16]
   83ee6:	2b01      	cmp	r3, #1
   83ee8:	ddc6      	ble.n	83e78 <_strtod_r+0xd40>
   83eea:	9907      	ldr	r1, [sp, #28]
   83eec:	2201      	movs	r2, #1
   83eee:	4658      	mov	r0, fp
   83ef0:	f002 fec8 	bl	86c84 <__lshift>
   83ef4:	4639      	mov	r1, r7
   83ef6:	9007      	str	r0, [sp, #28]
   83ef8:	f002 ff1c 	bl	86d34 <__mcmp>
   83efc:	2800      	cmp	r0, #0
   83efe:	ddbb      	ble.n	83e78 <_strtod_r+0xd40>
   83f00:	9b0a      	ldr	r3, [sp, #40]	; 0x28
   83f02:	2b00      	cmp	r3, #0
   83f04:	f040 8087 	bne.w	84016 <_strtod_r+0xede>
   83f08:	4b52      	ldr	r3, [pc, #328]	; (84054 <_strtod_r+0xf1c>)
   83f0a:	4023      	ands	r3, r4
   83f0c:	f5a3 1380 	sub.w	r3, r3, #1048576	; 0x100000
   83f10:	ea6f 5313 	mvn.w	r3, r3, lsr #20
   83f14:	ea6f 5303 	mvn.w	r3, r3, lsl #20
   83f18:	9305      	str	r3, [sp, #20]
   83f1a:	f04f 33ff 	mov.w	r3, #4294967295
   83f1e:	9304      	str	r3, [sp, #16]
   83f20:	e9dd 8904 	ldrd	r8, r9, [sp, #16]
   83f24:	e7a8      	b.n	83e78 <_strtod_r+0xd40>
   83f26:	9b12      	ldr	r3, [sp, #72]	; 0x48
   83f28:	3301      	adds	r3, #1
   83f2a:	f47f ae11 	bne.w	83b50 <_strtod_r+0xa18>
   83f2e:	e595      	b.n	83a5c <_strtod_r+0x924>
   83f30:	f101 7354 	add.w	r3, r1, #55574528	; 0x3500000
   83f34:	9305      	str	r3, [sp, #20]
   83f36:	f7ff bac9 	b.w	834cc <_strtod_r+0x394>
   83f3a:	4b47      	ldr	r3, [pc, #284]	; (84058 <_strtod_r+0xf20>)
   83f3c:	2200      	movs	r2, #0
   83f3e:	e9cd 2316 	strd	r2, r3, [sp, #88]	; 0x58
   83f42:	f8dd 9034 	ldr.w	r9, [sp, #52]	; 0x34
   83f46:	f8df 811c 	ldr.w	r8, [pc, #284]	; 84064 <_strtod_r+0xf2c>
   83f4a:	e46c      	b.n	83826 <_strtod_r+0x6ee>
   83f4c:	e9dd 0104 	ldrd	r0, r1, [sp, #16]
   83f50:	f3c1 0313 	ubfx	r3, r1, #0, #20
   83f54:	460c      	mov	r4, r1
   83f56:	2b00      	cmp	r3, #0
   83f58:	f47f af79 	bne.w	83e4e <_strtod_r+0xd16>
   83f5c:	9b04      	ldr	r3, [sp, #16]
   83f5e:	2b00      	cmp	r3, #0
   83f60:	f47f af75 	bne.w	83e4e <_strtod_r+0xd16>
   83f64:	e7cc      	b.n	83f00 <_strtod_r+0xdc8>
   83f66:	9a04      	ldr	r2, [sp, #16]
   83f68:	ea1e 0f02 	tst.w	lr, r2
   83f6c:	d084      	beq.n	83e78 <_strtod_r+0xd40>
   83f6e:	e775      	b.n	83e5c <_strtod_r+0xd24>
   83f70:	1c6b      	adds	r3, r5, #1
   83f72:	9319      	str	r3, [sp, #100]	; 0x64
   83f74:	e56a      	b.n	83a4c <_strtod_r+0x914>
   83f76:	f04f 0a00 	mov.w	sl, #0
   83f7a:	e4ef      	b.n	8395c <_strtod_r+0x824>
   83f7c:	f7ff f8ba 	bl	830f4 <sulp>
   83f80:	4602      	mov	r2, r0
   83f82:	460b      	mov	r3, r1
   83f84:	4640      	mov	r0, r8
   83f86:	4649      	mov	r1, r9
   83f88:	f003 fd64 	bl	87a54 <__aeabi_dsub>
   83f8c:	2200      	movs	r2, #0
   83f8e:	2300      	movs	r3, #0
   83f90:	4680      	mov	r8, r0
   83f92:	4689      	mov	r9, r1
   83f94:	f004 f97a 	bl	8828c <__aeabi_dcmpeq>
   83f98:	2800      	cmp	r0, #0
   83f9a:	f47f aece 	bne.w	83d3a <_strtod_r+0xc02>
   83f9e:	e76b      	b.n	83e78 <_strtod_r+0xd40>
   83fa0:	9b0a      	ldr	r3, [sp, #40]	; 0x28
   83fa2:	9904      	ldr	r1, [sp, #16]
   83fa4:	b313      	cbz	r3, 83fec <_strtod_r+0xeb4>
   83fa6:	4b2b      	ldr	r3, [pc, #172]	; (84054 <_strtod_r+0xf1c>)
   83fa8:	402b      	ands	r3, r5
   83faa:	f1b3 6fd4 	cmp.w	r3, #111149056	; 0x6a00000
   83fae:	d81d      	bhi.n	83fec <_strtod_r+0xeb4>
   83fb0:	0d1b      	lsrs	r3, r3, #20
   83fb2:	f1c3 036b 	rsb	r3, r3, #107	; 0x6b
   83fb6:	f04f 30ff 	mov.w	r0, #4294967295
   83fba:	fa00 f303 	lsl.w	r3, r0, r3
   83fbe:	4299      	cmp	r1, r3
   83fc0:	f47f af45 	bne.w	83e4e <_strtod_r+0xd16>
   83fc4:	4b25      	ldr	r3, [pc, #148]	; (8405c <_strtod_r+0xf24>)
   83fc6:	429a      	cmp	r2, r3
   83fc8:	f43f ad45 	beq.w	83a56 <_strtod_r+0x91e>
   83fcc:	4b21      	ldr	r3, [pc, #132]	; (84054 <_strtod_r+0xf1c>)
   83fce:	4013      	ands	r3, r2
   83fd0:	f503 1380 	add.w	r3, r3, #1048576	; 0x100000
   83fd4:	9305      	str	r3, [sp, #20]
   83fd6:	2300      	movs	r3, #0
   83fd8:	9304      	str	r3, [sp, #16]
   83fda:	e9dd 8904 	ldrd	r8, r9, [sp, #16]
   83fde:	e74b      	b.n	83e78 <_strtod_r+0xd40>
   83fe0:	2f00      	cmp	r7, #0
   83fe2:	bfd8      	it	le
   83fe4:	930a      	strle	r3, [sp, #40]	; 0x28
   83fe6:	f73f ae19 	bgt.w	83c1c <_strtod_r+0xae4>
   83fea:	e63f      	b.n	83c6c <_strtod_r+0xb34>
   83fec:	f04f 33ff 	mov.w	r3, #4294967295
   83ff0:	e7e5      	b.n	83fbe <_strtod_r+0xe86>
   83ff2:	a819      	add	r0, sp, #100	; 0x64
   83ff4:	491a      	ldr	r1, [pc, #104]	; (84060 <_strtod_r+0xf28>)
   83ff6:	aa1c      	add	r2, sp, #112	; 0x70
   83ff8:	f001 ffbc 	bl	85f74 <__hexnan>
   83ffc:	2805      	cmp	r0, #5
   83ffe:	f47f acfb 	bne.w	839f8 <_strtod_r+0x8c0>
   84002:	9b1d      	ldr	r3, [sp, #116]	; 0x74
   84004:	f043 43ff 	orr.w	r3, r3, #2139095040	; 0x7f800000
   84008:	f443 03e0 	orr.w	r3, r3, #7340032	; 0x700000
   8400c:	9305      	str	r3, [sp, #20]
   8400e:	9b1c      	ldr	r3, [sp, #112]	; 0x70
   84010:	9304      	str	r3, [sp, #16]
   84012:	f7ff ba13 	b.w	8343c <_strtod_r+0x304>
   84016:	4b0f      	ldr	r3, [pc, #60]	; (84054 <_strtod_r+0xf1c>)
   84018:	4023      	ands	r3, r4
   8401a:	f1b3 6fd6 	cmp.w	r3, #112197632	; 0x6b00000
   8401e:	f73f af75 	bgt.w	83f0c <_strtod_r+0xdd4>
   84022:	f1b3 7f5c 	cmp.w	r3, #57671680	; 0x3700000
   84026:	f73f af29 	bgt.w	83e7c <_strtod_r+0xd44>
   8402a:	e686      	b.n	83d3a <_strtod_r+0xc02>
   8402c:	f04f 32ff 	mov.w	r2, #4294967295
   84030:	fa02 f303 	lsl.w	r3, r2, r3
   84034:	9a04      	ldr	r2, [sp, #16]
   84036:	401a      	ands	r2, r3
   84038:	9204      	str	r2, [sp, #16]
   8403a:	e617      	b.n	83c6c <_strtod_r+0xb34>
   8403c:	3b20      	subs	r3, #32
   8403e:	f04f 32ff 	mov.w	r2, #4294967295
   84042:	fa02 f303 	lsl.w	r3, r2, r3
   84046:	400b      	ands	r3, r1
   84048:	9305      	str	r3, [sp, #20]
   8404a:	e60f      	b.n	83c6c <_strtod_r+0xb34>
   8404c:	000fffff 	.word	0x000fffff
   84050:	39500000 	.word	0x39500000
   84054:	7ff00000 	.word	0x7ff00000
   84058:	bfe00000 	.word	0xbfe00000
   8405c:	7fefffff 	.word	0x7fefffff
   84060:	000889b8 	.word	0x000889b8
   84064:	3fe00000 	.word	0x3fe00000

00084068 <strtod>:
   84068:	4b02      	ldr	r3, [pc, #8]	; (84074 <strtod+0xc>)
   8406a:	460a      	mov	r2, r1
   8406c:	4601      	mov	r1, r0
   8406e:	6818      	ldr	r0, [r3, #0]
   84070:	f7ff b862 	b.w	83138 <_strtod_r>
   84074:	20070530 	.word	0x20070530

00084078 <_strtol_r>:
   84078:	e92d 4ff0 	stmdb	sp!, {r4, r5, r6, r7, r8, r9, sl, fp, lr}
   8407c:	4c44      	ldr	r4, [pc, #272]	; (84190 <_strtol_r+0x118>)
   8407e:	4683      	mov	fp, r0
   84080:	460e      	mov	r6, r1
   84082:	f8d4 e000 	ldr.w	lr, [r4]
   84086:	e000      	b.n	8408a <_strtol_r+0x12>
   84088:	4626      	mov	r6, r4
   8408a:	4634      	mov	r4, r6
   8408c:	f814 5b01 	ldrb.w	r5, [r4], #1
   84090:	eb0e 0005 	add.w	r0, lr, r5
   84094:	7840      	ldrb	r0, [r0, #1]
   84096:	f000 0008 	and.w	r0, r0, #8
   8409a:	f000 08ff 	and.w	r8, r0, #255	; 0xff
   8409e:	2800      	cmp	r0, #0
   840a0:	d1f2      	bne.n	84088 <_strtol_r+0x10>
   840a2:	2d2d      	cmp	r5, #45	; 0x2d
   840a4:	d04b      	beq.n	8413e <_strtol_r+0xc6>
   840a6:	2d2b      	cmp	r5, #43	; 0x2b
   840a8:	bf04      	itt	eq
   840aa:	7875      	ldrbeq	r5, [r6, #1]
   840ac:	1cb4      	addeq	r4, r6, #2
   840ae:	b11b      	cbz	r3, 840b8 <_strtol_r+0x40>
   840b0:	2b10      	cmp	r3, #16
   840b2:	d060      	beq.n	84176 <_strtol_r+0xfe>
   840b4:	469a      	mov	sl, r3
   840b6:	e003      	b.n	840c0 <_strtol_r+0x48>
   840b8:	2d30      	cmp	r5, #48	; 0x30
   840ba:	d054      	beq.n	84166 <_strtol_r+0xee>
   840bc:	230a      	movs	r3, #10
   840be:	469a      	mov	sl, r3
   840c0:	f1b8 0f00 	cmp.w	r8, #0
   840c4:	bf14      	ite	ne
   840c6:	f04f 4000 	movne.w	r0, #2147483648	; 0x80000000
   840ca:	f06f 4000 	mvneq.w	r0, #2147483648	; 0x80000000
   840ce:	fbb0 f9fa 	udiv	r9, r0, sl
   840d2:	2700      	movs	r7, #0
   840d4:	46bc      	mov	ip, r7
   840d6:	fb0a 0019 	mls	r0, sl, r9, r0
   840da:	e00c      	b.n	840f6 <_strtol_r+0x7e>
   840dc:	3d30      	subs	r5, #48	; 0x30
   840de:	42ab      	cmp	r3, r5
   840e0:	dd19      	ble.n	84116 <_strtol_r+0x9e>
   840e2:	1c7e      	adds	r6, r7, #1
   840e4:	d005      	beq.n	840f2 <_strtol_r+0x7a>
   840e6:	45cc      	cmp	ip, r9
   840e8:	d824      	bhi.n	84134 <_strtol_r+0xbc>
   840ea:	d021      	beq.n	84130 <_strtol_r+0xb8>
   840ec:	fb0a 5c0c 	mla	ip, sl, ip, r5
   840f0:	2701      	movs	r7, #1
   840f2:	f814 5b01 	ldrb.w	r5, [r4], #1
   840f6:	eb0e 0605 	add.w	r6, lr, r5
   840fa:	7876      	ldrb	r6, [r6, #1]
   840fc:	f016 0f04 	tst.w	r6, #4
   84100:	d1ec      	bne.n	840dc <_strtol_r+0x64>
   84102:	f016 0603 	ands.w	r6, r6, #3
   84106:	d006      	beq.n	84116 <_strtol_r+0x9e>
   84108:	2e01      	cmp	r6, #1
   8410a:	bf0c      	ite	eq
   8410c:	2637      	moveq	r6, #55	; 0x37
   8410e:	2657      	movne	r6, #87	; 0x57
   84110:	1bad      	subs	r5, r5, r6
   84112:	42ab      	cmp	r3, r5
   84114:	dce5      	bgt.n	840e2 <_strtol_r+0x6a>
   84116:	1c7b      	adds	r3, r7, #1
   84118:	d016      	beq.n	84148 <_strtol_r+0xd0>
   8411a:	f1c8 0000 	rsb	r0, r8, #0
   8411e:	ea8c 0000 	eor.w	r0, ip, r0
   84122:	4440      	add	r0, r8
   84124:	b14a      	cbz	r2, 8413a <_strtol_r+0xc2>
   84126:	b107      	cbz	r7, 8412a <_strtol_r+0xb2>
   84128:	1e61      	subs	r1, r4, #1
   8412a:	6011      	str	r1, [r2, #0]
   8412c:	e8bd 8ff0 	ldmia.w	sp!, {r4, r5, r6, r7, r8, r9, sl, fp, pc}
   84130:	4285      	cmp	r5, r0
   84132:	dddb      	ble.n	840ec <_strtol_r+0x74>
   84134:	f04f 37ff 	mov.w	r7, #4294967295
   84138:	e7db      	b.n	840f2 <_strtol_r+0x7a>
   8413a:	e8bd 8ff0 	ldmia.w	sp!, {r4, r5, r6, r7, r8, r9, sl, fp, pc}
   8413e:	1cb4      	adds	r4, r6, #2
   84140:	7875      	ldrb	r5, [r6, #1]
   84142:	f04f 0801 	mov.w	r8, #1
   84146:	e7b2      	b.n	840ae <_strtol_r+0x36>
   84148:	f1b8 0f00 	cmp.w	r8, #0
   8414c:	f04f 0322 	mov.w	r3, #34	; 0x22
   84150:	bf14      	ite	ne
   84152:	f04f 4000 	movne.w	r0, #2147483648	; 0x80000000
   84156:	f06f 4000 	mvneq.w	r0, #2147483648	; 0x80000000
   8415a:	f8cb 3000 	str.w	r3, [fp]
   8415e:	2a00      	cmp	r2, #0
   84160:	d1e2      	bne.n	84128 <_strtol_r+0xb0>
   84162:	e8bd 8ff0 	ldmia.w	sp!, {r4, r5, r6, r7, r8, r9, sl, fp, pc}
   84166:	7823      	ldrb	r3, [r4, #0]
   84168:	f003 03df 	and.w	r3, r3, #223	; 0xdf
   8416c:	2b58      	cmp	r3, #88	; 0x58
   8416e:	d009      	beq.n	84184 <_strtol_r+0x10c>
   84170:	2308      	movs	r3, #8
   84172:	469a      	mov	sl, r3
   84174:	e7a4      	b.n	840c0 <_strtol_r+0x48>
   84176:	2d30      	cmp	r5, #48	; 0x30
   84178:	d19c      	bne.n	840b4 <_strtol_r+0x3c>
   8417a:	7820      	ldrb	r0, [r4, #0]
   8417c:	f000 00df 	and.w	r0, r0, #223	; 0xdf
   84180:	2858      	cmp	r0, #88	; 0x58
   84182:	d197      	bne.n	840b4 <_strtol_r+0x3c>
   84184:	f04f 0a10 	mov.w	sl, #16
   84188:	7865      	ldrb	r5, [r4, #1]
   8418a:	4653      	mov	r3, sl
   8418c:	3402      	adds	r4, #2
   8418e:	e797      	b.n	840c0 <_strtol_r+0x48>
   84190:	20070534 	.word	0x20070534

00084194 <strtol>:
   84194:	b430      	push	{r4, r5}
   84196:	460d      	mov	r5, r1
   84198:	4c03      	ldr	r4, [pc, #12]	; (841a8 <strtol+0x14>)
   8419a:	4613      	mov	r3, r2
   8419c:	4601      	mov	r1, r0
   8419e:	462a      	mov	r2, r5
   841a0:	6820      	ldr	r0, [r4, #0]
   841a2:	bc30      	pop	{r4, r5}
   841a4:	f7ff bf68 	b.w	84078 <_strtol_r>
   841a8:	20070530 	.word	0x20070530

000841ac <__utoa>:
   841ac:	b5f0      	push	{r4, r5, r6, r7, lr}
   841ae:	b08b      	sub	sp, #44	; 0x2c
   841b0:	466f      	mov	r7, sp
   841b2:	4615      	mov	r5, r2
   841b4:	f8df e070 	ldr.w	lr, [pc, #112]	; 84228 <__utoa+0x7c>
   841b8:	4604      	mov	r4, r0
   841ba:	460e      	mov	r6, r1
   841bc:	e8be 000f 	ldmia.w	lr!, {r0, r1, r2, r3}
   841c0:	c70f      	stmia	r7!, {r0, r1, r2, r3}
   841c2:	e8be 000f 	ldmia.w	lr!, {r0, r1, r2, r3}
   841c6:	c70f      	stmia	r7!, {r0, r1, r2, r3}
   841c8:	e89e 0003 	ldmia.w	lr, {r0, r1}
   841cc:	1eab      	subs	r3, r5, #2
   841ce:	f847 0b04 	str.w	r0, [r7], #4
   841d2:	2b22      	cmp	r3, #34	; 0x22
   841d4:	7039      	strb	r1, [r7, #0]
   841d6:	d822      	bhi.n	8421e <__utoa+0x72>
   841d8:	1e71      	subs	r1, r6, #1
   841da:	4608      	mov	r0, r1
   841dc:	2300      	movs	r3, #0
   841de:	e000      	b.n	841e2 <__utoa+0x36>
   841e0:	4613      	mov	r3, r2
   841e2:	fbb4 f2f5 	udiv	r2, r4, r5
   841e6:	fb05 4412 	mls	r4, r5, r2, r4
   841ea:	af0a      	add	r7, sp, #40	; 0x28
   841ec:	443c      	add	r4, r7
   841ee:	f814 7c28 	ldrb.w	r7, [r4, #-40]
   841f2:	4614      	mov	r4, r2
   841f4:	f800 7f01 	strb.w	r7, [r0, #1]!
   841f8:	1c5a      	adds	r2, r3, #1
   841fa:	2c00      	cmp	r4, #0
   841fc:	d1f0      	bne.n	841e0 <__utoa+0x34>
   841fe:	54b4      	strb	r4, [r6, r2]
   84200:	18f2      	adds	r2, r6, r3
   84202:	b14b      	cbz	r3, 84218 <__utoa+0x6c>
   84204:	3401      	adds	r4, #1
   84206:	f811 5f01 	ldrb.w	r5, [r1, #1]!
   8420a:	7817      	ldrb	r7, [r2, #0]
   8420c:	1b18      	subs	r0, r3, r4
   8420e:	4284      	cmp	r4, r0
   84210:	700f      	strb	r7, [r1, #0]
   84212:	f802 5901 	strb.w	r5, [r2], #-1
   84216:	dbf5      	blt.n	84204 <__utoa+0x58>
   84218:	4630      	mov	r0, r6
   8421a:	b00b      	add	sp, #44	; 0x2c
   8421c:	bdf0      	pop	{r4, r5, r6, r7, pc}
   8421e:	2000      	movs	r0, #0
   84220:	7030      	strb	r0, [r6, #0]
   84222:	b00b      	add	sp, #44	; 0x2c
   84224:	bdf0      	pop	{r4, r5, r6, r7, pc}
   84226:	bf00      	nop
   84228:	000889f0 	.word	0x000889f0

0008422c <__sprint_r.part.0>:
   8422c:	6e4b      	ldr	r3, [r1, #100]	; 0x64
   8422e:	e92d 47f0 	stmdb	sp!, {r4, r5, r6, r7, r8, r9, sl, lr}
   84232:	049c      	lsls	r4, r3, #18
   84234:	460f      	mov	r7, r1
   84236:	4692      	mov	sl, r2
   84238:	d52b      	bpl.n	84292 <__sprint_r.part.0+0x66>
   8423a:	6893      	ldr	r3, [r2, #8]
   8423c:	6812      	ldr	r2, [r2, #0]
   8423e:	b333      	cbz	r3, 8428e <__sprint_r.part.0+0x62>
   84240:	4680      	mov	r8, r0
   84242:	f102 0908 	add.w	r9, r2, #8
   84246:	e919 0060 	ldmdb	r9, {r5, r6}
   8424a:	08b6      	lsrs	r6, r6, #2
   8424c:	d017      	beq.n	8427e <__sprint_r.part.0+0x52>
   8424e:	3d04      	subs	r5, #4
   84250:	2400      	movs	r4, #0
   84252:	e001      	b.n	84258 <__sprint_r.part.0+0x2c>
   84254:	42a6      	cmp	r6, r4
   84256:	d010      	beq.n	8427a <__sprint_r.part.0+0x4e>
   84258:	4640      	mov	r0, r8
   8425a:	f855 1f04 	ldr.w	r1, [r5, #4]!
   8425e:	463a      	mov	r2, r7
   84260:	f001 f89a 	bl	85398 <_fputwc_r>
   84264:	1c43      	adds	r3, r0, #1
   84266:	f104 0401 	add.w	r4, r4, #1
   8426a:	d1f3      	bne.n	84254 <__sprint_r.part.0+0x28>
   8426c:	2300      	movs	r3, #0
   8426e:	f8ca 3008 	str.w	r3, [sl, #8]
   84272:	f8ca 3004 	str.w	r3, [sl, #4]
   84276:	e8bd 87f0 	ldmia.w	sp!, {r4, r5, r6, r7, r8, r9, sl, pc}
   8427a:	f8da 3008 	ldr.w	r3, [sl, #8]
   8427e:	eba3 0386 	sub.w	r3, r3, r6, lsl #2
   84282:	f8ca 3008 	str.w	r3, [sl, #8]
   84286:	f109 0908 	add.w	r9, r9, #8
   8428a:	2b00      	cmp	r3, #0
   8428c:	d1db      	bne.n	84246 <__sprint_r.part.0+0x1a>
   8428e:	2000      	movs	r0, #0
   84290:	e7ec      	b.n	8426c <__sprint_r.part.0+0x40>
   84292:	f001 f9b9 	bl	85608 <__sfvwrite_r>
   84296:	2300      	movs	r3, #0
   84298:	f8ca 3008 	str.w	r3, [sl, #8]
   8429c:	f8ca 3004 	str.w	r3, [sl, #4]
   842a0:	e8bd 87f0 	ldmia.w	sp!, {r4, r5, r6, r7, r8, r9, sl, pc}

000842a4 <_vfiprintf_r>:
   842a4:	e92d 4ff0 	stmdb	sp!, {r4, r5, r6, r7, r8, r9, sl, fp, lr}
   842a8:	b0ab      	sub	sp, #172	; 0xac
   842aa:	461c      	mov	r4, r3
   842ac:	9100      	str	r1, [sp, #0]
   842ae:	4693      	mov	fp, r2
   842b0:	9304      	str	r3, [sp, #16]
   842b2:	9001      	str	r0, [sp, #4]
   842b4:	b118      	cbz	r0, 842be <_vfiprintf_r+0x1a>
   842b6:	6b83      	ldr	r3, [r0, #56]	; 0x38
   842b8:	2b00      	cmp	r3, #0
   842ba:	f000 80e3 	beq.w	84484 <_vfiprintf_r+0x1e0>
   842be:	9b00      	ldr	r3, [sp, #0]
   842c0:	8999      	ldrh	r1, [r3, #12]
   842c2:	b28a      	uxth	r2, r1
   842c4:	0490      	lsls	r0, r2, #18
   842c6:	d408      	bmi.n	842da <_vfiprintf_r+0x36>
   842c8:	4618      	mov	r0, r3
   842ca:	6e5b      	ldr	r3, [r3, #100]	; 0x64
   842cc:	f441 5200 	orr.w	r2, r1, #8192	; 0x2000
   842d0:	f423 5300 	bic.w	r3, r3, #8192	; 0x2000
   842d4:	8182      	strh	r2, [r0, #12]
   842d6:	6643      	str	r3, [r0, #100]	; 0x64
   842d8:	b292      	uxth	r2, r2
   842da:	0711      	lsls	r1, r2, #28
   842dc:	f140 80b2 	bpl.w	84444 <_vfiprintf_r+0x1a0>
   842e0:	9b00      	ldr	r3, [sp, #0]
   842e2:	691b      	ldr	r3, [r3, #16]
   842e4:	2b00      	cmp	r3, #0
   842e6:	f000 80ad 	beq.w	84444 <_vfiprintf_r+0x1a0>
   842ea:	f002 021a 	and.w	r2, r2, #26
   842ee:	2a0a      	cmp	r2, #10
   842f0:	f000 80b4 	beq.w	8445c <_vfiprintf_r+0x1b8>
   842f4:	f10d 0a68 	add.w	sl, sp, #104	; 0x68
   842f8:	4654      	mov	r4, sl
   842fa:	2300      	movs	r3, #0
   842fc:	9309      	str	r3, [sp, #36]	; 0x24
   842fe:	9302      	str	r3, [sp, #8]
   84300:	930f      	str	r3, [sp, #60]	; 0x3c
   84302:	930e      	str	r3, [sp, #56]	; 0x38
   84304:	f8cd a034 	str.w	sl, [sp, #52]	; 0x34
   84308:	f89b 3000 	ldrb.w	r3, [fp]
   8430c:	2b00      	cmp	r3, #0
   8430e:	f000 84a3 	beq.w	84c58 <_vfiprintf_r+0x9b4>
   84312:	2b25      	cmp	r3, #37	; 0x25
   84314:	f000 84a0 	beq.w	84c58 <_vfiprintf_r+0x9b4>
   84318:	465a      	mov	r2, fp
   8431a:	e001      	b.n	84320 <_vfiprintf_r+0x7c>
   8431c:	2b25      	cmp	r3, #37	; 0x25
   8431e:	d003      	beq.n	84328 <_vfiprintf_r+0x84>
   84320:	f812 3f01 	ldrb.w	r3, [r2, #1]!
   84324:	2b00      	cmp	r3, #0
   84326:	d1f9      	bne.n	8431c <_vfiprintf_r+0x78>
   84328:	ebcb 0602 	rsb	r6, fp, r2
   8432c:	4615      	mov	r5, r2
   8432e:	b196      	cbz	r6, 84356 <_vfiprintf_r+0xb2>
   84330:	9b0e      	ldr	r3, [sp, #56]	; 0x38
   84332:	9a0f      	ldr	r2, [sp, #60]	; 0x3c
   84334:	3301      	adds	r3, #1
   84336:	4432      	add	r2, r6
   84338:	2b07      	cmp	r3, #7
   8433a:	f8c4 b000 	str.w	fp, [r4]
   8433e:	6066      	str	r6, [r4, #4]
   84340:	920f      	str	r2, [sp, #60]	; 0x3c
   84342:	930e      	str	r3, [sp, #56]	; 0x38
   84344:	dd79      	ble.n	8443a <_vfiprintf_r+0x196>
   84346:	2a00      	cmp	r2, #0
   84348:	f040 84ad 	bne.w	84ca6 <_vfiprintf_r+0xa02>
   8434c:	4654      	mov	r4, sl
   8434e:	9b02      	ldr	r3, [sp, #8]
   84350:	920e      	str	r2, [sp, #56]	; 0x38
   84352:	4433      	add	r3, r6
   84354:	9302      	str	r3, [sp, #8]
   84356:	782b      	ldrb	r3, [r5, #0]
   84358:	2b00      	cmp	r3, #0
   8435a:	f000 835f 	beq.w	84a1c <_vfiprintf_r+0x778>
   8435e:	f04f 0300 	mov.w	r3, #0
   84362:	2100      	movs	r1, #0
   84364:	f04f 3cff 	mov.w	ip, #4294967295
   84368:	f88d 302f 	strb.w	r3, [sp, #47]	; 0x2f
   8436c:	1c68      	adds	r0, r5, #1
   8436e:	786b      	ldrb	r3, [r5, #1]
   84370:	4688      	mov	r8, r1
   84372:	460d      	mov	r5, r1
   84374:	4666      	mov	r6, ip
   84376:	f100 0b01 	add.w	fp, r0, #1
   8437a:	f1a3 0220 	sub.w	r2, r3, #32
   8437e:	2a58      	cmp	r2, #88	; 0x58
   84380:	f200 82aa 	bhi.w	848d8 <_vfiprintf_r+0x634>
   84384:	e8df f012 	tbh	[pc, r2, lsl #1]
   84388:	02a8029a 	.word	0x02a8029a
   8438c:	02a202a8 	.word	0x02a202a8
   84390:	02a802a8 	.word	0x02a802a8
   84394:	02a802a8 	.word	0x02a802a8
   84398:	02a802a8 	.word	0x02a802a8
   8439c:	02600254 	.word	0x02600254
   843a0:	010d02a8 	.word	0x010d02a8
   843a4:	02a8026c 	.word	0x02a8026c
   843a8:	012f0129 	.word	0x012f0129
   843ac:	012f012f 	.word	0x012f012f
   843b0:	012f012f 	.word	0x012f012f
   843b4:	012f012f 	.word	0x012f012f
   843b8:	012f012f 	.word	0x012f012f
   843bc:	02a802a8 	.word	0x02a802a8
   843c0:	02a802a8 	.word	0x02a802a8
   843c4:	02a802a8 	.word	0x02a802a8
   843c8:	02a802a8 	.word	0x02a802a8
   843cc:	02a802a8 	.word	0x02a802a8
   843d0:	02a8013d 	.word	0x02a8013d
   843d4:	02a802a8 	.word	0x02a802a8
   843d8:	02a802a8 	.word	0x02a802a8
   843dc:	02a802a8 	.word	0x02a802a8
   843e0:	02a802a8 	.word	0x02a802a8
   843e4:	017402a8 	.word	0x017402a8
   843e8:	02a802a8 	.word	0x02a802a8
   843ec:	02a802a8 	.word	0x02a802a8
   843f0:	018b02a8 	.word	0x018b02a8
   843f4:	02a802a8 	.word	0x02a802a8
   843f8:	02a801a3 	.word	0x02a801a3
   843fc:	02a802a8 	.word	0x02a802a8
   84400:	02a802a8 	.word	0x02a802a8
   84404:	02a802a8 	.word	0x02a802a8
   84408:	02a802a8 	.word	0x02a802a8
   8440c:	01c702a8 	.word	0x01c702a8
   84410:	02a801da 	.word	0x02a801da
   84414:	02a802a8 	.word	0x02a802a8
   84418:	01da0123 	.word	0x01da0123
   8441c:	02a802a8 	.word	0x02a802a8
   84420:	02a8024b 	.word	0x02a8024b
   84424:	01130288 	.word	0x01130288
   84428:	020701f4 	.word	0x020701f4
   8442c:	020d02a8 	.word	0x020d02a8
   84430:	008102a8 	.word	0x008102a8
   84434:	02a802a8 	.word	0x02a802a8
   84438:	0232      	.short	0x0232
   8443a:	3408      	adds	r4, #8
   8443c:	9b02      	ldr	r3, [sp, #8]
   8443e:	4433      	add	r3, r6
   84440:	9302      	str	r3, [sp, #8]
   84442:	e788      	b.n	84356 <_vfiprintf_r+0xb2>
   84444:	9801      	ldr	r0, [sp, #4]
   84446:	9900      	ldr	r1, [sp, #0]
   84448:	f000 fd72 	bl	84f30 <__swsetup_r>
   8444c:	b9a8      	cbnz	r0, 8447a <_vfiprintf_r+0x1d6>
   8444e:	9b00      	ldr	r3, [sp, #0]
   84450:	899a      	ldrh	r2, [r3, #12]
   84452:	f002 021a 	and.w	r2, r2, #26
   84456:	2a0a      	cmp	r2, #10
   84458:	f47f af4c 	bne.w	842f4 <_vfiprintf_r+0x50>
   8445c:	9b00      	ldr	r3, [sp, #0]
   8445e:	f9b3 300e 	ldrsh.w	r3, [r3, #14]
   84462:	2b00      	cmp	r3, #0
   84464:	f6ff af46 	blt.w	842f4 <_vfiprintf_r+0x50>
   84468:	9801      	ldr	r0, [sp, #4]
   8446a:	9900      	ldr	r1, [sp, #0]
   8446c:	465a      	mov	r2, fp
   8446e:	4623      	mov	r3, r4
   84470:	f000 fd20 	bl	84eb4 <__sbprintf>
   84474:	b02b      	add	sp, #172	; 0xac
   84476:	e8bd 8ff0 	ldmia.w	sp!, {r4, r5, r6, r7, r8, r9, sl, fp, pc}
   8447a:	f04f 30ff 	mov.w	r0, #4294967295
   8447e:	b02b      	add	sp, #172	; 0xac
   84480:	e8bd 8ff0 	ldmia.w	sp!, {r4, r5, r6, r7, r8, r9, sl, fp, pc}
   84484:	f000 ff10 	bl	852a8 <__sinit>
   84488:	e719      	b.n	842be <_vfiprintf_r+0x1a>
   8448a:	f018 0f20 	tst.w	r8, #32
   8448e:	9503      	str	r5, [sp, #12]
   84490:	46b4      	mov	ip, r6
   84492:	f000 810c 	beq.w	846ae <_vfiprintf_r+0x40a>
   84496:	9b04      	ldr	r3, [sp, #16]
   84498:	3307      	adds	r3, #7
   8449a:	f023 0307 	bic.w	r3, r3, #7
   8449e:	f103 0208 	add.w	r2, r3, #8
   844a2:	e9d3 6700 	ldrd	r6, r7, [r3]
   844a6:	9204      	str	r2, [sp, #16]
   844a8:	2301      	movs	r3, #1
   844aa:	f04f 0200 	mov.w	r2, #0
   844ae:	46e1      	mov	r9, ip
   844b0:	f88d 202f 	strb.w	r2, [sp, #47]	; 0x2f
   844b4:	2500      	movs	r5, #0
   844b6:	f1bc 0f00 	cmp.w	ip, #0
   844ba:	bfa8      	it	ge
   844bc:	f028 0880 	bicge.w	r8, r8, #128	; 0x80
   844c0:	ea56 0207 	orrs.w	r2, r6, r7
   844c4:	f040 80c4 	bne.w	84650 <_vfiprintf_r+0x3ac>
   844c8:	f1bc 0f00 	cmp.w	ip, #0
   844cc:	f000 8380 	beq.w	84bd0 <_vfiprintf_r+0x92c>
   844d0:	2b01      	cmp	r3, #1
   844d2:	f000 80c5 	beq.w	84660 <_vfiprintf_r+0x3bc>
   844d6:	2b02      	cmp	r3, #2
   844d8:	f000 8386 	beq.w	84be8 <_vfiprintf_r+0x944>
   844dc:	4651      	mov	r1, sl
   844de:	08f2      	lsrs	r2, r6, #3
   844e0:	ea42 7247 	orr.w	r2, r2, r7, lsl #29
   844e4:	08f8      	lsrs	r0, r7, #3
   844e6:	f006 0307 	and.w	r3, r6, #7
   844ea:	4607      	mov	r7, r0
   844ec:	4616      	mov	r6, r2
   844ee:	3330      	adds	r3, #48	; 0x30
   844f0:	ea56 0207 	orrs.w	r2, r6, r7
   844f4:	f801 3d01 	strb.w	r3, [r1, #-1]!
   844f8:	d1f1      	bne.n	844de <_vfiprintf_r+0x23a>
   844fa:	f018 0f01 	tst.w	r8, #1
   844fe:	9107      	str	r1, [sp, #28]
   84500:	f040 83fa 	bne.w	84cf8 <_vfiprintf_r+0xa54>
   84504:	ebc1 090a 	rsb	r9, r1, sl
   84508:	45e1      	cmp	r9, ip
   8450a:	464e      	mov	r6, r9
   8450c:	bfb8      	it	lt
   8450e:	4666      	movlt	r6, ip
   84510:	b105      	cbz	r5, 84514 <_vfiprintf_r+0x270>
   84512:	3601      	adds	r6, #1
   84514:	f018 0302 	ands.w	r3, r8, #2
   84518:	9305      	str	r3, [sp, #20]
   8451a:	bf18      	it	ne
   8451c:	3602      	addne	r6, #2
   8451e:	f018 0384 	ands.w	r3, r8, #132	; 0x84
   84522:	9306      	str	r3, [sp, #24]
   84524:	f040 81f9 	bne.w	8491a <_vfiprintf_r+0x676>
   84528:	9b03      	ldr	r3, [sp, #12]
   8452a:	1b9d      	subs	r5, r3, r6
   8452c:	2d00      	cmp	r5, #0
   8452e:	f340 81f4 	ble.w	8491a <_vfiprintf_r+0x676>
   84532:	2d10      	cmp	r5, #16
   84534:	f340 848a 	ble.w	84e4c <_vfiprintf_r+0xba8>
   84538:	4620      	mov	r0, r4
   8453a:	f8dd e038 	ldr.w	lr, [sp, #56]	; 0x38
   8453e:	4664      	mov	r4, ip
   84540:	9a0f      	ldr	r2, [sp, #60]	; 0x3c
   84542:	4fc4      	ldr	r7, [pc, #784]	; (84854 <_vfiprintf_r+0x5b0>)
   84544:	2310      	movs	r3, #16
   84546:	4671      	mov	r1, lr
   84548:	4684      	mov	ip, r0
   8454a:	e007      	b.n	8455c <_vfiprintf_r+0x2b8>
   8454c:	f101 0e02 	add.w	lr, r1, #2
   84550:	4601      	mov	r1, r0
   84552:	f10c 0c08 	add.w	ip, ip, #8
   84556:	3d10      	subs	r5, #16
   84558:	2d10      	cmp	r5, #16
   8455a:	dd13      	ble.n	84584 <_vfiprintf_r+0x2e0>
   8455c:	1c48      	adds	r0, r1, #1
   8455e:	3210      	adds	r2, #16
   84560:	2807      	cmp	r0, #7
   84562:	920f      	str	r2, [sp, #60]	; 0x3c
   84564:	f8cc 7000 	str.w	r7, [ip]
   84568:	f8cc 3004 	str.w	r3, [ip, #4]
   8456c:	900e      	str	r0, [sp, #56]	; 0x38
   8456e:	dded      	ble.n	8454c <_vfiprintf_r+0x2a8>
   84570:	2a00      	cmp	r2, #0
   84572:	f040 81c2 	bne.w	848fa <_vfiprintf_r+0x656>
   84576:	3d10      	subs	r5, #16
   84578:	2d10      	cmp	r5, #16
   8457a:	4611      	mov	r1, r2
   8457c:	f04f 0e01 	mov.w	lr, #1
   84580:	46d4      	mov	ip, sl
   84582:	dceb      	bgt.n	8455c <_vfiprintf_r+0x2b8>
   84584:	4663      	mov	r3, ip
   84586:	4671      	mov	r1, lr
   84588:	46a4      	mov	ip, r4
   8458a:	461c      	mov	r4, r3
   8458c:	442a      	add	r2, r5
   8458e:	2907      	cmp	r1, #7
   84590:	920f      	str	r2, [sp, #60]	; 0x3c
   84592:	6027      	str	r7, [r4, #0]
   84594:	6065      	str	r5, [r4, #4]
   84596:	910e      	str	r1, [sp, #56]	; 0x38
   84598:	f300 8346 	bgt.w	84c28 <_vfiprintf_r+0x984>
   8459c:	3408      	adds	r4, #8
   8459e:	1c48      	adds	r0, r1, #1
   845a0:	e1be      	b.n	84920 <_vfiprintf_r+0x67c>
   845a2:	4658      	mov	r0, fp
   845a4:	f048 0804 	orr.w	r8, r8, #4
   845a8:	f89b 3000 	ldrb.w	r3, [fp]
   845ac:	e6e3      	b.n	84376 <_vfiprintf_r+0xd2>
   845ae:	f018 0320 	ands.w	r3, r8, #32
   845b2:	9503      	str	r5, [sp, #12]
   845b4:	46b4      	mov	ip, r6
   845b6:	d062      	beq.n	8467e <_vfiprintf_r+0x3da>
   845b8:	9b04      	ldr	r3, [sp, #16]
   845ba:	3307      	adds	r3, #7
   845bc:	f023 0307 	bic.w	r3, r3, #7
   845c0:	f103 0208 	add.w	r2, r3, #8
   845c4:	e9d3 6700 	ldrd	r6, r7, [r3]
   845c8:	9204      	str	r2, [sp, #16]
   845ca:	2300      	movs	r3, #0
   845cc:	e76d      	b.n	844aa <_vfiprintf_r+0x206>
   845ce:	f048 0840 	orr.w	r8, r8, #64	; 0x40
   845d2:	f89b 3000 	ldrb.w	r3, [fp]
   845d6:	4658      	mov	r0, fp
   845d8:	e6cd      	b.n	84376 <_vfiprintf_r+0xd2>
   845da:	f048 0880 	orr.w	r8, r8, #128	; 0x80
   845de:	f89b 3000 	ldrb.w	r3, [fp]
   845e2:	4658      	mov	r0, fp
   845e4:	e6c7      	b.n	84376 <_vfiprintf_r+0xd2>
   845e6:	f1a3 0230 	sub.w	r2, r3, #48	; 0x30
   845ea:	2500      	movs	r5, #0
   845ec:	f81b 3b01 	ldrb.w	r3, [fp], #1
   845f0:	eb05 0585 	add.w	r5, r5, r5, lsl #2
   845f4:	eb02 0545 	add.w	r5, r2, r5, lsl #1
   845f8:	f1a3 0230 	sub.w	r2, r3, #48	; 0x30
   845fc:	2a09      	cmp	r2, #9
   845fe:	d9f5      	bls.n	845ec <_vfiprintf_r+0x348>
   84600:	e6bb      	b.n	8437a <_vfiprintf_r+0xd6>
   84602:	f048 0810 	orr.w	r8, r8, #16
   84606:	f018 0f20 	tst.w	r8, #32
   8460a:	9503      	str	r5, [sp, #12]
   8460c:	46b4      	mov	ip, r6
   8460e:	f88d 102f 	strb.w	r1, [sp, #47]	; 0x2f
   84612:	f000 809b 	beq.w	8474c <_vfiprintf_r+0x4a8>
   84616:	9904      	ldr	r1, [sp, #16]
   84618:	3107      	adds	r1, #7
   8461a:	f021 0107 	bic.w	r1, r1, #7
   8461e:	e9d1 2300 	ldrd	r2, r3, [r1]
   84622:	4616      	mov	r6, r2
   84624:	461f      	mov	r7, r3
   84626:	3108      	adds	r1, #8
   84628:	9104      	str	r1, [sp, #16]
   8462a:	2a00      	cmp	r2, #0
   8462c:	f173 0300 	sbcs.w	r3, r3, #0
   84630:	f2c0 83a4 	blt.w	84d7c <_vfiprintf_r+0xad8>
   84634:	f1bc 0f00 	cmp.w	ip, #0
   84638:	bfa8      	it	ge
   8463a:	f028 0880 	bicge.w	r8, r8, #128	; 0x80
   8463e:	ea56 0207 	orrs.w	r2, r6, r7
   84642:	f89d 502f 	ldrb.w	r5, [sp, #47]	; 0x2f
   84646:	46e1      	mov	r9, ip
   84648:	f04f 0301 	mov.w	r3, #1
   8464c:	f43f af3c 	beq.w	844c8 <_vfiprintf_r+0x224>
   84650:	2b01      	cmp	r3, #1
   84652:	f47f af40 	bne.w	844d6 <_vfiprintf_r+0x232>
   84656:	2f00      	cmp	r7, #0
   84658:	bf08      	it	eq
   8465a:	2e0a      	cmpeq	r6, #10
   8465c:	f080 8332 	bcs.w	84cc4 <_vfiprintf_r+0xa20>
   84660:	ab2a      	add	r3, sp, #168	; 0xa8
   84662:	3630      	adds	r6, #48	; 0x30
   84664:	f803 6d41 	strb.w	r6, [r3, #-65]!
   84668:	ebc3 090a 	rsb	r9, r3, sl
   8466c:	9307      	str	r3, [sp, #28]
   8466e:	e74b      	b.n	84508 <_vfiprintf_r+0x264>
   84670:	f048 0810 	orr.w	r8, r8, #16
   84674:	f018 0320 	ands.w	r3, r8, #32
   84678:	9503      	str	r5, [sp, #12]
   8467a:	46b4      	mov	ip, r6
   8467c:	d19c      	bne.n	845b8 <_vfiprintf_r+0x314>
   8467e:	f018 0210 	ands.w	r2, r8, #16
   84682:	f040 82f7 	bne.w	84c74 <_vfiprintf_r+0x9d0>
   84686:	f018 0340 	ands.w	r3, r8, #64	; 0x40
   8468a:	f000 82f3 	beq.w	84c74 <_vfiprintf_r+0x9d0>
   8468e:	9904      	ldr	r1, [sp, #16]
   84690:	4613      	mov	r3, r2
   84692:	460a      	mov	r2, r1
   84694:	3204      	adds	r2, #4
   84696:	880e      	ldrh	r6, [r1, #0]
   84698:	2700      	movs	r7, #0
   8469a:	9204      	str	r2, [sp, #16]
   8469c:	e705      	b.n	844aa <_vfiprintf_r+0x206>
   8469e:	f048 0810 	orr.w	r8, r8, #16
   846a2:	f018 0f20 	tst.w	r8, #32
   846a6:	9503      	str	r5, [sp, #12]
   846a8:	46b4      	mov	ip, r6
   846aa:	f47f aef4 	bne.w	84496 <_vfiprintf_r+0x1f2>
   846ae:	9a04      	ldr	r2, [sp, #16]
   846b0:	f018 0f10 	tst.w	r8, #16
   846b4:	4613      	mov	r3, r2
   846b6:	f040 82e4 	bne.w	84c82 <_vfiprintf_r+0x9de>
   846ba:	f018 0f40 	tst.w	r8, #64	; 0x40
   846be:	f000 82e0 	beq.w	84c82 <_vfiprintf_r+0x9de>
   846c2:	8816      	ldrh	r6, [r2, #0]
   846c4:	3204      	adds	r2, #4
   846c6:	2700      	movs	r7, #0
   846c8:	2301      	movs	r3, #1
   846ca:	9204      	str	r2, [sp, #16]
   846cc:	e6ed      	b.n	844aa <_vfiprintf_r+0x206>
   846ce:	4a62      	ldr	r2, [pc, #392]	; (84858 <_vfiprintf_r+0x5b4>)
   846d0:	f018 0f20 	tst.w	r8, #32
   846d4:	9503      	str	r5, [sp, #12]
   846d6:	46b4      	mov	ip, r6
   846d8:	f88d 102f 	strb.w	r1, [sp, #47]	; 0x2f
   846dc:	9209      	str	r2, [sp, #36]	; 0x24
   846de:	f000 808f 	beq.w	84800 <_vfiprintf_r+0x55c>
   846e2:	9a04      	ldr	r2, [sp, #16]
   846e4:	3207      	adds	r2, #7
   846e6:	f022 0207 	bic.w	r2, r2, #7
   846ea:	f102 0108 	add.w	r1, r2, #8
   846ee:	9104      	str	r1, [sp, #16]
   846f0:	e9d2 6700 	ldrd	r6, r7, [r2]
   846f4:	f018 0f01 	tst.w	r8, #1
   846f8:	f000 828f 	beq.w	84c1a <_vfiprintf_r+0x976>
   846fc:	ea56 0207 	orrs.w	r2, r6, r7
   84700:	f000 828b 	beq.w	84c1a <_vfiprintf_r+0x976>
   84704:	2230      	movs	r2, #48	; 0x30
   84706:	f88d 3031 	strb.w	r3, [sp, #49]	; 0x31
   8470a:	f048 0802 	orr.w	r8, r8, #2
   8470e:	f88d 2030 	strb.w	r2, [sp, #48]	; 0x30
   84712:	2302      	movs	r3, #2
   84714:	e6c9      	b.n	844aa <_vfiprintf_r+0x206>
   84716:	9a04      	ldr	r2, [sp, #16]
   84718:	2601      	movs	r6, #1
   8471a:	6813      	ldr	r3, [r2, #0]
   8471c:	f04f 0100 	mov.w	r1, #0
   84720:	f88d 3040 	strb.w	r3, [sp, #64]	; 0x40
   84724:	4613      	mov	r3, r2
   84726:	46b1      	mov	r9, r6
   84728:	3304      	adds	r3, #4
   8472a:	9304      	str	r3, [sp, #16]
   8472c:	ab10      	add	r3, sp, #64	; 0x40
   8472e:	9503      	str	r5, [sp, #12]
   84730:	f88d 102f 	strb.w	r1, [sp, #47]	; 0x2f
   84734:	9307      	str	r3, [sp, #28]
   84736:	f04f 0c00 	mov.w	ip, #0
   8473a:	e6eb      	b.n	84514 <_vfiprintf_r+0x270>
   8473c:	f018 0f20 	tst.w	r8, #32
   84740:	9503      	str	r5, [sp, #12]
   84742:	46b4      	mov	ip, r6
   84744:	f88d 102f 	strb.w	r1, [sp, #47]	; 0x2f
   84748:	f47f af65 	bne.w	84616 <_vfiprintf_r+0x372>
   8474c:	9a04      	ldr	r2, [sp, #16]
   8474e:	f018 0f10 	tst.w	r8, #16
   84752:	4613      	mov	r3, r2
   84754:	f040 82a0 	bne.w	84c98 <_vfiprintf_r+0x9f4>
   84758:	f018 0f40 	tst.w	r8, #64	; 0x40
   8475c:	f000 829c 	beq.w	84c98 <_vfiprintf_r+0x9f4>
   84760:	f9b2 6000 	ldrsh.w	r6, [r2]
   84764:	3304      	adds	r3, #4
   84766:	17f7      	asrs	r7, r6, #31
   84768:	9304      	str	r3, [sp, #16]
   8476a:	4632      	mov	r2, r6
   8476c:	463b      	mov	r3, r7
   8476e:	e75c      	b.n	8462a <_vfiprintf_r+0x386>
   84770:	9904      	ldr	r1, [sp, #16]
   84772:	2378      	movs	r3, #120	; 0x78
   84774:	f88d 3031 	strb.w	r3, [sp, #49]	; 0x31
   84778:	4b38      	ldr	r3, [pc, #224]	; (8485c <_vfiprintf_r+0x5b8>)
   8477a:	46b4      	mov	ip, r6
   8477c:	2230      	movs	r2, #48	; 0x30
   8477e:	680e      	ldr	r6, [r1, #0]
   84780:	3104      	adds	r1, #4
   84782:	9309      	str	r3, [sp, #36]	; 0x24
   84784:	9503      	str	r5, [sp, #12]
   84786:	f048 0802 	orr.w	r8, r8, #2
   8478a:	9104      	str	r1, [sp, #16]
   8478c:	2700      	movs	r7, #0
   8478e:	f88d 2030 	strb.w	r2, [sp, #48]	; 0x30
   84792:	2302      	movs	r3, #2
   84794:	e689      	b.n	844aa <_vfiprintf_r+0x206>
   84796:	f048 0820 	orr.w	r8, r8, #32
   8479a:	f89b 3000 	ldrb.w	r3, [fp]
   8479e:	4658      	mov	r0, fp
   847a0:	e5e9      	b.n	84376 <_vfiprintf_r+0xd2>
   847a2:	f04f 0100 	mov.w	r1, #0
   847a6:	9a04      	ldr	r2, [sp, #16]
   847a8:	9503      	str	r5, [sp, #12]
   847aa:	6813      	ldr	r3, [r2, #0]
   847ac:	46b4      	mov	ip, r6
   847ae:	9307      	str	r3, [sp, #28]
   847b0:	f88d 102f 	strb.w	r1, [sp, #47]	; 0x2f
   847b4:	1d15      	adds	r5, r2, #4
   847b6:	2b00      	cmp	r3, #0
   847b8:	f000 834e 	beq.w	84e58 <_vfiprintf_r+0xbb4>
   847bc:	2e00      	cmp	r6, #0
   847be:	f2c0 8329 	blt.w	84e14 <_vfiprintf_r+0xb70>
   847c2:	9e07      	ldr	r6, [sp, #28]
   847c4:	4662      	mov	r2, ip
   847c6:	4630      	mov	r0, r6
   847c8:	2100      	movs	r1, #0
   847ca:	f8cd c010 	str.w	ip, [sp, #16]
   847ce:	f001 ff9f 	bl	86710 <memchr>
   847d2:	f8dd c010 	ldr.w	ip, [sp, #16]
   847d6:	2800      	cmp	r0, #0
   847d8:	f000 834e 	beq.w	84e78 <_vfiprintf_r+0xbd4>
   847dc:	9504      	str	r5, [sp, #16]
   847de:	ebc6 0900 	rsb	r9, r6, r0
   847e2:	f89d 502f 	ldrb.w	r5, [sp, #47]	; 0x2f
   847e6:	f04f 0c00 	mov.w	ip, #0
   847ea:	e68d      	b.n	84508 <_vfiprintf_r+0x264>
   847ec:	4a1b      	ldr	r2, [pc, #108]	; (8485c <_vfiprintf_r+0x5b8>)
   847ee:	f018 0f20 	tst.w	r8, #32
   847f2:	9503      	str	r5, [sp, #12]
   847f4:	46b4      	mov	ip, r6
   847f6:	9209      	str	r2, [sp, #36]	; 0x24
   847f8:	f88d 102f 	strb.w	r1, [sp, #47]	; 0x2f
   847fc:	f47f af71 	bne.w	846e2 <_vfiprintf_r+0x43e>
   84800:	9904      	ldr	r1, [sp, #16]
   84802:	f018 0f10 	tst.w	r8, #16
   84806:	460a      	mov	r2, r1
   84808:	f040 8241 	bne.w	84c8e <_vfiprintf_r+0x9ea>
   8480c:	f018 0f40 	tst.w	r8, #64	; 0x40
   84810:	f000 823d 	beq.w	84c8e <_vfiprintf_r+0x9ea>
   84814:	3204      	adds	r2, #4
   84816:	880e      	ldrh	r6, [r1, #0]
   84818:	2700      	movs	r7, #0
   8481a:	9204      	str	r2, [sp, #16]
   8481c:	e76a      	b.n	846f4 <_vfiprintf_r+0x450>
   8481e:	f89b 3000 	ldrb.w	r3, [fp]
   84822:	2b6c      	cmp	r3, #108	; 0x6c
   84824:	f000 82e9 	beq.w	84dfa <_vfiprintf_r+0xb56>
   84828:	f048 0810 	orr.w	r8, r8, #16
   8482c:	4658      	mov	r0, fp
   8482e:	e5a2      	b.n	84376 <_vfiprintf_r+0xd2>
   84830:	9a04      	ldr	r2, [sp, #16]
   84832:	4613      	mov	r3, r2
   84834:	6815      	ldr	r5, [r2, #0]
   84836:	3304      	adds	r3, #4
   84838:	2d00      	cmp	r5, #0
   8483a:	f2c0 82e6 	blt.w	84e0a <_vfiprintf_r+0xb66>
   8483e:	9304      	str	r3, [sp, #16]
   84840:	f89b 3000 	ldrb.w	r3, [fp]
   84844:	4658      	mov	r0, fp
   84846:	e596      	b.n	84376 <_vfiprintf_r+0xd2>
   84848:	f89b 3000 	ldrb.w	r3, [fp]
   8484c:	4658      	mov	r0, fp
   8484e:	212b      	movs	r1, #43	; 0x2b
   84850:	e591      	b.n	84376 <_vfiprintf_r+0xd2>
   84852:	bf00      	nop
   84854:	00088a58 	.word	0x00088a58
   84858:	00088a28 	.word	0x00088a28
   8485c:	00088a3c 	.word	0x00088a3c
   84860:	f89b 3000 	ldrb.w	r3, [fp]
   84864:	f10b 0001 	add.w	r0, fp, #1
   84868:	2b2a      	cmp	r3, #42	; 0x2a
   8486a:	f000 830f 	beq.w	84e8c <_vfiprintf_r+0xbe8>
   8486e:	f1a3 0230 	sub.w	r2, r3, #48	; 0x30
   84872:	2a09      	cmp	r2, #9
   84874:	4683      	mov	fp, r0
   84876:	f04f 0600 	mov.w	r6, #0
   8487a:	f63f ad7e 	bhi.w	8437a <_vfiprintf_r+0xd6>
   8487e:	f81b 3b01 	ldrb.w	r3, [fp], #1
   84882:	eb06 0686 	add.w	r6, r6, r6, lsl #2
   84886:	eb02 0646 	add.w	r6, r2, r6, lsl #1
   8488a:	f1a3 0230 	sub.w	r2, r3, #48	; 0x30
   8488e:	2a09      	cmp	r2, #9
   84890:	d9f5      	bls.n	8487e <_vfiprintf_r+0x5da>
   84892:	ea46 76e6 	orr.w	r6, r6, r6, asr #31
   84896:	e570      	b.n	8437a <_vfiprintf_r+0xd6>
   84898:	f018 0f20 	tst.w	r8, #32
   8489c:	f88d 102f 	strb.w	r1, [sp, #47]	; 0x2f
   848a0:	f000 8283 	beq.w	84daa <_vfiprintf_r+0xb06>
   848a4:	9a04      	ldr	r2, [sp, #16]
   848a6:	4613      	mov	r3, r2
   848a8:	3304      	adds	r3, #4
   848aa:	9304      	str	r3, [sp, #16]
   848ac:	9b02      	ldr	r3, [sp, #8]
   848ae:	6811      	ldr	r1, [r2, #0]
   848b0:	17df      	asrs	r7, r3, #31
   848b2:	461a      	mov	r2, r3
   848b4:	463b      	mov	r3, r7
   848b6:	e9c1 2300 	strd	r2, r3, [r1]
   848ba:	e525      	b.n	84308 <_vfiprintf_r+0x64>
   848bc:	4658      	mov	r0, fp
   848be:	f89b 3000 	ldrb.w	r3, [fp]
   848c2:	2900      	cmp	r1, #0
   848c4:	f47f ad57 	bne.w	84376 <_vfiprintf_r+0xd2>
   848c8:	2120      	movs	r1, #32
   848ca:	e554      	b.n	84376 <_vfiprintf_r+0xd2>
   848cc:	f048 0801 	orr.w	r8, r8, #1
   848d0:	4658      	mov	r0, fp
   848d2:	f89b 3000 	ldrb.w	r3, [fp]
   848d6:	e54e      	b.n	84376 <_vfiprintf_r+0xd2>
   848d8:	9503      	str	r5, [sp, #12]
   848da:	f88d 102f 	strb.w	r1, [sp, #47]	; 0x2f
   848de:	2b00      	cmp	r3, #0
   848e0:	f000 809c 	beq.w	84a1c <_vfiprintf_r+0x778>
   848e4:	f88d 3040 	strb.w	r3, [sp, #64]	; 0x40
   848e8:	f04f 0300 	mov.w	r3, #0
   848ec:	2601      	movs	r6, #1
   848ee:	f88d 302f 	strb.w	r3, [sp, #47]	; 0x2f
   848f2:	ab10      	add	r3, sp, #64	; 0x40
   848f4:	46b1      	mov	r9, r6
   848f6:	9307      	str	r3, [sp, #28]
   848f8:	e71d      	b.n	84736 <_vfiprintf_r+0x492>
   848fa:	9801      	ldr	r0, [sp, #4]
   848fc:	9900      	ldr	r1, [sp, #0]
   848fe:	aa0d      	add	r2, sp, #52	; 0x34
   84900:	9308      	str	r3, [sp, #32]
   84902:	f7ff fc93 	bl	8422c <__sprint_r.part.0>
   84906:	2800      	cmp	r0, #0
   84908:	f040 808f 	bne.w	84a2a <_vfiprintf_r+0x786>
   8490c:	990e      	ldr	r1, [sp, #56]	; 0x38
   8490e:	46d4      	mov	ip, sl
   84910:	9a0f      	ldr	r2, [sp, #60]	; 0x3c
   84912:	f101 0e01 	add.w	lr, r1, #1
   84916:	9b08      	ldr	r3, [sp, #32]
   84918:	e61d      	b.n	84556 <_vfiprintf_r+0x2b2>
   8491a:	990e      	ldr	r1, [sp, #56]	; 0x38
   8491c:	9a0f      	ldr	r2, [sp, #60]	; 0x3c
   8491e:	1c48      	adds	r0, r1, #1
   84920:	f89d 302f 	ldrb.w	r3, [sp, #47]	; 0x2f
   84924:	b16b      	cbz	r3, 84942 <_vfiprintf_r+0x69e>
   84926:	3201      	adds	r2, #1
   84928:	f10d 032f 	add.w	r3, sp, #47	; 0x2f
   8492c:	2101      	movs	r1, #1
   8492e:	2807      	cmp	r0, #7
   84930:	920f      	str	r2, [sp, #60]	; 0x3c
   84932:	900e      	str	r0, [sp, #56]	; 0x38
   84934:	6023      	str	r3, [r4, #0]
   84936:	6061      	str	r1, [r4, #4]
   84938:	f300 8134 	bgt.w	84ba4 <_vfiprintf_r+0x900>
   8493c:	4601      	mov	r1, r0
   8493e:	3408      	adds	r4, #8
   84940:	3001      	adds	r0, #1
   84942:	9b05      	ldr	r3, [sp, #20]
   84944:	b163      	cbz	r3, 84960 <_vfiprintf_r+0x6bc>
   84946:	3202      	adds	r2, #2
   84948:	a90c      	add	r1, sp, #48	; 0x30
   8494a:	2302      	movs	r3, #2
   8494c:	2807      	cmp	r0, #7
   8494e:	920f      	str	r2, [sp, #60]	; 0x3c
   84950:	900e      	str	r0, [sp, #56]	; 0x38
   84952:	e884 000a 	stmia.w	r4, {r1, r3}
   84956:	f300 8134 	bgt.w	84bc2 <_vfiprintf_r+0x91e>
   8495a:	4601      	mov	r1, r0
   8495c:	3408      	adds	r4, #8
   8495e:	3001      	adds	r0, #1
   84960:	9b06      	ldr	r3, [sp, #24]
   84962:	2b80      	cmp	r3, #128	; 0x80
   84964:	f000 80d4 	beq.w	84b10 <_vfiprintf_r+0x86c>
   84968:	ebc9 070c 	rsb	r7, r9, ip
   8496c:	2f00      	cmp	r7, #0
   8496e:	dd2b      	ble.n	849c8 <_vfiprintf_r+0x724>
   84970:	2f10      	cmp	r7, #16
   84972:	4dab      	ldr	r5, [pc, #684]	; (84c20 <_vfiprintf_r+0x97c>)
   84974:	dd1f      	ble.n	849b6 <_vfiprintf_r+0x712>
   84976:	46a6      	mov	lr, r4
   84978:	2310      	movs	r3, #16
   8497a:	9c01      	ldr	r4, [sp, #4]
   8497c:	e007      	b.n	8498e <_vfiprintf_r+0x6ea>
   8497e:	f101 0c02 	add.w	ip, r1, #2
   84982:	4601      	mov	r1, r0
   84984:	f10e 0e08 	add.w	lr, lr, #8
   84988:	3f10      	subs	r7, #16
   8498a:	2f10      	cmp	r7, #16
   8498c:	dd11      	ble.n	849b2 <_vfiprintf_r+0x70e>
   8498e:	1c48      	adds	r0, r1, #1
   84990:	3210      	adds	r2, #16
   84992:	2807      	cmp	r0, #7
   84994:	920f      	str	r2, [sp, #60]	; 0x3c
   84996:	f8ce 5000 	str.w	r5, [lr]
   8499a:	f8ce 3004 	str.w	r3, [lr, #4]
   8499e:	900e      	str	r0, [sp, #56]	; 0x38
   849a0:	dded      	ble.n	8497e <_vfiprintf_r+0x6da>
   849a2:	bb6a      	cbnz	r2, 84a00 <_vfiprintf_r+0x75c>
   849a4:	3f10      	subs	r7, #16
   849a6:	2f10      	cmp	r7, #16
   849a8:	f04f 0c01 	mov.w	ip, #1
   849ac:	4611      	mov	r1, r2
   849ae:	46d6      	mov	lr, sl
   849b0:	dced      	bgt.n	8498e <_vfiprintf_r+0x6ea>
   849b2:	4674      	mov	r4, lr
   849b4:	4660      	mov	r0, ip
   849b6:	443a      	add	r2, r7
   849b8:	2807      	cmp	r0, #7
   849ba:	920f      	str	r2, [sp, #60]	; 0x3c
   849bc:	e884 00a0 	stmia.w	r4, {r5, r7}
   849c0:	900e      	str	r0, [sp, #56]	; 0x38
   849c2:	dc3b      	bgt.n	84a3c <_vfiprintf_r+0x798>
   849c4:	3408      	adds	r4, #8
   849c6:	3001      	adds	r0, #1
   849c8:	eb02 0309 	add.w	r3, r2, r9
   849cc:	9a07      	ldr	r2, [sp, #28]
   849ce:	2807      	cmp	r0, #7
   849d0:	930f      	str	r3, [sp, #60]	; 0x3c
   849d2:	e884 0204 	stmia.w	r4, {r2, r9}
   849d6:	900e      	str	r0, [sp, #56]	; 0x38
   849d8:	dd3d      	ble.n	84a56 <_vfiprintf_r+0x7b2>
   849da:	2b00      	cmp	r3, #0
   849dc:	f040 813f 	bne.w	84c5e <_vfiprintf_r+0x9ba>
   849e0:	f018 0f04 	tst.w	r8, #4
   849e4:	930e      	str	r3, [sp, #56]	; 0x38
   849e6:	f040 8130 	bne.w	84c4a <_vfiprintf_r+0x9a6>
   849ea:	9b02      	ldr	r3, [sp, #8]
   849ec:	9a03      	ldr	r2, [sp, #12]
   849ee:	4296      	cmp	r6, r2
   849f0:	bfac      	ite	ge
   849f2:	199b      	addge	r3, r3, r6
   849f4:	189b      	addlt	r3, r3, r2
   849f6:	9302      	str	r3, [sp, #8]
   849f8:	2300      	movs	r3, #0
   849fa:	930e      	str	r3, [sp, #56]	; 0x38
   849fc:	4654      	mov	r4, sl
   849fe:	e483      	b.n	84308 <_vfiprintf_r+0x64>
   84a00:	4620      	mov	r0, r4
   84a02:	9900      	ldr	r1, [sp, #0]
   84a04:	aa0d      	add	r2, sp, #52	; 0x34
   84a06:	9305      	str	r3, [sp, #20]
   84a08:	f7ff fc10 	bl	8422c <__sprint_r.part.0>
   84a0c:	b968      	cbnz	r0, 84a2a <_vfiprintf_r+0x786>
   84a0e:	990e      	ldr	r1, [sp, #56]	; 0x38
   84a10:	46d6      	mov	lr, sl
   84a12:	9a0f      	ldr	r2, [sp, #60]	; 0x3c
   84a14:	f101 0c01 	add.w	ip, r1, #1
   84a18:	9b05      	ldr	r3, [sp, #20]
   84a1a:	e7b5      	b.n	84988 <_vfiprintf_r+0x6e4>
   84a1c:	9b0f      	ldr	r3, [sp, #60]	; 0x3c
   84a1e:	b123      	cbz	r3, 84a2a <_vfiprintf_r+0x786>
   84a20:	9801      	ldr	r0, [sp, #4]
   84a22:	9900      	ldr	r1, [sp, #0]
   84a24:	aa0d      	add	r2, sp, #52	; 0x34
   84a26:	f7ff fc01 	bl	8422c <__sprint_r.part.0>
   84a2a:	9b00      	ldr	r3, [sp, #0]
   84a2c:	899b      	ldrh	r3, [r3, #12]
   84a2e:	065b      	lsls	r3, r3, #25
   84a30:	f53f ad23 	bmi.w	8447a <_vfiprintf_r+0x1d6>
   84a34:	9802      	ldr	r0, [sp, #8]
   84a36:	b02b      	add	sp, #172	; 0xac
   84a38:	e8bd 8ff0 	ldmia.w	sp!, {r4, r5, r6, r7, r8, r9, sl, fp, pc}
   84a3c:	2a00      	cmp	r2, #0
   84a3e:	f040 8190 	bne.w	84d62 <_vfiprintf_r+0xabe>
   84a42:	464b      	mov	r3, r9
   84a44:	4654      	mov	r4, sl
   84a46:	9907      	ldr	r1, [sp, #28]
   84a48:	2201      	movs	r2, #1
   84a4a:	f8cd 906c 	str.w	r9, [sp, #108]	; 0x6c
   84a4e:	f8cd 903c 	str.w	r9, [sp, #60]	; 0x3c
   84a52:	911a      	str	r1, [sp, #104]	; 0x68
   84a54:	920e      	str	r2, [sp, #56]	; 0x38
   84a56:	f104 0208 	add.w	r2, r4, #8
   84a5a:	f018 0f04 	tst.w	r8, #4
   84a5e:	d039      	beq.n	84ad4 <_vfiprintf_r+0x830>
   84a60:	9903      	ldr	r1, [sp, #12]
   84a62:	1b8d      	subs	r5, r1, r6
   84a64:	2d00      	cmp	r5, #0
   84a66:	dd35      	ble.n	84ad4 <_vfiprintf_r+0x830>
   84a68:	2d10      	cmp	r5, #16
   84a6a:	f340 8200 	ble.w	84e6e <_vfiprintf_r+0xbca>
   84a6e:	980e      	ldr	r0, [sp, #56]	; 0x38
   84a70:	4f6c      	ldr	r7, [pc, #432]	; (84c24 <_vfiprintf_r+0x980>)
   84a72:	2410      	movs	r4, #16
   84a74:	f8dd 8004 	ldr.w	r8, [sp, #4]
   84a78:	f8dd 9000 	ldr.w	r9, [sp]
   84a7c:	e006      	b.n	84a8c <_vfiprintf_r+0x7e8>
   84a7e:	f100 0e02 	add.w	lr, r0, #2
   84a82:	4608      	mov	r0, r1
   84a84:	3208      	adds	r2, #8
   84a86:	3d10      	subs	r5, #16
   84a88:	2d10      	cmp	r5, #16
   84a8a:	dd10      	ble.n	84aae <_vfiprintf_r+0x80a>
   84a8c:	1c41      	adds	r1, r0, #1
   84a8e:	3310      	adds	r3, #16
   84a90:	2907      	cmp	r1, #7
   84a92:	930f      	str	r3, [sp, #60]	; 0x3c
   84a94:	6017      	str	r7, [r2, #0]
   84a96:	6054      	str	r4, [r2, #4]
   84a98:	910e      	str	r1, [sp, #56]	; 0x38
   84a9a:	ddf0      	ble.n	84a7e <_vfiprintf_r+0x7da>
   84a9c:	2b00      	cmp	r3, #0
   84a9e:	d12a      	bne.n	84af6 <_vfiprintf_r+0x852>
   84aa0:	3d10      	subs	r5, #16
   84aa2:	2d10      	cmp	r5, #16
   84aa4:	f04f 0e01 	mov.w	lr, #1
   84aa8:	4618      	mov	r0, r3
   84aaa:	4652      	mov	r2, sl
   84aac:	dcee      	bgt.n	84a8c <_vfiprintf_r+0x7e8>
   84aae:	442b      	add	r3, r5
   84ab0:	f1be 0f07 	cmp.w	lr, #7
   84ab4:	930f      	str	r3, [sp, #60]	; 0x3c
   84ab6:	6017      	str	r7, [r2, #0]
   84ab8:	6055      	str	r5, [r2, #4]
   84aba:	f8cd e038 	str.w	lr, [sp, #56]	; 0x38
   84abe:	dd09      	ble.n	84ad4 <_vfiprintf_r+0x830>
   84ac0:	2b00      	cmp	r3, #0
   84ac2:	d092      	beq.n	849ea <_vfiprintf_r+0x746>
   84ac4:	9801      	ldr	r0, [sp, #4]
   84ac6:	9900      	ldr	r1, [sp, #0]
   84ac8:	aa0d      	add	r2, sp, #52	; 0x34
   84aca:	f7ff fbaf 	bl	8422c <__sprint_r.part.0>
   84ace:	2800      	cmp	r0, #0
   84ad0:	d1ab      	bne.n	84a2a <_vfiprintf_r+0x786>
   84ad2:	9b0f      	ldr	r3, [sp, #60]	; 0x3c
   84ad4:	9a02      	ldr	r2, [sp, #8]
   84ad6:	9903      	ldr	r1, [sp, #12]
   84ad8:	428e      	cmp	r6, r1
   84ada:	bfac      	ite	ge
   84adc:	1992      	addge	r2, r2, r6
   84ade:	1852      	addlt	r2, r2, r1
   84ae0:	9202      	str	r2, [sp, #8]
   84ae2:	2b00      	cmp	r3, #0
   84ae4:	d088      	beq.n	849f8 <_vfiprintf_r+0x754>
   84ae6:	9801      	ldr	r0, [sp, #4]
   84ae8:	9900      	ldr	r1, [sp, #0]
   84aea:	aa0d      	add	r2, sp, #52	; 0x34
   84aec:	f7ff fb9e 	bl	8422c <__sprint_r.part.0>
   84af0:	2800      	cmp	r0, #0
   84af2:	d081      	beq.n	849f8 <_vfiprintf_r+0x754>
   84af4:	e799      	b.n	84a2a <_vfiprintf_r+0x786>
   84af6:	4640      	mov	r0, r8
   84af8:	4649      	mov	r1, r9
   84afa:	aa0d      	add	r2, sp, #52	; 0x34
   84afc:	f7ff fb96 	bl	8422c <__sprint_r.part.0>
   84b00:	2800      	cmp	r0, #0
   84b02:	d192      	bne.n	84a2a <_vfiprintf_r+0x786>
   84b04:	980e      	ldr	r0, [sp, #56]	; 0x38
   84b06:	4652      	mov	r2, sl
   84b08:	9b0f      	ldr	r3, [sp, #60]	; 0x3c
   84b0a:	f100 0e01 	add.w	lr, r0, #1
   84b0e:	e7ba      	b.n	84a86 <_vfiprintf_r+0x7e2>
   84b10:	9b03      	ldr	r3, [sp, #12]
   84b12:	1b9f      	subs	r7, r3, r6
   84b14:	2f00      	cmp	r7, #0
   84b16:	f77f af27 	ble.w	84968 <_vfiprintf_r+0x6c4>
   84b1a:	2f10      	cmp	r7, #16
   84b1c:	f340 81b3 	ble.w	84e86 <_vfiprintf_r+0xbe2>
   84b20:	4620      	mov	r0, r4
   84b22:	4d3f      	ldr	r5, [pc, #252]	; (84c20 <_vfiprintf_r+0x97c>)
   84b24:	4664      	mov	r4, ip
   84b26:	2310      	movs	r3, #16
   84b28:	4684      	mov	ip, r0
   84b2a:	e007      	b.n	84b3c <_vfiprintf_r+0x898>
   84b2c:	f101 0e02 	add.w	lr, r1, #2
   84b30:	4601      	mov	r1, r0
   84b32:	f10c 0c08 	add.w	ip, ip, #8
   84b36:	3f10      	subs	r7, #16
   84b38:	2f10      	cmp	r7, #16
   84b3a:	dd11      	ble.n	84b60 <_vfiprintf_r+0x8bc>
   84b3c:	1c48      	adds	r0, r1, #1
   84b3e:	3210      	adds	r2, #16
   84b40:	2807      	cmp	r0, #7
   84b42:	920f      	str	r2, [sp, #60]	; 0x3c
   84b44:	f8cc 5000 	str.w	r5, [ip]
   84b48:	f8cc 3004 	str.w	r3, [ip, #4]
   84b4c:	900e      	str	r0, [sp, #56]	; 0x38
   84b4e:	dded      	ble.n	84b2c <_vfiprintf_r+0x888>
   84b50:	b9c2      	cbnz	r2, 84b84 <_vfiprintf_r+0x8e0>
   84b52:	3f10      	subs	r7, #16
   84b54:	2f10      	cmp	r7, #16
   84b56:	f04f 0e01 	mov.w	lr, #1
   84b5a:	4611      	mov	r1, r2
   84b5c:	46d4      	mov	ip, sl
   84b5e:	dced      	bgt.n	84b3c <_vfiprintf_r+0x898>
   84b60:	4663      	mov	r3, ip
   84b62:	46a4      	mov	ip, r4
   84b64:	461c      	mov	r4, r3
   84b66:	443a      	add	r2, r7
   84b68:	f1be 0f07 	cmp.w	lr, #7
   84b6c:	920f      	str	r2, [sp, #60]	; 0x3c
   84b6e:	e884 00a0 	stmia.w	r4, {r5, r7}
   84b72:	f8cd e038 	str.w	lr, [sp, #56]	; 0x38
   84b76:	f300 80ee 	bgt.w	84d56 <_vfiprintf_r+0xab2>
   84b7a:	3408      	adds	r4, #8
   84b7c:	f10e 0001 	add.w	r0, lr, #1
   84b80:	4671      	mov	r1, lr
   84b82:	e6f1      	b.n	84968 <_vfiprintf_r+0x6c4>
   84b84:	9801      	ldr	r0, [sp, #4]
   84b86:	9900      	ldr	r1, [sp, #0]
   84b88:	aa0d      	add	r2, sp, #52	; 0x34
   84b8a:	9305      	str	r3, [sp, #20]
   84b8c:	f7ff fb4e 	bl	8422c <__sprint_r.part.0>
   84b90:	2800      	cmp	r0, #0
   84b92:	f47f af4a 	bne.w	84a2a <_vfiprintf_r+0x786>
   84b96:	990e      	ldr	r1, [sp, #56]	; 0x38
   84b98:	46d4      	mov	ip, sl
   84b9a:	9a0f      	ldr	r2, [sp, #60]	; 0x3c
   84b9c:	f101 0e01 	add.w	lr, r1, #1
   84ba0:	9b05      	ldr	r3, [sp, #20]
   84ba2:	e7c8      	b.n	84b36 <_vfiprintf_r+0x892>
   84ba4:	2a00      	cmp	r2, #0
   84ba6:	f040 80c5 	bne.w	84d34 <_vfiprintf_r+0xa90>
   84baa:	9b05      	ldr	r3, [sp, #20]
   84bac:	2b00      	cmp	r3, #0
   84bae:	f000 8085 	beq.w	84cbc <_vfiprintf_r+0xa18>
   84bb2:	aa0c      	add	r2, sp, #48	; 0x30
   84bb4:	2302      	movs	r3, #2
   84bb6:	921a      	str	r2, [sp, #104]	; 0x68
   84bb8:	4608      	mov	r0, r1
   84bba:	931b      	str	r3, [sp, #108]	; 0x6c
   84bbc:	461a      	mov	r2, r3
   84bbe:	4654      	mov	r4, sl
   84bc0:	e6cb      	b.n	8495a <_vfiprintf_r+0x6b6>
   84bc2:	2a00      	cmp	r2, #0
   84bc4:	f040 80a5 	bne.w	84d12 <_vfiprintf_r+0xa6e>
   84bc8:	2001      	movs	r0, #1
   84bca:	4611      	mov	r1, r2
   84bcc:	4654      	mov	r4, sl
   84bce:	e6c7      	b.n	84960 <_vfiprintf_r+0x6bc>
   84bd0:	bb03      	cbnz	r3, 84c14 <_vfiprintf_r+0x970>
   84bd2:	f018 0f01 	tst.w	r8, #1
   84bd6:	d01d      	beq.n	84c14 <_vfiprintf_r+0x970>
   84bd8:	ab2a      	add	r3, sp, #168	; 0xa8
   84bda:	2230      	movs	r2, #48	; 0x30
   84bdc:	f803 2d41 	strb.w	r2, [r3, #-65]!
   84be0:	ebc3 090a 	rsb	r9, r3, sl
   84be4:	9307      	str	r3, [sp, #28]
   84be6:	e48f      	b.n	84508 <_vfiprintf_r+0x264>
   84be8:	46d1      	mov	r9, sl
   84bea:	9809      	ldr	r0, [sp, #36]	; 0x24
   84bec:	0933      	lsrs	r3, r6, #4
   84bee:	ea43 7307 	orr.w	r3, r3, r7, lsl #28
   84bf2:	0939      	lsrs	r1, r7, #4
   84bf4:	f006 020f 	and.w	r2, r6, #15
   84bf8:	460f      	mov	r7, r1
   84bfa:	461e      	mov	r6, r3
   84bfc:	5c83      	ldrb	r3, [r0, r2]
   84bfe:	f809 3d01 	strb.w	r3, [r9, #-1]!
   84c02:	ea56 0307 	orrs.w	r3, r6, r7
   84c06:	d1f1      	bne.n	84bec <_vfiprintf_r+0x948>
   84c08:	464b      	mov	r3, r9
   84c0a:	f8cd 901c 	str.w	r9, [sp, #28]
   84c0e:	ebc3 090a 	rsb	r9, r3, sl
   84c12:	e479      	b.n	84508 <_vfiprintf_r+0x264>
   84c14:	f8cd a01c 	str.w	sl, [sp, #28]
   84c18:	e476      	b.n	84508 <_vfiprintf_r+0x264>
   84c1a:	2302      	movs	r3, #2
   84c1c:	e445      	b.n	844aa <_vfiprintf_r+0x206>
   84c1e:	bf00      	nop
   84c20:	00088a18 	.word	0x00088a18
   84c24:	00088a58 	.word	0x00088a58
   84c28:	2a00      	cmp	r2, #0
   84c2a:	f040 80d5 	bne.w	84dd8 <_vfiprintf_r+0xb34>
   84c2e:	f89d 302f 	ldrb.w	r3, [sp, #47]	; 0x2f
   84c32:	2b00      	cmp	r3, #0
   84c34:	f000 80ac 	beq.w	84d90 <_vfiprintf_r+0xaec>
   84c38:	2301      	movs	r3, #1
   84c3a:	f10d 012f 	add.w	r1, sp, #47	; 0x2f
   84c3e:	4618      	mov	r0, r3
   84c40:	931b      	str	r3, [sp, #108]	; 0x6c
   84c42:	461a      	mov	r2, r3
   84c44:	911a      	str	r1, [sp, #104]	; 0x68
   84c46:	4654      	mov	r4, sl
   84c48:	e678      	b.n	8493c <_vfiprintf_r+0x698>
   84c4a:	9a03      	ldr	r2, [sp, #12]
   84c4c:	1b95      	subs	r5, r2, r6
   84c4e:	2d00      	cmp	r5, #0
   84c50:	4652      	mov	r2, sl
   84c52:	f73f af09 	bgt.w	84a68 <_vfiprintf_r+0x7c4>
   84c56:	e6c8      	b.n	849ea <_vfiprintf_r+0x746>
   84c58:	465d      	mov	r5, fp
   84c5a:	f7ff bb7c 	b.w	84356 <_vfiprintf_r+0xb2>
   84c5e:	9801      	ldr	r0, [sp, #4]
   84c60:	9900      	ldr	r1, [sp, #0]
   84c62:	aa0d      	add	r2, sp, #52	; 0x34
   84c64:	f7ff fae2 	bl	8422c <__sprint_r.part.0>
   84c68:	2800      	cmp	r0, #0
   84c6a:	f47f aede 	bne.w	84a2a <_vfiprintf_r+0x786>
   84c6e:	4652      	mov	r2, sl
   84c70:	9b0f      	ldr	r3, [sp, #60]	; 0x3c
   84c72:	e6f2      	b.n	84a5a <_vfiprintf_r+0x7b6>
   84c74:	9904      	ldr	r1, [sp, #16]
   84c76:	2700      	movs	r7, #0
   84c78:	460a      	mov	r2, r1
   84c7a:	3204      	adds	r2, #4
   84c7c:	680e      	ldr	r6, [r1, #0]
   84c7e:	9204      	str	r2, [sp, #16]
   84c80:	e413      	b.n	844aa <_vfiprintf_r+0x206>
   84c82:	3204      	adds	r2, #4
   84c84:	681e      	ldr	r6, [r3, #0]
   84c86:	2700      	movs	r7, #0
   84c88:	2301      	movs	r3, #1
   84c8a:	9204      	str	r2, [sp, #16]
   84c8c:	e40d      	b.n	844aa <_vfiprintf_r+0x206>
   84c8e:	6816      	ldr	r6, [r2, #0]
   84c90:	3204      	adds	r2, #4
   84c92:	9204      	str	r2, [sp, #16]
   84c94:	2700      	movs	r7, #0
   84c96:	e52d      	b.n	846f4 <_vfiprintf_r+0x450>
   84c98:	681e      	ldr	r6, [r3, #0]
   84c9a:	3304      	adds	r3, #4
   84c9c:	17f7      	asrs	r7, r6, #31
   84c9e:	9304      	str	r3, [sp, #16]
   84ca0:	4632      	mov	r2, r6
   84ca2:	463b      	mov	r3, r7
   84ca4:	e4c1      	b.n	8462a <_vfiprintf_r+0x386>
   84ca6:	9801      	ldr	r0, [sp, #4]
   84ca8:	9900      	ldr	r1, [sp, #0]
   84caa:	aa0d      	add	r2, sp, #52	; 0x34
   84cac:	f7ff fabe 	bl	8422c <__sprint_r.part.0>
   84cb0:	2800      	cmp	r0, #0
   84cb2:	f47f aeba 	bne.w	84a2a <_vfiprintf_r+0x786>
   84cb6:	4654      	mov	r4, sl
   84cb8:	f7ff bbc0 	b.w	8443c <_vfiprintf_r+0x198>
   84cbc:	4608      	mov	r0, r1
   84cbe:	4654      	mov	r4, sl
   84cc0:	4611      	mov	r1, r2
   84cc2:	e64d      	b.n	84960 <_vfiprintf_r+0x6bc>
   84cc4:	46d1      	mov	r9, sl
   84cc6:	f8cd c014 	str.w	ip, [sp, #20]
   84cca:	4630      	mov	r0, r6
   84ccc:	4639      	mov	r1, r7
   84cce:	220a      	movs	r2, #10
   84cd0:	2300      	movs	r3, #0
   84cd2:	f003 fb55 	bl	88380 <__aeabi_uldivmod>
   84cd6:	3230      	adds	r2, #48	; 0x30
   84cd8:	4630      	mov	r0, r6
   84cda:	4639      	mov	r1, r7
   84cdc:	f809 2d01 	strb.w	r2, [r9, #-1]!
   84ce0:	2300      	movs	r3, #0
   84ce2:	220a      	movs	r2, #10
   84ce4:	f003 fb4c 	bl	88380 <__aeabi_uldivmod>
   84ce8:	4606      	mov	r6, r0
   84cea:	460f      	mov	r7, r1
   84cec:	ea56 0307 	orrs.w	r3, r6, r7
   84cf0:	d1eb      	bne.n	84cca <_vfiprintf_r+0xa26>
   84cf2:	f8dd c014 	ldr.w	ip, [sp, #20]
   84cf6:	e787      	b.n	84c08 <_vfiprintf_r+0x964>
   84cf8:	2b30      	cmp	r3, #48	; 0x30
   84cfa:	9b07      	ldr	r3, [sp, #28]
   84cfc:	d087      	beq.n	84c0e <_vfiprintf_r+0x96a>
   84cfe:	3b01      	subs	r3, #1
   84d00:	461a      	mov	r2, r3
   84d02:	9307      	str	r3, [sp, #28]
   84d04:	2330      	movs	r3, #48	; 0x30
   84d06:	ebc2 090a 	rsb	r9, r2, sl
   84d0a:	f801 3c01 	strb.w	r3, [r1, #-1]
   84d0e:	f7ff bbfb 	b.w	84508 <_vfiprintf_r+0x264>
   84d12:	9801      	ldr	r0, [sp, #4]
   84d14:	9900      	ldr	r1, [sp, #0]
   84d16:	aa0d      	add	r2, sp, #52	; 0x34
   84d18:	f8cd c014 	str.w	ip, [sp, #20]
   84d1c:	f7ff fa86 	bl	8422c <__sprint_r.part.0>
   84d20:	2800      	cmp	r0, #0
   84d22:	f47f ae82 	bne.w	84a2a <_vfiprintf_r+0x786>
   84d26:	990e      	ldr	r1, [sp, #56]	; 0x38
   84d28:	4654      	mov	r4, sl
   84d2a:	9a0f      	ldr	r2, [sp, #60]	; 0x3c
   84d2c:	1c48      	adds	r0, r1, #1
   84d2e:	f8dd c014 	ldr.w	ip, [sp, #20]
   84d32:	e615      	b.n	84960 <_vfiprintf_r+0x6bc>
   84d34:	9801      	ldr	r0, [sp, #4]
   84d36:	9900      	ldr	r1, [sp, #0]
   84d38:	aa0d      	add	r2, sp, #52	; 0x34
   84d3a:	f8cd c020 	str.w	ip, [sp, #32]
   84d3e:	f7ff fa75 	bl	8422c <__sprint_r.part.0>
   84d42:	2800      	cmp	r0, #0
   84d44:	f47f ae71 	bne.w	84a2a <_vfiprintf_r+0x786>
   84d48:	990e      	ldr	r1, [sp, #56]	; 0x38
   84d4a:	4654      	mov	r4, sl
   84d4c:	9a0f      	ldr	r2, [sp, #60]	; 0x3c
   84d4e:	1c48      	adds	r0, r1, #1
   84d50:	f8dd c020 	ldr.w	ip, [sp, #32]
   84d54:	e5f5      	b.n	84942 <_vfiprintf_r+0x69e>
   84d56:	2a00      	cmp	r2, #0
   84d58:	d167      	bne.n	84e2a <_vfiprintf_r+0xb86>
   84d5a:	2001      	movs	r0, #1
   84d5c:	4611      	mov	r1, r2
   84d5e:	4654      	mov	r4, sl
   84d60:	e602      	b.n	84968 <_vfiprintf_r+0x6c4>
   84d62:	9801      	ldr	r0, [sp, #4]
   84d64:	9900      	ldr	r1, [sp, #0]
   84d66:	aa0d      	add	r2, sp, #52	; 0x34
   84d68:	f7ff fa60 	bl	8422c <__sprint_r.part.0>
   84d6c:	2800      	cmp	r0, #0
   84d6e:	f47f ae5c 	bne.w	84a2a <_vfiprintf_r+0x786>
   84d72:	980e      	ldr	r0, [sp, #56]	; 0x38
   84d74:	4654      	mov	r4, sl
   84d76:	9a0f      	ldr	r2, [sp, #60]	; 0x3c
   84d78:	3001      	adds	r0, #1
   84d7a:	e625      	b.n	849c8 <_vfiprintf_r+0x724>
   84d7c:	252d      	movs	r5, #45	; 0x2d
   84d7e:	4276      	negs	r6, r6
   84d80:	eb67 0747 	sbc.w	r7, r7, r7, lsl #1
   84d84:	f88d 502f 	strb.w	r5, [sp, #47]	; 0x2f
   84d88:	46e1      	mov	r9, ip
   84d8a:	2301      	movs	r3, #1
   84d8c:	f7ff bb93 	b.w	844b6 <_vfiprintf_r+0x212>
   84d90:	9b05      	ldr	r3, [sp, #20]
   84d92:	4611      	mov	r1, r2
   84d94:	2001      	movs	r0, #1
   84d96:	4654      	mov	r4, sl
   84d98:	2b00      	cmp	r3, #0
   84d9a:	f43f ade5 	beq.w	84968 <_vfiprintf_r+0x6c4>
   84d9e:	aa0c      	add	r2, sp, #48	; 0x30
   84da0:	2302      	movs	r3, #2
   84da2:	e88a 000c 	stmia.w	sl, {r2, r3}
   84da6:	461a      	mov	r2, r3
   84da8:	e5d7      	b.n	8495a <_vfiprintf_r+0x6b6>
   84daa:	f018 0f10 	tst.w	r8, #16
   84dae:	d10b      	bne.n	84dc8 <_vfiprintf_r+0xb24>
   84db0:	f018 0f40 	tst.w	r8, #64	; 0x40
   84db4:	d008      	beq.n	84dc8 <_vfiprintf_r+0xb24>
   84db6:	9a04      	ldr	r2, [sp, #16]
   84db8:	6813      	ldr	r3, [r2, #0]
   84dba:	3204      	adds	r2, #4
   84dbc:	9204      	str	r2, [sp, #16]
   84dbe:	f8bd 2008 	ldrh.w	r2, [sp, #8]
   84dc2:	801a      	strh	r2, [r3, #0]
   84dc4:	f7ff baa0 	b.w	84308 <_vfiprintf_r+0x64>
   84dc8:	9a04      	ldr	r2, [sp, #16]
   84dca:	6813      	ldr	r3, [r2, #0]
   84dcc:	3204      	adds	r2, #4
   84dce:	9204      	str	r2, [sp, #16]
   84dd0:	9a02      	ldr	r2, [sp, #8]
   84dd2:	601a      	str	r2, [r3, #0]
   84dd4:	f7ff ba98 	b.w	84308 <_vfiprintf_r+0x64>
   84dd8:	9801      	ldr	r0, [sp, #4]
   84dda:	9900      	ldr	r1, [sp, #0]
   84ddc:	aa0d      	add	r2, sp, #52	; 0x34
   84dde:	f8cd c020 	str.w	ip, [sp, #32]
   84de2:	f7ff fa23 	bl	8422c <__sprint_r.part.0>
   84de6:	2800      	cmp	r0, #0
   84de8:	f47f ae1f 	bne.w	84a2a <_vfiprintf_r+0x786>
   84dec:	990e      	ldr	r1, [sp, #56]	; 0x38
   84dee:	4654      	mov	r4, sl
   84df0:	9a0f      	ldr	r2, [sp, #60]	; 0x3c
   84df2:	1c48      	adds	r0, r1, #1
   84df4:	f8dd c020 	ldr.w	ip, [sp, #32]
   84df8:	e592      	b.n	84920 <_vfiprintf_r+0x67c>
   84dfa:	f048 0820 	orr.w	r8, r8, #32
   84dfe:	f10b 0001 	add.w	r0, fp, #1
   84e02:	f89b 3001 	ldrb.w	r3, [fp, #1]
   84e06:	f7ff bab6 	b.w	84376 <_vfiprintf_r+0xd2>
   84e0a:	426d      	negs	r5, r5
   84e0c:	9304      	str	r3, [sp, #16]
   84e0e:	4658      	mov	r0, fp
   84e10:	f7ff bbc8 	b.w	845a4 <_vfiprintf_r+0x300>
   84e14:	9807      	ldr	r0, [sp, #28]
   84e16:	9504      	str	r5, [sp, #16]
   84e18:	f7fe f8c0 	bl	82f9c <strlen>
   84e1c:	f89d 502f 	ldrb.w	r5, [sp, #47]	; 0x2f
   84e20:	4681      	mov	r9, r0
   84e22:	f04f 0c00 	mov.w	ip, #0
   84e26:	f7ff bb6f 	b.w	84508 <_vfiprintf_r+0x264>
   84e2a:	9801      	ldr	r0, [sp, #4]
   84e2c:	9900      	ldr	r1, [sp, #0]
   84e2e:	aa0d      	add	r2, sp, #52	; 0x34
   84e30:	f8cd c014 	str.w	ip, [sp, #20]
   84e34:	f7ff f9fa 	bl	8422c <__sprint_r.part.0>
   84e38:	2800      	cmp	r0, #0
   84e3a:	f47f adf6 	bne.w	84a2a <_vfiprintf_r+0x786>
   84e3e:	990e      	ldr	r1, [sp, #56]	; 0x38
   84e40:	4654      	mov	r4, sl
   84e42:	9a0f      	ldr	r2, [sp, #60]	; 0x3c
   84e44:	1c48      	adds	r0, r1, #1
   84e46:	f8dd c014 	ldr.w	ip, [sp, #20]
   84e4a:	e58d      	b.n	84968 <_vfiprintf_r+0x6c4>
   84e4c:	990e      	ldr	r1, [sp, #56]	; 0x38
   84e4e:	9a0f      	ldr	r2, [sp, #60]	; 0x3c
   84e50:	3101      	adds	r1, #1
   84e52:	4f15      	ldr	r7, [pc, #84]	; (84ea8 <_vfiprintf_r+0xc04>)
   84e54:	f7ff bb9a 	b.w	8458c <_vfiprintf_r+0x2e8>
   84e58:	2e06      	cmp	r6, #6
   84e5a:	4b14      	ldr	r3, [pc, #80]	; (84eac <_vfiprintf_r+0xc08>)
   84e5c:	bf28      	it	cs
   84e5e:	f04f 0c06 	movcs.w	ip, #6
   84e62:	46e1      	mov	r9, ip
   84e64:	9504      	str	r5, [sp, #16]
   84e66:	ea2c 76ec 	bic.w	r6, ip, ip, asr #31
   84e6a:	9307      	str	r3, [sp, #28]
   84e6c:	e463      	b.n	84736 <_vfiprintf_r+0x492>
   84e6e:	990e      	ldr	r1, [sp, #56]	; 0x38
   84e70:	4f0d      	ldr	r7, [pc, #52]	; (84ea8 <_vfiprintf_r+0xc04>)
   84e72:	f101 0e01 	add.w	lr, r1, #1
   84e76:	e61a      	b.n	84aae <_vfiprintf_r+0x80a>
   84e78:	46e1      	mov	r9, ip
   84e7a:	9504      	str	r5, [sp, #16]
   84e7c:	4684      	mov	ip, r0
   84e7e:	f89d 502f 	ldrb.w	r5, [sp, #47]	; 0x2f
   84e82:	f7ff bb41 	b.w	84508 <_vfiprintf_r+0x264>
   84e86:	4686      	mov	lr, r0
   84e88:	4d09      	ldr	r5, [pc, #36]	; (84eb0 <_vfiprintf_r+0xc0c>)
   84e8a:	e66c      	b.n	84b66 <_vfiprintf_r+0x8c2>
   84e8c:	9a04      	ldr	r2, [sp, #16]
   84e8e:	f89b 3001 	ldrb.w	r3, [fp, #1]
   84e92:	6816      	ldr	r6, [r2, #0]
   84e94:	3204      	adds	r2, #4
   84e96:	2e00      	cmp	r6, #0
   84e98:	9204      	str	r2, [sp, #16]
   84e9a:	f6bf aa6c 	bge.w	84376 <_vfiprintf_r+0xd2>
   84e9e:	f04f 36ff 	mov.w	r6, #4294967295
   84ea2:	f7ff ba68 	b.w	84376 <_vfiprintf_r+0xd2>
   84ea6:	bf00      	nop
   84ea8:	00088a58 	.word	0x00088a58
   84eac:	00088a50 	.word	0x00088a50
   84eb0:	00088a18 	.word	0x00088a18

00084eb4 <__sbprintf>:
   84eb4:	e92d 45f0 	stmdb	sp!, {r4, r5, r6, r7, r8, sl, lr}
   84eb8:	4688      	mov	r8, r1
   84eba:	6e4f      	ldr	r7, [r1, #100]	; 0x64
   84ebc:	f2ad 4d6c 	subw	sp, sp, #1132	; 0x46c
   84ec0:	9719      	str	r7, [sp, #100]	; 0x64
   84ec2:	f8d8 701c 	ldr.w	r7, [r8, #28]
   84ec6:	f8b1 e00c 	ldrh.w	lr, [r1, #12]
   84eca:	f8b1 a00e 	ldrh.w	sl, [r1, #14]
   84ece:	9707      	str	r7, [sp, #28]
   84ed0:	f8d8 7024 	ldr.w	r7, [r8, #36]	; 0x24
   84ed4:	ac1a      	add	r4, sp, #104	; 0x68
   84ed6:	f44f 6580 	mov.w	r5, #1024	; 0x400
   84eda:	f02e 0e02 	bic.w	lr, lr, #2
   84ede:	2600      	movs	r6, #0
   84ee0:	4669      	mov	r1, sp
   84ee2:	9400      	str	r4, [sp, #0]
   84ee4:	9404      	str	r4, [sp, #16]
   84ee6:	9502      	str	r5, [sp, #8]
   84ee8:	9505      	str	r5, [sp, #20]
   84eea:	f8ad e00c 	strh.w	lr, [sp, #12]
   84eee:	f8ad a00e 	strh.w	sl, [sp, #14]
   84ef2:	9709      	str	r7, [sp, #36]	; 0x24
   84ef4:	9606      	str	r6, [sp, #24]
   84ef6:	4605      	mov	r5, r0
   84ef8:	f7ff f9d4 	bl	842a4 <_vfiprintf_r>
   84efc:	1e04      	subs	r4, r0, #0
   84efe:	db07      	blt.n	84f10 <__sbprintf+0x5c>
   84f00:	4628      	mov	r0, r5
   84f02:	4669      	mov	r1, sp
   84f04:	f000 f92a 	bl	8515c <_fflush_r>
   84f08:	42b0      	cmp	r0, r6
   84f0a:	bf18      	it	ne
   84f0c:	f04f 34ff 	movne.w	r4, #4294967295
   84f10:	f8bd 300c 	ldrh.w	r3, [sp, #12]
   84f14:	065b      	lsls	r3, r3, #25
   84f16:	d505      	bpl.n	84f24 <__sbprintf+0x70>
   84f18:	f8b8 300c 	ldrh.w	r3, [r8, #12]
   84f1c:	f043 0340 	orr.w	r3, r3, #64	; 0x40
   84f20:	f8a8 300c 	strh.w	r3, [r8, #12]
   84f24:	4620      	mov	r0, r4
   84f26:	f20d 4d6c 	addw	sp, sp, #1132	; 0x46c
   84f2a:	e8bd 85f0 	ldmia.w	sp!, {r4, r5, r6, r7, r8, sl, pc}
   84f2e:	bf00      	nop

00084f30 <__swsetup_r>:
   84f30:	b538      	push	{r3, r4, r5, lr}
   84f32:	4b2f      	ldr	r3, [pc, #188]	; (84ff0 <__swsetup_r+0xc0>)
   84f34:	4605      	mov	r5, r0
   84f36:	6818      	ldr	r0, [r3, #0]
   84f38:	460c      	mov	r4, r1
   84f3a:	b110      	cbz	r0, 84f42 <__swsetup_r+0x12>
   84f3c:	6b83      	ldr	r3, [r0, #56]	; 0x38
   84f3e:	2b00      	cmp	r3, #0
   84f40:	d036      	beq.n	84fb0 <__swsetup_r+0x80>
   84f42:	89a2      	ldrh	r2, [r4, #12]
   84f44:	b293      	uxth	r3, r2
   84f46:	0718      	lsls	r0, r3, #28
   84f48:	d50c      	bpl.n	84f64 <__swsetup_r+0x34>
   84f4a:	6920      	ldr	r0, [r4, #16]
   84f4c:	b1a8      	cbz	r0, 84f7a <__swsetup_r+0x4a>
   84f4e:	f013 0201 	ands.w	r2, r3, #1
   84f52:	d01e      	beq.n	84f92 <__swsetup_r+0x62>
   84f54:	6963      	ldr	r3, [r4, #20]
   84f56:	2200      	movs	r2, #0
   84f58:	425b      	negs	r3, r3
   84f5a:	61a3      	str	r3, [r4, #24]
   84f5c:	60a2      	str	r2, [r4, #8]
   84f5e:	b1f0      	cbz	r0, 84f9e <__swsetup_r+0x6e>
   84f60:	2000      	movs	r0, #0
   84f62:	bd38      	pop	{r3, r4, r5, pc}
   84f64:	06d9      	lsls	r1, r3, #27
   84f66:	d53a      	bpl.n	84fde <__swsetup_r+0xae>
   84f68:	0758      	lsls	r0, r3, #29
   84f6a:	d424      	bmi.n	84fb6 <__swsetup_r+0x86>
   84f6c:	6920      	ldr	r0, [r4, #16]
   84f6e:	f042 0308 	orr.w	r3, r2, #8
   84f72:	81a3      	strh	r3, [r4, #12]
   84f74:	b29b      	uxth	r3, r3
   84f76:	2800      	cmp	r0, #0
   84f78:	d1e9      	bne.n	84f4e <__swsetup_r+0x1e>
   84f7a:	f403 7220 	and.w	r2, r3, #640	; 0x280
   84f7e:	f5b2 7f00 	cmp.w	r2, #512	; 0x200
   84f82:	d0e4      	beq.n	84f4e <__swsetup_r+0x1e>
   84f84:	4628      	mov	r0, r5
   84f86:	4621      	mov	r1, r4
   84f88:	f001 f8c4 	bl	86114 <__smakebuf_r>
   84f8c:	89a3      	ldrh	r3, [r4, #12]
   84f8e:	6920      	ldr	r0, [r4, #16]
   84f90:	e7dd      	b.n	84f4e <__swsetup_r+0x1e>
   84f92:	0799      	lsls	r1, r3, #30
   84f94:	bf58      	it	pl
   84f96:	6962      	ldrpl	r2, [r4, #20]
   84f98:	60a2      	str	r2, [r4, #8]
   84f9a:	2800      	cmp	r0, #0
   84f9c:	d1e0      	bne.n	84f60 <__swsetup_r+0x30>
   84f9e:	89a3      	ldrh	r3, [r4, #12]
   84fa0:	061a      	lsls	r2, r3, #24
   84fa2:	d5de      	bpl.n	84f62 <__swsetup_r+0x32>
   84fa4:	f043 0340 	orr.w	r3, r3, #64	; 0x40
   84fa8:	81a3      	strh	r3, [r4, #12]
   84faa:	f04f 30ff 	mov.w	r0, #4294967295
   84fae:	bd38      	pop	{r3, r4, r5, pc}
   84fb0:	f000 f97a 	bl	852a8 <__sinit>
   84fb4:	e7c5      	b.n	84f42 <__swsetup_r+0x12>
   84fb6:	6b21      	ldr	r1, [r4, #48]	; 0x30
   84fb8:	b149      	cbz	r1, 84fce <__swsetup_r+0x9e>
   84fba:	f104 0340 	add.w	r3, r4, #64	; 0x40
   84fbe:	4299      	cmp	r1, r3
   84fc0:	d003      	beq.n	84fca <__swsetup_r+0x9a>
   84fc2:	4628      	mov	r0, r5
   84fc4:	f000 fa48 	bl	85458 <_free_r>
   84fc8:	89a2      	ldrh	r2, [r4, #12]
   84fca:	2300      	movs	r3, #0
   84fcc:	6323      	str	r3, [r4, #48]	; 0x30
   84fce:	6920      	ldr	r0, [r4, #16]
   84fd0:	f022 0224 	bic.w	r2, r2, #36	; 0x24
   84fd4:	2300      	movs	r3, #0
   84fd6:	b292      	uxth	r2, r2
   84fd8:	e884 0009 	stmia.w	r4, {r0, r3}
   84fdc:	e7c7      	b.n	84f6e <__swsetup_r+0x3e>
   84fde:	f042 0240 	orr.w	r2, r2, #64	; 0x40
   84fe2:	2309      	movs	r3, #9
   84fe4:	602b      	str	r3, [r5, #0]
   84fe6:	f04f 30ff 	mov.w	r0, #4294967295
   84fea:	81a2      	strh	r2, [r4, #12]
   84fec:	bd38      	pop	{r3, r4, r5, pc}
   84fee:	bf00      	nop
   84ff0:	20070530 	.word	0x20070530

00084ff4 <register_fini>:
   84ff4:	4b02      	ldr	r3, [pc, #8]	; (85000 <register_fini+0xc>)
   84ff6:	b113      	cbz	r3, 84ffe <register_fini+0xa>
   84ff8:	4802      	ldr	r0, [pc, #8]	; (85004 <register_fini+0x10>)
   84ffa:	f000 b805 	b.w	85008 <atexit>
   84ffe:	4770      	bx	lr
   85000:	00000000 	.word	0x00000000
   85004:	000852bd 	.word	0x000852bd

00085008 <atexit>:
   85008:	4601      	mov	r1, r0
   8500a:	2000      	movs	r0, #0
   8500c:	4602      	mov	r2, r0
   8500e:	4603      	mov	r3, r0
   85010:	f002 bbf8 	b.w	87804 <__register_exitproc>

00085014 <__sflush_r>:
   85014:	898b      	ldrh	r3, [r1, #12]
   85016:	e92d 41f0 	stmdb	sp!, {r4, r5, r6, r7, r8, lr}
   8501a:	b29a      	uxth	r2, r3
   8501c:	460d      	mov	r5, r1
   8501e:	0711      	lsls	r1, r2, #28
   85020:	4680      	mov	r8, r0
   85022:	d43c      	bmi.n	8509e <__sflush_r+0x8a>
   85024:	686a      	ldr	r2, [r5, #4]
   85026:	f443 6300 	orr.w	r3, r3, #2048	; 0x800
   8502a:	2a00      	cmp	r2, #0
   8502c:	81ab      	strh	r3, [r5, #12]
   8502e:	dd65      	ble.n	850fc <__sflush_r+0xe8>
   85030:	6aae      	ldr	r6, [r5, #40]	; 0x28
   85032:	2e00      	cmp	r6, #0
   85034:	d04b      	beq.n	850ce <__sflush_r+0xba>
   85036:	b29b      	uxth	r3, r3
   85038:	f403 5280 	and.w	r2, r3, #4096	; 0x1000
   8503c:	2100      	movs	r1, #0
   8503e:	b292      	uxth	r2, r2
   85040:	f8d8 4000 	ldr.w	r4, [r8]
   85044:	f8c8 1000 	str.w	r1, [r8]
   85048:	2a00      	cmp	r2, #0
   8504a:	d05b      	beq.n	85104 <__sflush_r+0xf0>
   8504c:	6d2a      	ldr	r2, [r5, #80]	; 0x50
   8504e:	075f      	lsls	r7, r3, #29
   85050:	d505      	bpl.n	8505e <__sflush_r+0x4a>
   85052:	6869      	ldr	r1, [r5, #4]
   85054:	6b2b      	ldr	r3, [r5, #48]	; 0x30
   85056:	1a52      	subs	r2, r2, r1
   85058:	b10b      	cbz	r3, 8505e <__sflush_r+0x4a>
   8505a:	6beb      	ldr	r3, [r5, #60]	; 0x3c
   8505c:	1ad2      	subs	r2, r2, r3
   8505e:	4640      	mov	r0, r8
   85060:	69e9      	ldr	r1, [r5, #28]
   85062:	2300      	movs	r3, #0
   85064:	47b0      	blx	r6
   85066:	1c46      	adds	r6, r0, #1
   85068:	d056      	beq.n	85118 <__sflush_r+0x104>
   8506a:	89ab      	ldrh	r3, [r5, #12]
   8506c:	692a      	ldr	r2, [r5, #16]
   8506e:	f423 6300 	bic.w	r3, r3, #2048	; 0x800
   85072:	b29b      	uxth	r3, r3
   85074:	2100      	movs	r1, #0
   85076:	602a      	str	r2, [r5, #0]
   85078:	04da      	lsls	r2, r3, #19
   8507a:	81ab      	strh	r3, [r5, #12]
   8507c:	6069      	str	r1, [r5, #4]
   8507e:	d43b      	bmi.n	850f8 <__sflush_r+0xe4>
   85080:	6b29      	ldr	r1, [r5, #48]	; 0x30
   85082:	f8c8 4000 	str.w	r4, [r8]
   85086:	b311      	cbz	r1, 850ce <__sflush_r+0xba>
   85088:	f105 0340 	add.w	r3, r5, #64	; 0x40
   8508c:	4299      	cmp	r1, r3
   8508e:	d002      	beq.n	85096 <__sflush_r+0x82>
   85090:	4640      	mov	r0, r8
   85092:	f000 f9e1 	bl	85458 <_free_r>
   85096:	2000      	movs	r0, #0
   85098:	6328      	str	r0, [r5, #48]	; 0x30
   8509a:	e8bd 81f0 	ldmia.w	sp!, {r4, r5, r6, r7, r8, pc}
   8509e:	692e      	ldr	r6, [r5, #16]
   850a0:	b1ae      	cbz	r6, 850ce <__sflush_r+0xba>
   850a2:	0791      	lsls	r1, r2, #30
   850a4:	682c      	ldr	r4, [r5, #0]
   850a6:	bf0c      	ite	eq
   850a8:	696b      	ldreq	r3, [r5, #20]
   850aa:	2300      	movne	r3, #0
   850ac:	602e      	str	r6, [r5, #0]
   850ae:	1ba4      	subs	r4, r4, r6
   850b0:	60ab      	str	r3, [r5, #8]
   850b2:	e00a      	b.n	850ca <__sflush_r+0xb6>
   850b4:	4632      	mov	r2, r6
   850b6:	4623      	mov	r3, r4
   850b8:	6a6f      	ldr	r7, [r5, #36]	; 0x24
   850ba:	4640      	mov	r0, r8
   850bc:	69e9      	ldr	r1, [r5, #28]
   850be:	47b8      	blx	r7
   850c0:	2800      	cmp	r0, #0
   850c2:	eba4 0400 	sub.w	r4, r4, r0
   850c6:	4406      	add	r6, r0
   850c8:	dd04      	ble.n	850d4 <__sflush_r+0xc0>
   850ca:	2c00      	cmp	r4, #0
   850cc:	dcf2      	bgt.n	850b4 <__sflush_r+0xa0>
   850ce:	2000      	movs	r0, #0
   850d0:	e8bd 81f0 	ldmia.w	sp!, {r4, r5, r6, r7, r8, pc}
   850d4:	89ab      	ldrh	r3, [r5, #12]
   850d6:	f04f 30ff 	mov.w	r0, #4294967295
   850da:	f043 0340 	orr.w	r3, r3, #64	; 0x40
   850de:	81ab      	strh	r3, [r5, #12]
   850e0:	e8bd 81f0 	ldmia.w	sp!, {r4, r5, r6, r7, r8, pc}
   850e4:	89ab      	ldrh	r3, [r5, #12]
   850e6:	692a      	ldr	r2, [r5, #16]
   850e8:	f423 6300 	bic.w	r3, r3, #2048	; 0x800
   850ec:	b29b      	uxth	r3, r3
   850ee:	81ab      	strh	r3, [r5, #12]
   850f0:	04db      	lsls	r3, r3, #19
   850f2:	6069      	str	r1, [r5, #4]
   850f4:	602a      	str	r2, [r5, #0]
   850f6:	d5c3      	bpl.n	85080 <__sflush_r+0x6c>
   850f8:	6528      	str	r0, [r5, #80]	; 0x50
   850fa:	e7c1      	b.n	85080 <__sflush_r+0x6c>
   850fc:	6bea      	ldr	r2, [r5, #60]	; 0x3c
   850fe:	2a00      	cmp	r2, #0
   85100:	dc96      	bgt.n	85030 <__sflush_r+0x1c>
   85102:	e7e4      	b.n	850ce <__sflush_r+0xba>
   85104:	2301      	movs	r3, #1
   85106:	4640      	mov	r0, r8
   85108:	69e9      	ldr	r1, [r5, #28]
   8510a:	47b0      	blx	r6
   8510c:	1c43      	adds	r3, r0, #1
   8510e:	4602      	mov	r2, r0
   85110:	d019      	beq.n	85146 <__sflush_r+0x132>
   85112:	89ab      	ldrh	r3, [r5, #12]
   85114:	6aae      	ldr	r6, [r5, #40]	; 0x28
   85116:	e79a      	b.n	8504e <__sflush_r+0x3a>
   85118:	f8d8 1000 	ldr.w	r1, [r8]
   8511c:	2900      	cmp	r1, #0
   8511e:	d0e1      	beq.n	850e4 <__sflush_r+0xd0>
   85120:	291d      	cmp	r1, #29
   85122:	d007      	beq.n	85134 <__sflush_r+0x120>
   85124:	2916      	cmp	r1, #22
   85126:	d005      	beq.n	85134 <__sflush_r+0x120>
   85128:	89ab      	ldrh	r3, [r5, #12]
   8512a:	f043 0340 	orr.w	r3, r3, #64	; 0x40
   8512e:	81ab      	strh	r3, [r5, #12]
   85130:	e8bd 81f0 	ldmia.w	sp!, {r4, r5, r6, r7, r8, pc}
   85134:	89ab      	ldrh	r3, [r5, #12]
   85136:	6929      	ldr	r1, [r5, #16]
   85138:	f423 6300 	bic.w	r3, r3, #2048	; 0x800
   8513c:	2200      	movs	r2, #0
   8513e:	81ab      	strh	r3, [r5, #12]
   85140:	e885 0006 	stmia.w	r5, {r1, r2}
   85144:	e79c      	b.n	85080 <__sflush_r+0x6c>
   85146:	f8d8 3000 	ldr.w	r3, [r8]
   8514a:	2b00      	cmp	r3, #0
   8514c:	d0e1      	beq.n	85112 <__sflush_r+0xfe>
   8514e:	2b1d      	cmp	r3, #29
   85150:	d001      	beq.n	85156 <__sflush_r+0x142>
   85152:	2b16      	cmp	r3, #22
   85154:	d1be      	bne.n	850d4 <__sflush_r+0xc0>
   85156:	f8c8 4000 	str.w	r4, [r8]
   8515a:	e7b8      	b.n	850ce <__sflush_r+0xba>

0008515c <_fflush_r>:
   8515c:	b510      	push	{r4, lr}
   8515e:	4604      	mov	r4, r0
   85160:	b082      	sub	sp, #8
   85162:	b108      	cbz	r0, 85168 <_fflush_r+0xc>
   85164:	6b83      	ldr	r3, [r0, #56]	; 0x38
   85166:	b153      	cbz	r3, 8517e <_fflush_r+0x22>
   85168:	f9b1 000c 	ldrsh.w	r0, [r1, #12]
   8516c:	b908      	cbnz	r0, 85172 <_fflush_r+0x16>
   8516e:	b002      	add	sp, #8
   85170:	bd10      	pop	{r4, pc}
   85172:	4620      	mov	r0, r4
   85174:	b002      	add	sp, #8
   85176:	e8bd 4010 	ldmia.w	sp!, {r4, lr}
   8517a:	f7ff bf4b 	b.w	85014 <__sflush_r>
   8517e:	9101      	str	r1, [sp, #4]
   85180:	f000 f892 	bl	852a8 <__sinit>
   85184:	9901      	ldr	r1, [sp, #4]
   85186:	e7ef      	b.n	85168 <_fflush_r+0xc>

00085188 <fflush>:
   85188:	b120      	cbz	r0, 85194 <fflush+0xc>
   8518a:	4b05      	ldr	r3, [pc, #20]	; (851a0 <fflush+0x18>)
   8518c:	4601      	mov	r1, r0
   8518e:	6818      	ldr	r0, [r3, #0]
   85190:	f7ff bfe4 	b.w	8515c <_fflush_r>
   85194:	4b03      	ldr	r3, [pc, #12]	; (851a4 <fflush+0x1c>)
   85196:	4904      	ldr	r1, [pc, #16]	; (851a8 <fflush+0x20>)
   85198:	6818      	ldr	r0, [r3, #0]
   8519a:	f000 bbe9 	b.w	85970 <_fwalk_reent>
   8519e:	bf00      	nop
   851a0:	20070530 	.word	0x20070530
   851a4:	00088988 	.word	0x00088988
   851a8:	0008515d 	.word	0x0008515d

000851ac <_cleanup_r>:
   851ac:	4901      	ldr	r1, [pc, #4]	; (851b4 <_cleanup_r+0x8>)
   851ae:	f000 bbdf 	b.w	85970 <_fwalk_reent>
   851b2:	bf00      	nop
   851b4:	0008792d 	.word	0x0008792d

000851b8 <__sinit.part.1>:
   851b8:	e92d 4ff0 	stmdb	sp!, {r4, r5, r6, r7, r8, r9, sl, fp, lr}
   851bc:	4607      	mov	r7, r0
   851be:	4835      	ldr	r0, [pc, #212]	; (85294 <__sinit.part.1+0xdc>)
   851c0:	687d      	ldr	r5, [r7, #4]
   851c2:	2400      	movs	r4, #0
   851c4:	f507 723b 	add.w	r2, r7, #748	; 0x2ec
   851c8:	2304      	movs	r3, #4
   851ca:	2103      	movs	r1, #3
   851cc:	63f8      	str	r0, [r7, #60]	; 0x3c
   851ce:	f8c7 12e4 	str.w	r1, [r7, #740]	; 0x2e4
   851d2:	f8c7 22e8 	str.w	r2, [r7, #744]	; 0x2e8
   851d6:	f8c7 42e0 	str.w	r4, [r7, #736]	; 0x2e0
   851da:	b083      	sub	sp, #12
   851dc:	602c      	str	r4, [r5, #0]
   851de:	606c      	str	r4, [r5, #4]
   851e0:	60ac      	str	r4, [r5, #8]
   851e2:	666c      	str	r4, [r5, #100]	; 0x64
   851e4:	81ec      	strh	r4, [r5, #14]
   851e6:	612c      	str	r4, [r5, #16]
   851e8:	616c      	str	r4, [r5, #20]
   851ea:	61ac      	str	r4, [r5, #24]
   851ec:	81ab      	strh	r3, [r5, #12]
   851ee:	4621      	mov	r1, r4
   851f0:	f105 005c 	add.w	r0, r5, #92	; 0x5c
   851f4:	2208      	movs	r2, #8
   851f6:	f7fd fde5 	bl	82dc4 <memset>
   851fa:	f8df b09c 	ldr.w	fp, [pc, #156]	; 85298 <__sinit.part.1+0xe0>
   851fe:	68be      	ldr	r6, [r7, #8]
   85200:	f8df a098 	ldr.w	sl, [pc, #152]	; 8529c <__sinit.part.1+0xe4>
   85204:	f8df 9098 	ldr.w	r9, [pc, #152]	; 852a0 <__sinit.part.1+0xe8>
   85208:	f8df 8098 	ldr.w	r8, [pc, #152]	; 852a4 <__sinit.part.1+0xec>
   8520c:	2301      	movs	r3, #1
   8520e:	2209      	movs	r2, #9
   85210:	f8c5 b020 	str.w	fp, [r5, #32]
   85214:	f8c5 a024 	str.w	sl, [r5, #36]	; 0x24
   85218:	f8c5 9028 	str.w	r9, [r5, #40]	; 0x28
   8521c:	f8c5 802c 	str.w	r8, [r5, #44]	; 0x2c
   85220:	61ed      	str	r5, [r5, #28]
   85222:	4621      	mov	r1, r4
   85224:	81f3      	strh	r3, [r6, #14]
   85226:	81b2      	strh	r2, [r6, #12]
   85228:	f106 005c 	add.w	r0, r6, #92	; 0x5c
   8522c:	6034      	str	r4, [r6, #0]
   8522e:	6074      	str	r4, [r6, #4]
   85230:	60b4      	str	r4, [r6, #8]
   85232:	6674      	str	r4, [r6, #100]	; 0x64
   85234:	6134      	str	r4, [r6, #16]
   85236:	6174      	str	r4, [r6, #20]
   85238:	61b4      	str	r4, [r6, #24]
   8523a:	2208      	movs	r2, #8
   8523c:	9301      	str	r3, [sp, #4]
   8523e:	f7fd fdc1 	bl	82dc4 <memset>
   85242:	68fd      	ldr	r5, [r7, #12]
   85244:	2012      	movs	r0, #18
   85246:	2202      	movs	r2, #2
   85248:	61f6      	str	r6, [r6, #28]
   8524a:	f8c6 b020 	str.w	fp, [r6, #32]
   8524e:	f8c6 a024 	str.w	sl, [r6, #36]	; 0x24
   85252:	f8c6 9028 	str.w	r9, [r6, #40]	; 0x28
   85256:	f8c6 802c 	str.w	r8, [r6, #44]	; 0x2c
   8525a:	4621      	mov	r1, r4
   8525c:	81a8      	strh	r0, [r5, #12]
   8525e:	81ea      	strh	r2, [r5, #14]
   85260:	602c      	str	r4, [r5, #0]
   85262:	606c      	str	r4, [r5, #4]
   85264:	60ac      	str	r4, [r5, #8]
   85266:	666c      	str	r4, [r5, #100]	; 0x64
   85268:	612c      	str	r4, [r5, #16]
   8526a:	616c      	str	r4, [r5, #20]
   8526c:	61ac      	str	r4, [r5, #24]
   8526e:	f105 005c 	add.w	r0, r5, #92	; 0x5c
   85272:	2208      	movs	r2, #8
   85274:	f7fd fda6 	bl	82dc4 <memset>
   85278:	9b01      	ldr	r3, [sp, #4]
   8527a:	61ed      	str	r5, [r5, #28]
   8527c:	f8c5 b020 	str.w	fp, [r5, #32]
   85280:	f8c5 a024 	str.w	sl, [r5, #36]	; 0x24
   85284:	f8c5 9028 	str.w	r9, [r5, #40]	; 0x28
   85288:	f8c5 802c 	str.w	r8, [r5, #44]	; 0x2c
   8528c:	63bb      	str	r3, [r7, #56]	; 0x38
   8528e:	b003      	add	sp, #12
   85290:	e8bd 8ff0 	ldmia.w	sp!, {r4, r5, r6, r7, r8, r9, sl, fp, pc}
   85294:	000851ad 	.word	0x000851ad
   85298:	00087641 	.word	0x00087641
   8529c:	00087665 	.word	0x00087665
   852a0:	0008769d 	.word	0x0008769d
   852a4:	000876bd 	.word	0x000876bd

000852a8 <__sinit>:
   852a8:	6b83      	ldr	r3, [r0, #56]	; 0x38
   852aa:	b103      	cbz	r3, 852ae <__sinit+0x6>
   852ac:	4770      	bx	lr
   852ae:	f7ff bf83 	b.w	851b8 <__sinit.part.1>
   852b2:	bf00      	nop

000852b4 <__sfp_lock_acquire>:
   852b4:	4770      	bx	lr
   852b6:	bf00      	nop

000852b8 <__sfp_lock_release>:
   852b8:	4770      	bx	lr
   852ba:	bf00      	nop

000852bc <__libc_fini_array>:
   852bc:	b538      	push	{r3, r4, r5, lr}
   852be:	4b08      	ldr	r3, [pc, #32]	; (852e0 <__libc_fini_array+0x24>)
   852c0:	4d08      	ldr	r5, [pc, #32]	; (852e4 <__libc_fini_array+0x28>)
   852c2:	1aed      	subs	r5, r5, r3
   852c4:	10ac      	asrs	r4, r5, #2
   852c6:	bf18      	it	ne
   852c8:	18ed      	addne	r5, r5, r3
   852ca:	d005      	beq.n	852d8 <__libc_fini_array+0x1c>
   852cc:	3c01      	subs	r4, #1
   852ce:	f855 3d04 	ldr.w	r3, [r5, #-4]!
   852d2:	4798      	blx	r3
   852d4:	2c00      	cmp	r4, #0
   852d6:	d1f9      	bne.n	852cc <__libc_fini_array+0x10>
   852d8:	e8bd 4038 	ldmia.w	sp!, {r3, r4, r5, lr}
   852dc:	f003 bd56 	b.w	88d8c <_fini>
   852e0:	00088d98 	.word	0x00088d98
   852e4:	00088d9c 	.word	0x00088d9c

000852e8 <__fputwc>:
   852e8:	e92d 41f0 	stmdb	sp!, {r4, r5, r6, r7, r8, lr}
   852ec:	b082      	sub	sp, #8
   852ee:	4607      	mov	r7, r0
   852f0:	460e      	mov	r6, r1
   852f2:	4614      	mov	r4, r2
   852f4:	f000 ff04 	bl	86100 <__locale_mb_cur_max>
   852f8:	2801      	cmp	r0, #1
   852fa:	d040      	beq.n	8537e <__fputwc+0x96>
   852fc:	4638      	mov	r0, r7
   852fe:	a901      	add	r1, sp, #4
   85300:	4632      	mov	r2, r6
   85302:	f104 035c 	add.w	r3, r4, #92	; 0x5c
   85306:	f002 fa31 	bl	8776c <_wcrtomb_r>
   8530a:	f1b0 3fff 	cmp.w	r0, #4294967295
   8530e:	4680      	mov	r8, r0
   85310:	d02e      	beq.n	85370 <__fputwc+0x88>
   85312:	2800      	cmp	r0, #0
   85314:	d03b      	beq.n	8538e <__fputwc+0xa6>
   85316:	f89d 1004 	ldrb.w	r1, [sp, #4]
   8531a:	2500      	movs	r5, #0
   8531c:	e009      	b.n	85332 <__fputwc+0x4a>
   8531e:	6823      	ldr	r3, [r4, #0]
   85320:	7019      	strb	r1, [r3, #0]
   85322:	6823      	ldr	r3, [r4, #0]
   85324:	3301      	adds	r3, #1
   85326:	6023      	str	r3, [r4, #0]
   85328:	3501      	adds	r5, #1
   8532a:	45a8      	cmp	r8, r5
   8532c:	d92f      	bls.n	8538e <__fputwc+0xa6>
   8532e:	ab01      	add	r3, sp, #4
   85330:	5d59      	ldrb	r1, [r3, r5]
   85332:	68a3      	ldr	r3, [r4, #8]
   85334:	3b01      	subs	r3, #1
   85336:	2b00      	cmp	r3, #0
   85338:	60a3      	str	r3, [r4, #8]
   8533a:	daf0      	bge.n	8531e <__fputwc+0x36>
   8533c:	69a2      	ldr	r2, [r4, #24]
   8533e:	4293      	cmp	r3, r2
   85340:	db06      	blt.n	85350 <__fputwc+0x68>
   85342:	6823      	ldr	r3, [r4, #0]
   85344:	7019      	strb	r1, [r3, #0]
   85346:	6823      	ldr	r3, [r4, #0]
   85348:	7819      	ldrb	r1, [r3, #0]
   8534a:	3301      	adds	r3, #1
   8534c:	290a      	cmp	r1, #10
   8534e:	d1ea      	bne.n	85326 <__fputwc+0x3e>
   85350:	4638      	mov	r0, r7
   85352:	4622      	mov	r2, r4
   85354:	f002 f9b6 	bl	876c4 <__swbuf_r>
   85358:	f1a0 30ff 	sub.w	r0, r0, #4294967295
   8535c:	fab0 f080 	clz	r0, r0
   85360:	0940      	lsrs	r0, r0, #5
   85362:	2800      	cmp	r0, #0
   85364:	d0e0      	beq.n	85328 <__fputwc+0x40>
   85366:	f04f 30ff 	mov.w	r0, #4294967295
   8536a:	b002      	add	sp, #8
   8536c:	e8bd 81f0 	ldmia.w	sp!, {r4, r5, r6, r7, r8, pc}
   85370:	89a3      	ldrh	r3, [r4, #12]
   85372:	f043 0340 	orr.w	r3, r3, #64	; 0x40
   85376:	81a3      	strh	r3, [r4, #12]
   85378:	b002      	add	sp, #8
   8537a:	e8bd 81f0 	ldmia.w	sp!, {r4, r5, r6, r7, r8, pc}
   8537e:	1e73      	subs	r3, r6, #1
   85380:	2bfe      	cmp	r3, #254	; 0xfe
   85382:	d8bb      	bhi.n	852fc <__fputwc+0x14>
   85384:	b2f1      	uxtb	r1, r6
   85386:	4680      	mov	r8, r0
   85388:	f88d 1004 	strb.w	r1, [sp, #4]
   8538c:	e7c5      	b.n	8531a <__fputwc+0x32>
   8538e:	4630      	mov	r0, r6
   85390:	b002      	add	sp, #8
   85392:	e8bd 81f0 	ldmia.w	sp!, {r4, r5, r6, r7, r8, pc}
   85396:	bf00      	nop

00085398 <_fputwc_r>:
   85398:	8993      	ldrh	r3, [r2, #12]
   8539a:	f413 5f00 	tst.w	r3, #8192	; 0x2000
   8539e:	d10b      	bne.n	853b8 <_fputwc_r+0x20>
   853a0:	b410      	push	{r4}
   853a2:	6e54      	ldr	r4, [r2, #100]	; 0x64
   853a4:	f443 5300 	orr.w	r3, r3, #8192	; 0x2000
   853a8:	f444 5400 	orr.w	r4, r4, #8192	; 0x2000
   853ac:	6654      	str	r4, [r2, #100]	; 0x64
   853ae:	8193      	strh	r3, [r2, #12]
   853b0:	f85d 4b04 	ldr.w	r4, [sp], #4
   853b4:	f7ff bf98 	b.w	852e8 <__fputwc>
   853b8:	f7ff bf96 	b.w	852e8 <__fputwc>

000853bc <_malloc_trim_r>:
   853bc:	b5f8      	push	{r3, r4, r5, r6, r7, lr}
   853be:	460c      	mov	r4, r1
   853c0:	4f22      	ldr	r7, [pc, #136]	; (8544c <_malloc_trim_r+0x90>)
   853c2:	4606      	mov	r6, r0
   853c4:	f001 fa52 	bl	8686c <__malloc_lock>
   853c8:	68bb      	ldr	r3, [r7, #8]
   853ca:	685d      	ldr	r5, [r3, #4]
   853cc:	f025 0503 	bic.w	r5, r5, #3
   853d0:	1b29      	subs	r1, r5, r4
   853d2:	f601 71ef 	addw	r1, r1, #4079	; 0xfef
   853d6:	f421 617f 	bic.w	r1, r1, #4080	; 0xff0
   853da:	f021 010f 	bic.w	r1, r1, #15
   853de:	f5a1 5480 	sub.w	r4, r1, #4096	; 0x1000
   853e2:	f5b4 5f80 	cmp.w	r4, #4096	; 0x1000
   853e6:	db07      	blt.n	853f8 <_malloc_trim_r+0x3c>
   853e8:	4630      	mov	r0, r6
   853ea:	2100      	movs	r1, #0
   853ec:	f002 f916 	bl	8761c <_sbrk_r>
   853f0:	68bb      	ldr	r3, [r7, #8]
   853f2:	442b      	add	r3, r5
   853f4:	4298      	cmp	r0, r3
   853f6:	d004      	beq.n	85402 <_malloc_trim_r+0x46>
   853f8:	4630      	mov	r0, r6
   853fa:	f001 fa39 	bl	86870 <__malloc_unlock>
   853fe:	2000      	movs	r0, #0
   85400:	bdf8      	pop	{r3, r4, r5, r6, r7, pc}
   85402:	4630      	mov	r0, r6
   85404:	4261      	negs	r1, r4
   85406:	f002 f909 	bl	8761c <_sbrk_r>
   8540a:	3001      	adds	r0, #1
   8540c:	d00d      	beq.n	8542a <_malloc_trim_r+0x6e>
   8540e:	4b10      	ldr	r3, [pc, #64]	; (85450 <_malloc_trim_r+0x94>)
   85410:	68ba      	ldr	r2, [r7, #8]
   85412:	6819      	ldr	r1, [r3, #0]
   85414:	1b2d      	subs	r5, r5, r4
   85416:	f045 0501 	orr.w	r5, r5, #1
   8541a:	4630      	mov	r0, r6
   8541c:	1b09      	subs	r1, r1, r4
   8541e:	6055      	str	r5, [r2, #4]
   85420:	6019      	str	r1, [r3, #0]
   85422:	f001 fa25 	bl	86870 <__malloc_unlock>
   85426:	2001      	movs	r0, #1
   85428:	bdf8      	pop	{r3, r4, r5, r6, r7, pc}
   8542a:	4630      	mov	r0, r6
   8542c:	2100      	movs	r1, #0
   8542e:	f002 f8f5 	bl	8761c <_sbrk_r>
   85432:	68ba      	ldr	r2, [r7, #8]
   85434:	1a83      	subs	r3, r0, r2
   85436:	2b0f      	cmp	r3, #15
   85438:	ddde      	ble.n	853f8 <_malloc_trim_r+0x3c>
   8543a:	4c06      	ldr	r4, [pc, #24]	; (85454 <_malloc_trim_r+0x98>)
   8543c:	4904      	ldr	r1, [pc, #16]	; (85450 <_malloc_trim_r+0x94>)
   8543e:	6824      	ldr	r4, [r4, #0]
   85440:	f043 0301 	orr.w	r3, r3, #1
   85444:	1b00      	subs	r0, r0, r4
   85446:	6053      	str	r3, [r2, #4]
   85448:	6008      	str	r0, [r1, #0]
   8544a:	e7d5      	b.n	853f8 <_malloc_trim_r+0x3c>
   8544c:	20070594 	.word	0x20070594
   85450:	2007ad84 	.word	0x2007ad84
   85454:	200709a0 	.word	0x200709a0

00085458 <_free_r>:
   85458:	2900      	cmp	r1, #0
   8545a:	d04e      	beq.n	854fa <_free_r+0xa2>
   8545c:	e92d 41f0 	stmdb	sp!, {r4, r5, r6, r7, r8, lr}
   85460:	460c      	mov	r4, r1
   85462:	4680      	mov	r8, r0
   85464:	f001 fa02 	bl	8686c <__malloc_lock>
   85468:	f854 7c04 	ldr.w	r7, [r4, #-4]
   8546c:	4962      	ldr	r1, [pc, #392]	; (855f8 <_free_r+0x1a0>)
   8546e:	f1a4 0508 	sub.w	r5, r4, #8
   85472:	f027 0201 	bic.w	r2, r7, #1
   85476:	18ab      	adds	r3, r5, r2
   85478:	688e      	ldr	r6, [r1, #8]
   8547a:	6858      	ldr	r0, [r3, #4]
   8547c:	429e      	cmp	r6, r3
   8547e:	f020 0003 	bic.w	r0, r0, #3
   85482:	d05a      	beq.n	8553a <_free_r+0xe2>
   85484:	07fe      	lsls	r6, r7, #31
   85486:	6058      	str	r0, [r3, #4]
   85488:	d40b      	bmi.n	854a2 <_free_r+0x4a>
   8548a:	f854 7c08 	ldr.w	r7, [r4, #-8]
   8548e:	f101 0e08 	add.w	lr, r1, #8
   85492:	1bed      	subs	r5, r5, r7
   85494:	68ac      	ldr	r4, [r5, #8]
   85496:	443a      	add	r2, r7
   85498:	4574      	cmp	r4, lr
   8549a:	d067      	beq.n	8556c <_free_r+0x114>
   8549c:	68ef      	ldr	r7, [r5, #12]
   8549e:	60e7      	str	r7, [r4, #12]
   854a0:	60bc      	str	r4, [r7, #8]
   854a2:	181c      	adds	r4, r3, r0
   854a4:	6864      	ldr	r4, [r4, #4]
   854a6:	07e4      	lsls	r4, r4, #31
   854a8:	d40c      	bmi.n	854c4 <_free_r+0x6c>
   854aa:	4f54      	ldr	r7, [pc, #336]	; (855fc <_free_r+0x1a4>)
   854ac:	689c      	ldr	r4, [r3, #8]
   854ae:	4402      	add	r2, r0
   854b0:	42bc      	cmp	r4, r7
   854b2:	d07c      	beq.n	855ae <_free_r+0x156>
   854b4:	68d8      	ldr	r0, [r3, #12]
   854b6:	f042 0301 	orr.w	r3, r2, #1
   854ba:	60e0      	str	r0, [r4, #12]
   854bc:	6084      	str	r4, [r0, #8]
   854be:	606b      	str	r3, [r5, #4]
   854c0:	50aa      	str	r2, [r5, r2]
   854c2:	e003      	b.n	854cc <_free_r+0x74>
   854c4:	f042 0301 	orr.w	r3, r2, #1
   854c8:	606b      	str	r3, [r5, #4]
   854ca:	50aa      	str	r2, [r5, r2]
   854cc:	f5b2 7f00 	cmp.w	r2, #512	; 0x200
   854d0:	d214      	bcs.n	854fc <_free_r+0xa4>
   854d2:	08d2      	lsrs	r2, r2, #3
   854d4:	eb01 03c2 	add.w	r3, r1, r2, lsl #3
   854d8:	2401      	movs	r4, #1
   854da:	6848      	ldr	r0, [r1, #4]
   854dc:	1092      	asrs	r2, r2, #2
   854de:	fa04 f202 	lsl.w	r2, r4, r2
   854e2:	689c      	ldr	r4, [r3, #8]
   854e4:	4310      	orrs	r0, r2
   854e6:	60ac      	str	r4, [r5, #8]
   854e8:	60eb      	str	r3, [r5, #12]
   854ea:	6048      	str	r0, [r1, #4]
   854ec:	609d      	str	r5, [r3, #8]
   854ee:	60e5      	str	r5, [r4, #12]
   854f0:	4640      	mov	r0, r8
   854f2:	e8bd 41f0 	ldmia.w	sp!, {r4, r5, r6, r7, r8, lr}
   854f6:	f001 b9bb 	b.w	86870 <__malloc_unlock>
   854fa:	4770      	bx	lr
   854fc:	0a53      	lsrs	r3, r2, #9
   854fe:	2b04      	cmp	r3, #4
   85500:	d847      	bhi.n	85592 <_free_r+0x13a>
   85502:	0993      	lsrs	r3, r2, #6
   85504:	f103 0438 	add.w	r4, r3, #56	; 0x38
   85508:	0060      	lsls	r0, r4, #1
   8550a:	eb01 0080 	add.w	r0, r1, r0, lsl #2
   8550e:	6883      	ldr	r3, [r0, #8]
   85510:	4939      	ldr	r1, [pc, #228]	; (855f8 <_free_r+0x1a0>)
   85512:	4283      	cmp	r3, r0
   85514:	d043      	beq.n	8559e <_free_r+0x146>
   85516:	6859      	ldr	r1, [r3, #4]
   85518:	f021 0103 	bic.w	r1, r1, #3
   8551c:	4291      	cmp	r1, r2
   8551e:	d902      	bls.n	85526 <_free_r+0xce>
   85520:	689b      	ldr	r3, [r3, #8]
   85522:	4298      	cmp	r0, r3
   85524:	d1f7      	bne.n	85516 <_free_r+0xbe>
   85526:	68da      	ldr	r2, [r3, #12]
   85528:	60ea      	str	r2, [r5, #12]
   8552a:	60ab      	str	r3, [r5, #8]
   8552c:	4640      	mov	r0, r8
   8552e:	6095      	str	r5, [r2, #8]
   85530:	60dd      	str	r5, [r3, #12]
   85532:	e8bd 41f0 	ldmia.w	sp!, {r4, r5, r6, r7, r8, lr}
   85536:	f001 b99b 	b.w	86870 <__malloc_unlock>
   8553a:	07ff      	lsls	r7, r7, #31
   8553c:	4402      	add	r2, r0
   8553e:	d407      	bmi.n	85550 <_free_r+0xf8>
   85540:	f854 4c08 	ldr.w	r4, [r4, #-8]
   85544:	1b2d      	subs	r5, r5, r4
   85546:	68eb      	ldr	r3, [r5, #12]
   85548:	68a8      	ldr	r0, [r5, #8]
   8554a:	4422      	add	r2, r4
   8554c:	60c3      	str	r3, [r0, #12]
   8554e:	6098      	str	r0, [r3, #8]
   85550:	4b2b      	ldr	r3, [pc, #172]	; (85600 <_free_r+0x1a8>)
   85552:	f042 0001 	orr.w	r0, r2, #1
   85556:	681b      	ldr	r3, [r3, #0]
   85558:	6068      	str	r0, [r5, #4]
   8555a:	429a      	cmp	r2, r3
   8555c:	608d      	str	r5, [r1, #8]
   8555e:	d3c7      	bcc.n	854f0 <_free_r+0x98>
   85560:	4b28      	ldr	r3, [pc, #160]	; (85604 <_free_r+0x1ac>)
   85562:	4640      	mov	r0, r8
   85564:	6819      	ldr	r1, [r3, #0]
   85566:	f7ff ff29 	bl	853bc <_malloc_trim_r>
   8556a:	e7c1      	b.n	854f0 <_free_r+0x98>
   8556c:	1819      	adds	r1, r3, r0
   8556e:	6849      	ldr	r1, [r1, #4]
   85570:	07c9      	lsls	r1, r1, #31
   85572:	d409      	bmi.n	85588 <_free_r+0x130>
   85574:	68d9      	ldr	r1, [r3, #12]
   85576:	4402      	add	r2, r0
   85578:	689b      	ldr	r3, [r3, #8]
   8557a:	f042 0001 	orr.w	r0, r2, #1
   8557e:	60d9      	str	r1, [r3, #12]
   85580:	608b      	str	r3, [r1, #8]
   85582:	6068      	str	r0, [r5, #4]
   85584:	50aa      	str	r2, [r5, r2]
   85586:	e7b3      	b.n	854f0 <_free_r+0x98>
   85588:	f042 0301 	orr.w	r3, r2, #1
   8558c:	606b      	str	r3, [r5, #4]
   8558e:	50aa      	str	r2, [r5, r2]
   85590:	e7ae      	b.n	854f0 <_free_r+0x98>
   85592:	2b14      	cmp	r3, #20
   85594:	d814      	bhi.n	855c0 <_free_r+0x168>
   85596:	f103 045b 	add.w	r4, r3, #91	; 0x5b
   8559a:	0060      	lsls	r0, r4, #1
   8559c:	e7b5      	b.n	8550a <_free_r+0xb2>
   8559e:	684a      	ldr	r2, [r1, #4]
   855a0:	10a4      	asrs	r4, r4, #2
   855a2:	2001      	movs	r0, #1
   855a4:	40a0      	lsls	r0, r4
   855a6:	4302      	orrs	r2, r0
   855a8:	604a      	str	r2, [r1, #4]
   855aa:	461a      	mov	r2, r3
   855ac:	e7bc      	b.n	85528 <_free_r+0xd0>
   855ae:	f042 0301 	orr.w	r3, r2, #1
   855b2:	614d      	str	r5, [r1, #20]
   855b4:	610d      	str	r5, [r1, #16]
   855b6:	60ec      	str	r4, [r5, #12]
   855b8:	60ac      	str	r4, [r5, #8]
   855ba:	606b      	str	r3, [r5, #4]
   855bc:	50aa      	str	r2, [r5, r2]
   855be:	e797      	b.n	854f0 <_free_r+0x98>
   855c0:	2b54      	cmp	r3, #84	; 0x54
   855c2:	d804      	bhi.n	855ce <_free_r+0x176>
   855c4:	0b13      	lsrs	r3, r2, #12
   855c6:	f103 046e 	add.w	r4, r3, #110	; 0x6e
   855ca:	0060      	lsls	r0, r4, #1
   855cc:	e79d      	b.n	8550a <_free_r+0xb2>
   855ce:	f5b3 7faa 	cmp.w	r3, #340	; 0x154
   855d2:	d804      	bhi.n	855de <_free_r+0x186>
   855d4:	0bd3      	lsrs	r3, r2, #15
   855d6:	f103 0477 	add.w	r4, r3, #119	; 0x77
   855da:	0060      	lsls	r0, r4, #1
   855dc:	e795      	b.n	8550a <_free_r+0xb2>
   855de:	f240 5054 	movw	r0, #1364	; 0x554
   855e2:	4283      	cmp	r3, r0
   855e4:	d804      	bhi.n	855f0 <_free_r+0x198>
   855e6:	0c93      	lsrs	r3, r2, #18
   855e8:	f103 047c 	add.w	r4, r3, #124	; 0x7c
   855ec:	0060      	lsls	r0, r4, #1
   855ee:	e78c      	b.n	8550a <_free_r+0xb2>
   855f0:	20fc      	movs	r0, #252	; 0xfc
   855f2:	247e      	movs	r4, #126	; 0x7e
   855f4:	e789      	b.n	8550a <_free_r+0xb2>
   855f6:	bf00      	nop
   855f8:	20070594 	.word	0x20070594
   855fc:	2007059c 	.word	0x2007059c
   85600:	2007099c 	.word	0x2007099c
   85604:	2007ad80 	.word	0x2007ad80

00085608 <__sfvwrite_r>:
   85608:	6893      	ldr	r3, [r2, #8]
   8560a:	2b00      	cmp	r3, #0
   8560c:	f000 80b1 	beq.w	85772 <__sfvwrite_r+0x16a>
   85610:	e92d 4ff0 	stmdb	sp!, {r4, r5, r6, r7, r8, r9, sl, fp, lr}
   85614:	f8b1 e00c 	ldrh.w	lr, [r1, #12]
   85618:	b083      	sub	sp, #12
   8561a:	f01e 0f08 	tst.w	lr, #8
   8561e:	460c      	mov	r4, r1
   85620:	4681      	mov	r9, r0
   85622:	4616      	mov	r6, r2
   85624:	d028      	beq.n	85678 <__sfvwrite_r+0x70>
   85626:	690b      	ldr	r3, [r1, #16]
   85628:	b333      	cbz	r3, 85678 <__sfvwrite_r+0x70>
   8562a:	f00e 0802 	and.w	r8, lr, #2
   8562e:	fa1f f088 	uxth.w	r0, r8
   85632:	6835      	ldr	r5, [r6, #0]
   85634:	b380      	cbz	r0, 85698 <__sfvwrite_r+0x90>
   85636:	f04f 0b00 	mov.w	fp, #0
   8563a:	46d8      	mov	r8, fp
   8563c:	f8df a2e4 	ldr.w	sl, [pc, #740]	; 85924 <__sfvwrite_r+0x31c>
   85640:	f1b8 0f00 	cmp.w	r8, #0
   85644:	f000 808f 	beq.w	85766 <__sfvwrite_r+0x15e>
   85648:	45d0      	cmp	r8, sl
   8564a:	4643      	mov	r3, r8
   8564c:	4648      	mov	r0, r9
   8564e:	bf28      	it	cs
   85650:	4653      	movcs	r3, sl
   85652:	69e1      	ldr	r1, [r4, #28]
   85654:	465a      	mov	r2, fp
   85656:	6a67      	ldr	r7, [r4, #36]	; 0x24
   85658:	47b8      	blx	r7
   8565a:	2800      	cmp	r0, #0
   8565c:	f340 80a8 	ble.w	857b0 <__sfvwrite_r+0x1a8>
   85660:	68b3      	ldr	r3, [r6, #8]
   85662:	4483      	add	fp, r0
   85664:	1a1b      	subs	r3, r3, r0
   85666:	ebc0 0808 	rsb	r8, r0, r8
   8566a:	60b3      	str	r3, [r6, #8]
   8566c:	2b00      	cmp	r3, #0
   8566e:	d1e7      	bne.n	85640 <__sfvwrite_r+0x38>
   85670:	2000      	movs	r0, #0
   85672:	b003      	add	sp, #12
   85674:	e8bd 8ff0 	ldmia.w	sp!, {r4, r5, r6, r7, r8, r9, sl, fp, pc}
   85678:	4648      	mov	r0, r9
   8567a:	4621      	mov	r1, r4
   8567c:	f7ff fc58 	bl	84f30 <__swsetup_r>
   85680:	2800      	cmp	r0, #0
   85682:	f040 8146 	bne.w	85912 <__sfvwrite_r+0x30a>
   85686:	f8b4 e00c 	ldrh.w	lr, [r4, #12]
   8568a:	6835      	ldr	r5, [r6, #0]
   8568c:	f00e 0802 	and.w	r8, lr, #2
   85690:	fa1f f088 	uxth.w	r0, r8
   85694:	2800      	cmp	r0, #0
   85696:	d1ce      	bne.n	85636 <__sfvwrite_r+0x2e>
   85698:	f01e 0b01 	ands.w	fp, lr, #1
   8569c:	f040 8091 	bne.w	857c2 <__sfvwrite_r+0x1ba>
   856a0:	46d8      	mov	r8, fp
   856a2:	f1b8 0f00 	cmp.w	r8, #0
   856a6:	d058      	beq.n	8575a <__sfvwrite_r+0x152>
   856a8:	f41e 7f00 	tst.w	lr, #512	; 0x200
   856ac:	68a7      	ldr	r7, [r4, #8]
   856ae:	d062      	beq.n	85776 <__sfvwrite_r+0x16e>
   856b0:	45b8      	cmp	r8, r7
   856b2:	46ba      	mov	sl, r7
   856b4:	f0c0 80c2 	bcc.w	8583c <__sfvwrite_r+0x234>
   856b8:	f41e 6f90 	tst.w	lr, #1152	; 0x480
   856bc:	f000 80c0 	beq.w	85840 <__sfvwrite_r+0x238>
   856c0:	6967      	ldr	r7, [r4, #20]
   856c2:	6921      	ldr	r1, [r4, #16]
   856c4:	6823      	ldr	r3, [r4, #0]
   856c6:	eb07 0747 	add.w	r7, r7, r7, lsl #1
   856ca:	1a5b      	subs	r3, r3, r1
   856cc:	eb07 77d7 	add.w	r7, r7, r7, lsr #31
   856d0:	1c58      	adds	r0, r3, #1
   856d2:	107f      	asrs	r7, r7, #1
   856d4:	4440      	add	r0, r8
   856d6:	4287      	cmp	r7, r0
   856d8:	463a      	mov	r2, r7
   856da:	bf3c      	itt	cc
   856dc:	4607      	movcc	r7, r0
   856de:	463a      	movcc	r2, r7
   856e0:	f41e 6f80 	tst.w	lr, #1024	; 0x400
   856e4:	9300      	str	r3, [sp, #0]
   856e6:	f000 80fb 	beq.w	858e0 <__sfvwrite_r+0x2d8>
   856ea:	4611      	mov	r1, r2
   856ec:	4648      	mov	r0, r9
   856ee:	f000 fd89 	bl	86204 <_malloc_r>
   856f2:	9b00      	ldr	r3, [sp, #0]
   856f4:	4682      	mov	sl, r0
   856f6:	2800      	cmp	r0, #0
   856f8:	f000 810e 	beq.w	85918 <__sfvwrite_r+0x310>
   856fc:	461a      	mov	r2, r3
   856fe:	6921      	ldr	r1, [r4, #16]
   85700:	9300      	str	r3, [sp, #0]
   85702:	f7fd fae9 	bl	82cd8 <memcpy>
   85706:	89a2      	ldrh	r2, [r4, #12]
   85708:	9b00      	ldr	r3, [sp, #0]
   8570a:	f422 6290 	bic.w	r2, r2, #1152	; 0x480
   8570e:	f042 0280 	orr.w	r2, r2, #128	; 0x80
   85712:	81a2      	strh	r2, [r4, #12]
   85714:	eb0a 0003 	add.w	r0, sl, r3
   85718:	f8c4 a010 	str.w	sl, [r4, #16]
   8571c:	1afb      	subs	r3, r7, r3
   8571e:	6167      	str	r7, [r4, #20]
   85720:	46c2      	mov	sl, r8
   85722:	4647      	mov	r7, r8
   85724:	6020      	str	r0, [r4, #0]
   85726:	60a3      	str	r3, [r4, #8]
   85728:	4652      	mov	r2, sl
   8572a:	4659      	mov	r1, fp
   8572c:	f001 f83a 	bl	867a4 <memmove>
   85730:	68a0      	ldr	r0, [r4, #8]
   85732:	6822      	ldr	r2, [r4, #0]
   85734:	1bc0      	subs	r0, r0, r7
   85736:	60a0      	str	r0, [r4, #8]
   85738:	4640      	mov	r0, r8
   8573a:	eb02 030a 	add.w	r3, r2, sl
   8573e:	6023      	str	r3, [r4, #0]
   85740:	68b3      	ldr	r3, [r6, #8]
   85742:	4483      	add	fp, r0
   85744:	1a1b      	subs	r3, r3, r0
   85746:	ebc0 0808 	rsb	r8, r0, r8
   8574a:	60b3      	str	r3, [r6, #8]
   8574c:	2b00      	cmp	r3, #0
   8574e:	d08f      	beq.n	85670 <__sfvwrite_r+0x68>
   85750:	f8b4 e00c 	ldrh.w	lr, [r4, #12]
   85754:	f1b8 0f00 	cmp.w	r8, #0
   85758:	d1a6      	bne.n	856a8 <__sfvwrite_r+0xa0>
   8575a:	f8d5 b000 	ldr.w	fp, [r5]
   8575e:	f8d5 8004 	ldr.w	r8, [r5, #4]
   85762:	3508      	adds	r5, #8
   85764:	e79d      	b.n	856a2 <__sfvwrite_r+0x9a>
   85766:	f8d5 b000 	ldr.w	fp, [r5]
   8576a:	f8d5 8004 	ldr.w	r8, [r5, #4]
   8576e:	3508      	adds	r5, #8
   85770:	e766      	b.n	85640 <__sfvwrite_r+0x38>
   85772:	2000      	movs	r0, #0
   85774:	4770      	bx	lr
   85776:	6820      	ldr	r0, [r4, #0]
   85778:	6923      	ldr	r3, [r4, #16]
   8577a:	4298      	cmp	r0, r3
   8577c:	d803      	bhi.n	85786 <__sfvwrite_r+0x17e>
   8577e:	6962      	ldr	r2, [r4, #20]
   85780:	4590      	cmp	r8, r2
   85782:	f080 8085 	bcs.w	85890 <__sfvwrite_r+0x288>
   85786:	4547      	cmp	r7, r8
   85788:	bf28      	it	cs
   8578a:	4647      	movcs	r7, r8
   8578c:	4659      	mov	r1, fp
   8578e:	463a      	mov	r2, r7
   85790:	f001 f808 	bl	867a4 <memmove>
   85794:	68a3      	ldr	r3, [r4, #8]
   85796:	6822      	ldr	r2, [r4, #0]
   85798:	1bdb      	subs	r3, r3, r7
   8579a:	443a      	add	r2, r7
   8579c:	60a3      	str	r3, [r4, #8]
   8579e:	6022      	str	r2, [r4, #0]
   857a0:	2b00      	cmp	r3, #0
   857a2:	d149      	bne.n	85838 <__sfvwrite_r+0x230>
   857a4:	4648      	mov	r0, r9
   857a6:	4621      	mov	r1, r4
   857a8:	f7ff fcd8 	bl	8515c <_fflush_r>
   857ac:	2800      	cmp	r0, #0
   857ae:	d043      	beq.n	85838 <__sfvwrite_r+0x230>
   857b0:	89a3      	ldrh	r3, [r4, #12]
   857b2:	f043 0340 	orr.w	r3, r3, #64	; 0x40
   857b6:	f04f 30ff 	mov.w	r0, #4294967295
   857ba:	81a3      	strh	r3, [r4, #12]
   857bc:	b003      	add	sp, #12
   857be:	e8bd 8ff0 	ldmia.w	sp!, {r4, r5, r6, r7, r8, r9, sl, fp, pc}
   857c2:	4680      	mov	r8, r0
   857c4:	4683      	mov	fp, r0
   857c6:	4682      	mov	sl, r0
   857c8:	9000      	str	r0, [sp, #0]
   857ca:	f1ba 0f00 	cmp.w	sl, #0
   857ce:	d02b      	beq.n	85828 <__sfvwrite_r+0x220>
   857d0:	9b00      	ldr	r3, [sp, #0]
   857d2:	2b00      	cmp	r3, #0
   857d4:	d04f      	beq.n	85876 <__sfvwrite_r+0x26e>
   857d6:	45d0      	cmp	r8, sl
   857d8:	4643      	mov	r3, r8
   857da:	bf28      	it	cs
   857dc:	4653      	movcs	r3, sl
   857de:	6820      	ldr	r0, [r4, #0]
   857e0:	6921      	ldr	r1, [r4, #16]
   857e2:	461f      	mov	r7, r3
   857e4:	4288      	cmp	r0, r1
   857e6:	f8d4 e008 	ldr.w	lr, [r4, #8]
   857ea:	6962      	ldr	r2, [r4, #20]
   857ec:	d903      	bls.n	857f6 <__sfvwrite_r+0x1ee>
   857ee:	eb0e 0c02 	add.w	ip, lr, r2
   857f2:	4563      	cmp	r3, ip
   857f4:	dc5e      	bgt.n	858b4 <__sfvwrite_r+0x2ac>
   857f6:	4293      	cmp	r3, r2
   857f8:	db24      	blt.n	85844 <__sfvwrite_r+0x23c>
   857fa:	4613      	mov	r3, r2
   857fc:	6a67      	ldr	r7, [r4, #36]	; 0x24
   857fe:	4648      	mov	r0, r9
   85800:	69e1      	ldr	r1, [r4, #28]
   85802:	465a      	mov	r2, fp
   85804:	47b8      	blx	r7
   85806:	1e07      	subs	r7, r0, #0
   85808:	ddd2      	ble.n	857b0 <__sfvwrite_r+0x1a8>
   8580a:	ebb8 0807 	subs.w	r8, r8, r7
   8580e:	d029      	beq.n	85864 <__sfvwrite_r+0x25c>
   85810:	68b3      	ldr	r3, [r6, #8]
   85812:	44bb      	add	fp, r7
   85814:	1bdb      	subs	r3, r3, r7
   85816:	ebc7 0a0a 	rsb	sl, r7, sl
   8581a:	60b3      	str	r3, [r6, #8]
   8581c:	2b00      	cmp	r3, #0
   8581e:	f43f af27 	beq.w	85670 <__sfvwrite_r+0x68>
   85822:	f1ba 0f00 	cmp.w	sl, #0
   85826:	d1d3      	bne.n	857d0 <__sfvwrite_r+0x1c8>
   85828:	2300      	movs	r3, #0
   8582a:	f8d5 b000 	ldr.w	fp, [r5]
   8582e:	f8d5 a004 	ldr.w	sl, [r5, #4]
   85832:	9300      	str	r3, [sp, #0]
   85834:	3508      	adds	r5, #8
   85836:	e7c8      	b.n	857ca <__sfvwrite_r+0x1c2>
   85838:	4638      	mov	r0, r7
   8583a:	e781      	b.n	85740 <__sfvwrite_r+0x138>
   8583c:	4647      	mov	r7, r8
   8583e:	46c2      	mov	sl, r8
   85840:	6820      	ldr	r0, [r4, #0]
   85842:	e771      	b.n	85728 <__sfvwrite_r+0x120>
   85844:	461a      	mov	r2, r3
   85846:	4659      	mov	r1, fp
   85848:	9301      	str	r3, [sp, #4]
   8584a:	f000 ffab 	bl	867a4 <memmove>
   8584e:	68a2      	ldr	r2, [r4, #8]
   85850:	6821      	ldr	r1, [r4, #0]
   85852:	9b01      	ldr	r3, [sp, #4]
   85854:	ebb8 0807 	subs.w	r8, r8, r7
   85858:	eba2 0203 	sub.w	r2, r2, r3
   8585c:	440b      	add	r3, r1
   8585e:	60a2      	str	r2, [r4, #8]
   85860:	6023      	str	r3, [r4, #0]
   85862:	d1d5      	bne.n	85810 <__sfvwrite_r+0x208>
   85864:	4648      	mov	r0, r9
   85866:	4621      	mov	r1, r4
   85868:	f7ff fc78 	bl	8515c <_fflush_r>
   8586c:	2800      	cmp	r0, #0
   8586e:	d19f      	bne.n	857b0 <__sfvwrite_r+0x1a8>
   85870:	f8cd 8000 	str.w	r8, [sp]
   85874:	e7cc      	b.n	85810 <__sfvwrite_r+0x208>
   85876:	4658      	mov	r0, fp
   85878:	210a      	movs	r1, #10
   8587a:	4652      	mov	r2, sl
   8587c:	f000 ff48 	bl	86710 <memchr>
   85880:	2800      	cmp	r0, #0
   85882:	d041      	beq.n	85908 <__sfvwrite_r+0x300>
   85884:	3001      	adds	r0, #1
   85886:	2301      	movs	r3, #1
   85888:	ebcb 0800 	rsb	r8, fp, r0
   8588c:	9300      	str	r3, [sp, #0]
   8588e:	e7a2      	b.n	857d6 <__sfvwrite_r+0x1ce>
   85890:	f06f 4300 	mvn.w	r3, #2147483648	; 0x80000000
   85894:	4543      	cmp	r3, r8
   85896:	bf28      	it	cs
   85898:	4643      	movcs	r3, r8
   8589a:	fb93 f3f2 	sdiv	r3, r3, r2
   8589e:	6a67      	ldr	r7, [r4, #36]	; 0x24
   858a0:	fb03 f302 	mul.w	r3, r3, r2
   858a4:	4648      	mov	r0, r9
   858a6:	69e1      	ldr	r1, [r4, #28]
   858a8:	465a      	mov	r2, fp
   858aa:	47b8      	blx	r7
   858ac:	2800      	cmp	r0, #0
   858ae:	f73f af47 	bgt.w	85740 <__sfvwrite_r+0x138>
   858b2:	e77d      	b.n	857b0 <__sfvwrite_r+0x1a8>
   858b4:	4662      	mov	r2, ip
   858b6:	4659      	mov	r1, fp
   858b8:	f8cd c004 	str.w	ip, [sp, #4]
   858bc:	f000 ff72 	bl	867a4 <memmove>
   858c0:	6823      	ldr	r3, [r4, #0]
   858c2:	f8dd c004 	ldr.w	ip, [sp, #4]
   858c6:	4648      	mov	r0, r9
   858c8:	4463      	add	r3, ip
   858ca:	6023      	str	r3, [r4, #0]
   858cc:	4621      	mov	r1, r4
   858ce:	f7ff fc45 	bl	8515c <_fflush_r>
   858d2:	f8dd c004 	ldr.w	ip, [sp, #4]
   858d6:	2800      	cmp	r0, #0
   858d8:	f47f af6a 	bne.w	857b0 <__sfvwrite_r+0x1a8>
   858dc:	4667      	mov	r7, ip
   858de:	e794      	b.n	8580a <__sfvwrite_r+0x202>
   858e0:	4648      	mov	r0, r9
   858e2:	f001 fc19 	bl	87118 <_realloc_r>
   858e6:	9b00      	ldr	r3, [sp, #0]
   858e8:	4682      	mov	sl, r0
   858ea:	2800      	cmp	r0, #0
   858ec:	f47f af12 	bne.w	85714 <__sfvwrite_r+0x10c>
   858f0:	4648      	mov	r0, r9
   858f2:	6921      	ldr	r1, [r4, #16]
   858f4:	f7ff fdb0 	bl	85458 <_free_r>
   858f8:	89a3      	ldrh	r3, [r4, #12]
   858fa:	220c      	movs	r2, #12
   858fc:	f023 0380 	bic.w	r3, r3, #128	; 0x80
   85900:	b29b      	uxth	r3, r3
   85902:	f8c9 2000 	str.w	r2, [r9]
   85906:	e754      	b.n	857b2 <__sfvwrite_r+0x1aa>
   85908:	2301      	movs	r3, #1
   8590a:	f10a 0801 	add.w	r8, sl, #1
   8590e:	9300      	str	r3, [sp, #0]
   85910:	e761      	b.n	857d6 <__sfvwrite_r+0x1ce>
   85912:	f04f 30ff 	mov.w	r0, #4294967295
   85916:	e6ac      	b.n	85672 <__sfvwrite_r+0x6a>
   85918:	230c      	movs	r3, #12
   8591a:	f8c9 3000 	str.w	r3, [r9]
   8591e:	89a3      	ldrh	r3, [r4, #12]
   85920:	e747      	b.n	857b2 <__sfvwrite_r+0x1aa>
   85922:	bf00      	nop
   85924:	7ffffc00 	.word	0x7ffffc00

00085928 <_fwalk>:
   85928:	e92d 41f0 	stmdb	sp!, {r4, r5, r6, r7, r8, lr}
   8592c:	f510 7738 	adds.w	r7, r0, #736	; 0x2e0
   85930:	d01a      	beq.n	85968 <_fwalk+0x40>
   85932:	4688      	mov	r8, r1
   85934:	2600      	movs	r6, #0
   85936:	687d      	ldr	r5, [r7, #4]
   85938:	68bc      	ldr	r4, [r7, #8]
   8593a:	3d01      	subs	r5, #1
   8593c:	d40e      	bmi.n	8595c <_fwalk+0x34>
   8593e:	89a3      	ldrh	r3, [r4, #12]
   85940:	3d01      	subs	r5, #1
   85942:	2b01      	cmp	r3, #1
   85944:	d906      	bls.n	85954 <_fwalk+0x2c>
   85946:	f9b4 300e 	ldrsh.w	r3, [r4, #14]
   8594a:	3301      	adds	r3, #1
   8594c:	d002      	beq.n	85954 <_fwalk+0x2c>
   8594e:	4620      	mov	r0, r4
   85950:	47c0      	blx	r8
   85952:	4306      	orrs	r6, r0
   85954:	1c6b      	adds	r3, r5, #1
   85956:	f104 0468 	add.w	r4, r4, #104	; 0x68
   8595a:	d1f0      	bne.n	8593e <_fwalk+0x16>
   8595c:	683f      	ldr	r7, [r7, #0]
   8595e:	2f00      	cmp	r7, #0
   85960:	d1e9      	bne.n	85936 <_fwalk+0xe>
   85962:	4630      	mov	r0, r6
   85964:	e8bd 81f0 	ldmia.w	sp!, {r4, r5, r6, r7, r8, pc}
   85968:	463e      	mov	r6, r7
   8596a:	4630      	mov	r0, r6
   8596c:	e8bd 81f0 	ldmia.w	sp!, {r4, r5, r6, r7, r8, pc}

00085970 <_fwalk_reent>:
   85970:	e92d 43f8 	stmdb	sp!, {r3, r4, r5, r6, r7, r8, r9, lr}
   85974:	f510 7638 	adds.w	r6, r0, #736	; 0x2e0
   85978:	d01e      	beq.n	859b8 <_fwalk_reent+0x48>
   8597a:	4688      	mov	r8, r1
   8597c:	4607      	mov	r7, r0
   8597e:	f04f 0900 	mov.w	r9, #0
   85982:	6875      	ldr	r5, [r6, #4]
   85984:	68b4      	ldr	r4, [r6, #8]
   85986:	3d01      	subs	r5, #1
   85988:	d410      	bmi.n	859ac <_fwalk_reent+0x3c>
   8598a:	89a3      	ldrh	r3, [r4, #12]
   8598c:	3d01      	subs	r5, #1
   8598e:	2b01      	cmp	r3, #1
   85990:	d908      	bls.n	859a4 <_fwalk_reent+0x34>
   85992:	f9b4 300e 	ldrsh.w	r3, [r4, #14]
   85996:	3301      	adds	r3, #1
   85998:	d004      	beq.n	859a4 <_fwalk_reent+0x34>
   8599a:	4638      	mov	r0, r7
   8599c:	4621      	mov	r1, r4
   8599e:	47c0      	blx	r8
   859a0:	ea49 0900 	orr.w	r9, r9, r0
   859a4:	1c6b      	adds	r3, r5, #1
   859a6:	f104 0468 	add.w	r4, r4, #104	; 0x68
   859aa:	d1ee      	bne.n	8598a <_fwalk_reent+0x1a>
   859ac:	6836      	ldr	r6, [r6, #0]
   859ae:	2e00      	cmp	r6, #0
   859b0:	d1e7      	bne.n	85982 <_fwalk_reent+0x12>
   859b2:	4648      	mov	r0, r9
   859b4:	e8bd 83f8 	ldmia.w	sp!, {r3, r4, r5, r6, r7, r8, r9, pc}
   859b8:	46b1      	mov	r9, r6
   859ba:	4648      	mov	r0, r9
   859bc:	e8bd 83f8 	ldmia.w	sp!, {r3, r4, r5, r6, r7, r8, r9, pc}

000859c0 <rshift>:
   859c0:	6902      	ldr	r2, [r0, #16]
   859c2:	114b      	asrs	r3, r1, #5
   859c4:	4293      	cmp	r3, r2
   859c6:	b5f0      	push	{r4, r5, r6, r7, lr}
   859c8:	f100 0614 	add.w	r6, r0, #20
   859cc:	da2b      	bge.n	85a26 <rshift+0x66>
   859ce:	f011 011f 	ands.w	r1, r1, #31
   859d2:	eb06 0282 	add.w	r2, r6, r2, lsl #2
   859d6:	eb06 0e83 	add.w	lr, r6, r3, lsl #2
   859da:	d029      	beq.n	85a30 <rshift+0x70>
   859dc:	f856 3023 	ldr.w	r3, [r6, r3, lsl #2]
   859e0:	f10e 0504 	add.w	r5, lr, #4
   859e4:	42aa      	cmp	r2, r5
   859e6:	fa23 f401 	lsr.w	r4, r3, r1
   859ea:	f1c1 0c20 	rsb	ip, r1, #32
   859ee:	d935      	bls.n	85a5c <rshift+0x9c>
   859f0:	f100 0710 	add.w	r7, r0, #16
   859f4:	682b      	ldr	r3, [r5, #0]
   859f6:	fa03 f30c 	lsl.w	r3, r3, ip
   859fa:	4323      	orrs	r3, r4
   859fc:	f847 3f04 	str.w	r3, [r7, #4]!
   85a00:	f855 3b04 	ldr.w	r3, [r5], #4
   85a04:	42aa      	cmp	r2, r5
   85a06:	fa23 f401 	lsr.w	r4, r3, r1
   85a0a:	d8f3      	bhi.n	859f4 <rshift+0x34>
   85a0c:	ebce 0202 	rsb	r2, lr, r2
   85a10:	3a05      	subs	r2, #5
   85a12:	f022 0203 	bic.w	r2, r2, #3
   85a16:	3204      	adds	r2, #4
   85a18:	4432      	add	r2, r6
   85a1a:	6014      	str	r4, [r2, #0]
   85a1c:	b104      	cbz	r4, 85a20 <rshift+0x60>
   85a1e:	3204      	adds	r2, #4
   85a20:	1b93      	subs	r3, r2, r6
   85a22:	109b      	asrs	r3, r3, #2
   85a24:	e016      	b.n	85a54 <rshift+0x94>
   85a26:	2300      	movs	r3, #0
   85a28:	6103      	str	r3, [r0, #16]
   85a2a:	2300      	movs	r3, #0
   85a2c:	6143      	str	r3, [r0, #20]
   85a2e:	bdf0      	pop	{r4, r5, r6, r7, pc}
   85a30:	4572      	cmp	r2, lr
   85a32:	d9f8      	bls.n	85a26 <rshift+0x66>
   85a34:	4671      	mov	r1, lr
   85a36:	f100 0410 	add.w	r4, r0, #16
   85a3a:	f851 5b04 	ldr.w	r5, [r1], #4
   85a3e:	428a      	cmp	r2, r1
   85a40:	f844 5f04 	str.w	r5, [r4, #4]!
   85a44:	d8f9      	bhi.n	85a3a <rshift+0x7a>
   85a46:	ea6f 030e 	mvn.w	r3, lr
   85a4a:	4413      	add	r3, r2
   85a4c:	f023 0303 	bic.w	r3, r3, #3
   85a50:	3304      	adds	r3, #4
   85a52:	109b      	asrs	r3, r3, #2
   85a54:	6103      	str	r3, [r0, #16]
   85a56:	2b00      	cmp	r3, #0
   85a58:	d0e7      	beq.n	85a2a <rshift+0x6a>
   85a5a:	bdf0      	pop	{r4, r5, r6, r7, pc}
   85a5c:	4632      	mov	r2, r6
   85a5e:	e7dc      	b.n	85a1a <rshift+0x5a>

00085a60 <__gethex>:
   85a60:	e92d 4ff0 	stmdb	sp!, {r4, r5, r6, r7, r8, r9, sl, fp, lr}
   85a64:	b08b      	sub	sp, #44	; 0x2c
   85a66:	4688      	mov	r8, r1
   85a68:	9202      	str	r2, [sp, #8]
   85a6a:	9307      	str	r3, [sp, #28]
   85a6c:	9005      	str	r0, [sp, #20]
   85a6e:	f000 fb4d 	bl	8610c <_localeconv_r>
   85a72:	6803      	ldr	r3, [r0, #0]
   85a74:	4618      	mov	r0, r3
   85a76:	461c      	mov	r4, r3
   85a78:	9303      	str	r3, [sp, #12]
   85a7a:	f7fd fa8f 	bl	82f9c <strlen>
   85a7e:	f8d8 3000 	ldr.w	r3, [r8]
   85a82:	1821      	adds	r1, r4, r0
   85a84:	789a      	ldrb	r2, [r3, #2]
   85a86:	9000      	str	r0, [sp, #0]
   85a88:	2a30      	cmp	r2, #48	; 0x30
   85a8a:	f811 bc01 	ldrb.w	fp, [r1, #-1]
   85a8e:	f040 819e 	bne.w	85dce <__gethex+0x36e>
   85a92:	3303      	adds	r3, #3
   85a94:	f04f 0900 	mov.w	r9, #0
   85a98:	461c      	mov	r4, r3
   85a9a:	f813 2b01 	ldrb.w	r2, [r3], #1
   85a9e:	f109 0901 	add.w	r9, r9, #1
   85aa2:	2a30      	cmp	r2, #48	; 0x30
   85aa4:	d0f8      	beq.n	85a98 <__gethex+0x38>
   85aa6:	4ead      	ldr	r6, [pc, #692]	; (85d5c <__gethex+0x2fc>)
   85aa8:	5cb3      	ldrb	r3, [r6, r2]
   85aaa:	2b00      	cmp	r3, #0
   85aac:	f000 80ed 	beq.w	85c8a <__gethex+0x22a>
   85ab0:	f04f 0a00 	mov.w	sl, #0
   85ab4:	4655      	mov	r5, sl
   85ab6:	7823      	ldrb	r3, [r4, #0]
   85ab8:	5cf3      	ldrb	r3, [r6, r3]
   85aba:	4627      	mov	r7, r4
   85abc:	b123      	cbz	r3, 85ac8 <__gethex+0x68>
   85abe:	f817 3f01 	ldrb.w	r3, [r7, #1]!
   85ac2:	5cf3      	ldrb	r3, [r6, r3]
   85ac4:	2b00      	cmp	r3, #0
   85ac6:	d1fa      	bne.n	85abe <__gethex+0x5e>
   85ac8:	4638      	mov	r0, r7
   85aca:	9903      	ldr	r1, [sp, #12]
   85acc:	9a00      	ldr	r2, [sp, #0]
   85ace:	f7fd fa93 	bl	82ff8 <strncmp>
   85ad2:	b1c0      	cbz	r0, 85b06 <__gethex+0xa6>
   85ad4:	783b      	ldrb	r3, [r7, #0]
   85ad6:	2d00      	cmp	r5, #0
   85ad8:	f000 8168 	beq.w	85dac <__gethex+0x34c>
   85adc:	1bed      	subs	r5, r5, r7
   85ade:	00aa      	lsls	r2, r5, #2
   85ae0:	9201      	str	r2, [sp, #4]
   85ae2:	2b50      	cmp	r3, #80	; 0x50
   85ae4:	d018      	beq.n	85b18 <__gethex+0xb8>
   85ae6:	2b70      	cmp	r3, #112	; 0x70
   85ae8:	d016      	beq.n	85b18 <__gethex+0xb8>
   85aea:	463d      	mov	r5, r7
   85aec:	f8c8 7000 	str.w	r7, [r8]
   85af0:	f1ba 0f00 	cmp.w	sl, #0
   85af4:	d03d      	beq.n	85b72 <__gethex+0x112>
   85af6:	f1b9 0f00 	cmp.w	r9, #0
   85afa:	bf14      	ite	ne
   85afc:	2000      	movne	r0, #0
   85afe:	2006      	moveq	r0, #6
   85b00:	b00b      	add	sp, #44	; 0x2c
   85b02:	e8bd 8ff0 	ldmia.w	sp!, {r4, r5, r6, r7, r8, r9, sl, fp, pc}
   85b06:	2d00      	cmp	r5, #0
   85b08:	f000 8189 	beq.w	85e1e <__gethex+0x3be>
   85b0c:	783b      	ldrb	r3, [r7, #0]
   85b0e:	e7e5      	b.n	85adc <__gethex+0x7c>
   85b10:	2300      	movs	r3, #0
   85b12:	9301      	str	r3, [sp, #4]
   85b14:	f04f 0a01 	mov.w	sl, #1
   85b18:	787b      	ldrb	r3, [r7, #1]
   85b1a:	2b2b      	cmp	r3, #43	; 0x2b
   85b1c:	f000 811c 	beq.w	85d58 <__gethex+0x2f8>
   85b20:	2b2d      	cmp	r3, #45	; 0x2d
   85b22:	f000 80e4 	beq.w	85cee <__gethex+0x28e>
   85b26:	1c79      	adds	r1, r7, #1
   85b28:	2500      	movs	r5, #0
   85b2a:	5cf3      	ldrb	r3, [r6, r3]
   85b2c:	4a8b      	ldr	r2, [pc, #556]	; (85d5c <__gethex+0x2fc>)
   85b2e:	1e58      	subs	r0, r3, #1
   85b30:	2818      	cmp	r0, #24
   85b32:	d8da      	bhi.n	85aea <__gethex+0x8a>
   85b34:	7848      	ldrb	r0, [r1, #1]
   85b36:	3b10      	subs	r3, #16
   85b38:	5c12      	ldrb	r2, [r2, r0]
   85b3a:	3101      	adds	r1, #1
   85b3c:	1e50      	subs	r0, r2, #1
   85b3e:	2818      	cmp	r0, #24
   85b40:	d80a      	bhi.n	85b58 <__gethex+0xf8>
   85b42:	f811 0f01 	ldrb.w	r0, [r1, #1]!
   85b46:	eb03 0383 	add.w	r3, r3, r3, lsl #2
   85b4a:	eb02 0343 	add.w	r3, r2, r3, lsl #1
   85b4e:	5c32      	ldrb	r2, [r6, r0]
   85b50:	3b10      	subs	r3, #16
   85b52:	1e50      	subs	r0, r2, #1
   85b54:	2818      	cmp	r0, #24
   85b56:	d9f4      	bls.n	85b42 <__gethex+0xe2>
   85b58:	426a      	negs	r2, r5
   85b5a:	4053      	eors	r3, r2
   85b5c:	442b      	add	r3, r5
   85b5e:	463d      	mov	r5, r7
   85b60:	460f      	mov	r7, r1
   85b62:	9a01      	ldr	r2, [sp, #4]
   85b64:	f8c8 7000 	str.w	r7, [r8]
   85b68:	441a      	add	r2, r3
   85b6a:	9201      	str	r2, [sp, #4]
   85b6c:	f1ba 0f00 	cmp.w	sl, #0
   85b70:	d1c1      	bne.n	85af6 <__gethex+0x96>
   85b72:	1b2b      	subs	r3, r5, r4
   85b74:	3b01      	subs	r3, #1
   85b76:	2b07      	cmp	r3, #7
   85b78:	4651      	mov	r1, sl
   85b7a:	dd04      	ble.n	85b86 <__gethex+0x126>
   85b7c:	105b      	asrs	r3, r3, #1
   85b7e:	2b07      	cmp	r3, #7
   85b80:	f101 0101 	add.w	r1, r1, #1
   85b84:	dcfa      	bgt.n	85b7c <__gethex+0x11c>
   85b86:	9805      	ldr	r0, [sp, #20]
   85b88:	f000 fe74 	bl	86874 <_Balloc>
   85b8c:	4603      	mov	r3, r0
   85b8e:	42a5      	cmp	r5, r4
   85b90:	f103 0314 	add.w	r3, r3, #20
   85b94:	9004      	str	r0, [sp, #16]
   85b96:	9306      	str	r3, [sp, #24]
   85b98:	f240 8193 	bls.w	85ec2 <__gethex+0x462>
   85b9c:	f04f 0800 	mov.w	r8, #0
   85ba0:	4647      	mov	r7, r8
   85ba2:	4699      	mov	r9, r3
   85ba4:	9b00      	ldr	r3, [sp, #0]
   85ba6:	46a0      	mov	r8, r4
   85ba8:	f1c3 0c01 	rsb	ip, r3, #1
   85bac:	46e2      	mov	sl, ip
   85bae:	463c      	mov	r4, r7
   85bb0:	e00f      	b.n	85bd2 <__gethex+0x172>
   85bb2:	2f20      	cmp	r7, #32
   85bb4:	d061      	beq.n	85c7a <__gethex+0x21a>
   85bb6:	463a      	mov	r2, r7
   85bb8:	3704      	adds	r7, #4
   85bba:	f815 1c01 	ldrb.w	r1, [r5, #-1]
   85bbe:	461d      	mov	r5, r3
   85bc0:	5c73      	ldrb	r3, [r6, r1]
   85bc2:	4545      	cmp	r5, r8
   85bc4:	f003 030f 	and.w	r3, r3, #15
   85bc8:	fa03 f302 	lsl.w	r3, r3, r2
   85bcc:	ea44 0403 	orr.w	r4, r4, r3
   85bd0:	d918      	bls.n	85c04 <__gethex+0x1a4>
   85bd2:	f815 2c01 	ldrb.w	r2, [r5, #-1]
   85bd6:	1e6b      	subs	r3, r5, #1
   85bd8:	455a      	cmp	r2, fp
   85bda:	d1ea      	bne.n	85bb2 <__gethex+0x152>
   85bdc:	eb03 0c0a 	add.w	ip, r3, sl
   85be0:	45c4      	cmp	ip, r8
   85be2:	d3e6      	bcc.n	85bb2 <__gethex+0x152>
   85be4:	4660      	mov	r0, ip
   85be6:	9903      	ldr	r1, [sp, #12]
   85be8:	9a00      	ldr	r2, [sp, #0]
   85bea:	9309      	str	r3, [sp, #36]	; 0x24
   85bec:	f8cd c020 	str.w	ip, [sp, #32]
   85bf0:	f7fd fa02 	bl	82ff8 <strncmp>
   85bf4:	f8dd c020 	ldr.w	ip, [sp, #32]
   85bf8:	9b09      	ldr	r3, [sp, #36]	; 0x24
   85bfa:	2800      	cmp	r0, #0
   85bfc:	d1d9      	bne.n	85bb2 <__gethex+0x152>
   85bfe:	4665      	mov	r5, ip
   85c00:	4545      	cmp	r5, r8
   85c02:	d8e6      	bhi.n	85bd2 <__gethex+0x172>
   85c04:	46a0      	mov	r8, r4
   85c06:	9b06      	ldr	r3, [sp, #24]
   85c08:	f849 8b04 	str.w	r8, [r9], #4
   85c0c:	ebc3 0909 	rsb	r9, r3, r9
   85c10:	9a04      	ldr	r2, [sp, #16]
   85c12:	ea4f 03a9 	mov.w	r3, r9, asr #2
   85c16:	6113      	str	r3, [r2, #16]
   85c18:	4640      	mov	r0, r8
   85c1a:	ea4f 1943 	mov.w	r9, r3, lsl #5
   85c1e:	f000 fee9 	bl	869f4 <__hi0bits>
   85c22:	9b02      	ldr	r3, [sp, #8]
   85c24:	ebc0 0009 	rsb	r0, r0, r9
   85c28:	681e      	ldr	r6, [r3, #0]
   85c2a:	42b0      	cmp	r0, r6
   85c2c:	f300 8098 	bgt.w	85d60 <__gethex+0x300>
   85c30:	f2c0 80be 	blt.w	85db0 <__gethex+0x350>
   85c34:	2700      	movs	r7, #0
   85c36:	9b02      	ldr	r3, [sp, #8]
   85c38:	9a01      	ldr	r2, [sp, #4]
   85c3a:	689b      	ldr	r3, [r3, #8]
   85c3c:	429a      	cmp	r2, r3
   85c3e:	dc4b      	bgt.n	85cd8 <__gethex+0x278>
   85c40:	9b02      	ldr	r3, [sp, #8]
   85c42:	9a01      	ldr	r2, [sp, #4]
   85c44:	685b      	ldr	r3, [r3, #4]
   85c46:	429a      	cmp	r2, r3
   85c48:	da6b      	bge.n	85d22 <__gethex+0x2c2>
   85c4a:	1a9d      	subs	r5, r3, r2
   85c4c:	42ae      	cmp	r6, r5
   85c4e:	f300 80c6 	bgt.w	85dde <__gethex+0x37e>
   85c52:	9a02      	ldr	r2, [sp, #8]
   85c54:	68d2      	ldr	r2, [r2, #12]
   85c56:	2a02      	cmp	r2, #2
   85c58:	f000 8149 	beq.w	85eee <__gethex+0x48e>
   85c5c:	2a03      	cmp	r2, #3
   85c5e:	f000 8117 	beq.w	85e90 <__gethex+0x430>
   85c62:	2a01      	cmp	r2, #1
   85c64:	f000 8134 	beq.w	85ed0 <__gethex+0x470>
   85c68:	9805      	ldr	r0, [sp, #20]
   85c6a:	9904      	ldr	r1, [sp, #16]
   85c6c:	f000 fe2a 	bl	868c4 <_Bfree>
   85c70:	9a14      	ldr	r2, [sp, #80]	; 0x50
   85c72:	2300      	movs	r3, #0
   85c74:	6013      	str	r3, [r2, #0]
   85c76:	2050      	movs	r0, #80	; 0x50
   85c78:	e742      	b.n	85b00 <__gethex+0xa0>
   85c7a:	f8c9 4000 	str.w	r4, [r9]
   85c7e:	2400      	movs	r4, #0
   85c80:	4622      	mov	r2, r4
   85c82:	f109 0904 	add.w	r9, r9, #4
   85c86:	2704      	movs	r7, #4
   85c88:	e797      	b.n	85bba <__gethex+0x15a>
   85c8a:	4620      	mov	r0, r4
   85c8c:	9903      	ldr	r1, [sp, #12]
   85c8e:	9a00      	ldr	r2, [sp, #0]
   85c90:	f7fd f9b2 	bl	82ff8 <strncmp>
   85c94:	b378      	cbz	r0, 85cf6 <__gethex+0x296>
   85c96:	4627      	mov	r7, r4
   85c98:	7823      	ldrb	r3, [r4, #0]
   85c9a:	2b50      	cmp	r3, #80	; 0x50
   85c9c:	f43f af38 	beq.w	85b10 <__gethex+0xb0>
   85ca0:	2b70      	cmp	r3, #112	; 0x70
   85ca2:	f43f af35 	beq.w	85b10 <__gethex+0xb0>
   85ca6:	f8c8 7000 	str.w	r7, [r8]
   85caa:	e724      	b.n	85af6 <__gethex+0x96>
   85cac:	4445      	add	r5, r8
   85cae:	f855 0c04 	ldr.w	r0, [r5, #-4]
   85cb2:	f000 fe9f 	bl	869f4 <__hi0bits>
   85cb6:	f1c6 0620 	rsb	r6, r6, #32
   85cba:	42b0      	cmp	r0, r6
   85cbc:	f280 80e4 	bge.w	85e88 <__gethex+0x428>
   85cc0:	9804      	ldr	r0, [sp, #16]
   85cc2:	2101      	movs	r1, #1
   85cc4:	f7ff fe7c 	bl	859c0 <rshift>
   85cc8:	9b02      	ldr	r3, [sp, #8]
   85cca:	9a01      	ldr	r2, [sp, #4]
   85ccc:	689b      	ldr	r3, [r3, #8]
   85cce:	3201      	adds	r2, #1
   85cd0:	429a      	cmp	r2, r3
   85cd2:	9201      	str	r2, [sp, #4]
   85cd4:	f340 80d8 	ble.w	85e88 <__gethex+0x428>
   85cd8:	9805      	ldr	r0, [sp, #20]
   85cda:	9904      	ldr	r1, [sp, #16]
   85cdc:	f000 fdf2 	bl	868c4 <_Bfree>
   85ce0:	9a14      	ldr	r2, [sp, #80]	; 0x50
   85ce2:	2300      	movs	r3, #0
   85ce4:	20a3      	movs	r0, #163	; 0xa3
   85ce6:	6013      	str	r3, [r2, #0]
   85ce8:	b00b      	add	sp, #44	; 0x2c
   85cea:	e8bd 8ff0 	ldmia.w	sp!, {r4, r5, r6, r7, r8, r9, sl, fp, pc}
   85cee:	2501      	movs	r5, #1
   85cf0:	78bb      	ldrb	r3, [r7, #2]
   85cf2:	1cb9      	adds	r1, r7, #2
   85cf4:	e719      	b.n	85b2a <__gethex+0xca>
   85cf6:	9900      	ldr	r1, [sp, #0]
   85cf8:	5c62      	ldrb	r2, [r4, r1]
   85cfa:	1867      	adds	r7, r4, r1
   85cfc:	5cb3      	ldrb	r3, [r6, r2]
   85cfe:	2b00      	cmp	r3, #0
   85d00:	d069      	beq.n	85dd6 <__gethex+0x376>
   85d02:	2a30      	cmp	r2, #48	; 0x30
   85d04:	463c      	mov	r4, r7
   85d06:	d104      	bne.n	85d12 <__gethex+0x2b2>
   85d08:	f814 3f01 	ldrb.w	r3, [r4, #1]!
   85d0c:	2b30      	cmp	r3, #48	; 0x30
   85d0e:	d0fb      	beq.n	85d08 <__gethex+0x2a8>
   85d10:	5cf3      	ldrb	r3, [r6, r3]
   85d12:	fab3 fa83 	clz	sl, r3
   85d16:	463d      	mov	r5, r7
   85d18:	ea4f 1a5a 	mov.w	sl, sl, lsr #5
   85d1c:	f04f 0901 	mov.w	r9, #1
   85d20:	e6cb      	b.n	85aba <__gethex+0x5a>
   85d22:	2401      	movs	r4, #1
   85d24:	b167      	cbz	r7, 85d40 <__gethex+0x2e0>
   85d26:	9b02      	ldr	r3, [sp, #8]
   85d28:	68db      	ldr	r3, [r3, #12]
   85d2a:	2b02      	cmp	r3, #2
   85d2c:	f000 8085 	beq.w	85e3a <__gethex+0x3da>
   85d30:	2b03      	cmp	r3, #3
   85d32:	f000 8086 	beq.w	85e42 <__gethex+0x3e2>
   85d36:	2b01      	cmp	r3, #1
   85d38:	f000 80ba 	beq.w	85eb0 <__gethex+0x450>
   85d3c:	f044 0410 	orr.w	r4, r4, #16
   85d40:	9b14      	ldr	r3, [sp, #80]	; 0x50
   85d42:	4620      	mov	r0, r4
   85d44:	461a      	mov	r2, r3
   85d46:	9b04      	ldr	r3, [sp, #16]
   85d48:	6013      	str	r3, [r2, #0]
   85d4a:	9b07      	ldr	r3, [sp, #28]
   85d4c:	461a      	mov	r2, r3
   85d4e:	9b01      	ldr	r3, [sp, #4]
   85d50:	6013      	str	r3, [r2, #0]
   85d52:	b00b      	add	sp, #44	; 0x2c
   85d54:	e8bd 8ff0 	ldmia.w	sp!, {r4, r5, r6, r7, r8, r9, sl, fp, pc}
   85d58:	2500      	movs	r5, #0
   85d5a:	e7c9      	b.n	85cf0 <__gethex+0x290>
   85d5c:	00088b6c 	.word	0x00088b6c
   85d60:	1b84      	subs	r4, r0, r6
   85d62:	4621      	mov	r1, r4
   85d64:	9804      	ldr	r0, [sp, #16]
   85d66:	f001 f9a9 	bl	870bc <__any_on>
   85d6a:	2800      	cmp	r0, #0
   85d6c:	d035      	beq.n	85dda <__gethex+0x37a>
   85d6e:	1e63      	subs	r3, r4, #1
   85d70:	9906      	ldr	r1, [sp, #24]
   85d72:	115a      	asrs	r2, r3, #5
   85d74:	f851 2022 	ldr.w	r2, [r1, r2, lsl #2]
   85d78:	2701      	movs	r7, #1
   85d7a:	f003 011f 	and.w	r1, r3, #31
   85d7e:	fa07 f101 	lsl.w	r1, r7, r1
   85d82:	4211      	tst	r1, r2
   85d84:	d00a      	beq.n	85d9c <__gethex+0x33c>
   85d86:	42bb      	cmp	r3, r7
   85d88:	f340 80a0 	ble.w	85ecc <__gethex+0x46c>
   85d8c:	9804      	ldr	r0, [sp, #16]
   85d8e:	1ea1      	subs	r1, r4, #2
   85d90:	f001 f994 	bl	870bc <__any_on>
   85d94:	2800      	cmp	r0, #0
   85d96:	f000 8099 	beq.w	85ecc <__gethex+0x46c>
   85d9a:	2703      	movs	r7, #3
   85d9c:	9b01      	ldr	r3, [sp, #4]
   85d9e:	4621      	mov	r1, r4
   85da0:	4423      	add	r3, r4
   85da2:	9804      	ldr	r0, [sp, #16]
   85da4:	9301      	str	r3, [sp, #4]
   85da6:	f7ff fe0b 	bl	859c0 <rshift>
   85daa:	e744      	b.n	85c36 <__gethex+0x1d6>
   85dac:	9501      	str	r5, [sp, #4]
   85dae:	e698      	b.n	85ae2 <__gethex+0x82>
   85db0:	1a34      	subs	r4, r6, r0
   85db2:	9904      	ldr	r1, [sp, #16]
   85db4:	4622      	mov	r2, r4
   85db6:	9805      	ldr	r0, [sp, #20]
   85db8:	f000 ff64 	bl	86c84 <__lshift>
   85dbc:	9b01      	ldr	r3, [sp, #4]
   85dbe:	9004      	str	r0, [sp, #16]
   85dc0:	1b1b      	subs	r3, r3, r4
   85dc2:	9301      	str	r3, [sp, #4]
   85dc4:	4603      	mov	r3, r0
   85dc6:	3314      	adds	r3, #20
   85dc8:	9306      	str	r3, [sp, #24]
   85dca:	2700      	movs	r7, #0
   85dcc:	e733      	b.n	85c36 <__gethex+0x1d6>
   85dce:	1c9c      	adds	r4, r3, #2
   85dd0:	f04f 0900 	mov.w	r9, #0
   85dd4:	e667      	b.n	85aa6 <__gethex+0x46>
   85dd6:	4613      	mov	r3, r2
   85dd8:	e75f      	b.n	85c9a <__gethex+0x23a>
   85dda:	4607      	mov	r7, r0
   85ddc:	e7de      	b.n	85d9c <__gethex+0x33c>
   85dde:	1e6c      	subs	r4, r5, #1
   85de0:	2f00      	cmp	r7, #0
   85de2:	d153      	bne.n	85e8c <__gethex+0x42c>
   85de4:	2c00      	cmp	r4, #0
   85de6:	dd04      	ble.n	85df2 <__gethex+0x392>
   85de8:	9804      	ldr	r0, [sp, #16]
   85dea:	4621      	mov	r1, r4
   85dec:	f001 f966 	bl	870bc <__any_on>
   85df0:	4607      	mov	r7, r0
   85df2:	9a06      	ldr	r2, [sp, #24]
   85df4:	1163      	asrs	r3, r4, #5
   85df6:	f852 2023 	ldr.w	r2, [r2, r3, lsl #2]
   85dfa:	f004 041f 	and.w	r4, r4, #31
   85dfe:	2301      	movs	r3, #1
   85e00:	40a3      	lsls	r3, r4
   85e02:	4213      	tst	r3, r2
   85e04:	4629      	mov	r1, r5
   85e06:	9804      	ldr	r0, [sp, #16]
   85e08:	bf18      	it	ne
   85e0a:	f047 0702 	orrne.w	r7, r7, #2
   85e0e:	f7ff fdd7 	bl	859c0 <rshift>
   85e12:	9b02      	ldr	r3, [sp, #8]
   85e14:	1b76      	subs	r6, r6, r5
   85e16:	685b      	ldr	r3, [r3, #4]
   85e18:	2402      	movs	r4, #2
   85e1a:	9301      	str	r3, [sp, #4]
   85e1c:	e782      	b.n	85d24 <__gethex+0x2c4>
   85e1e:	9a00      	ldr	r2, [sp, #0]
   85e20:	5cbb      	ldrb	r3, [r7, r2]
   85e22:	18bd      	adds	r5, r7, r2
   85e24:	5cf2      	ldrb	r2, [r6, r3]
   85e26:	462f      	mov	r7, r5
   85e28:	2a00      	cmp	r2, #0
   85e2a:	f43f ae57 	beq.w	85adc <__gethex+0x7c>
   85e2e:	f817 3f01 	ldrb.w	r3, [r7, #1]!
   85e32:	5cf2      	ldrb	r2, [r6, r3]
   85e34:	2a00      	cmp	r2, #0
   85e36:	d1fa      	bne.n	85e2e <__gethex+0x3ce>
   85e38:	e650      	b.n	85adc <__gethex+0x7c>
   85e3a:	9b15      	ldr	r3, [sp, #84]	; 0x54
   85e3c:	f1c3 0301 	rsb	r3, r3, #1
   85e40:	9315      	str	r3, [sp, #84]	; 0x54
   85e42:	9b15      	ldr	r3, [sp, #84]	; 0x54
   85e44:	2b00      	cmp	r3, #0
   85e46:	f43f af79 	beq.w	85d3c <__gethex+0x2dc>
   85e4a:	9a04      	ldr	r2, [sp, #16]
   85e4c:	9906      	ldr	r1, [sp, #24]
   85e4e:	6917      	ldr	r7, [r2, #16]
   85e50:	460b      	mov	r3, r1
   85e52:	00bd      	lsls	r5, r7, #2
   85e54:	2000      	movs	r0, #0
   85e56:	4429      	add	r1, r5
   85e58:	e003      	b.n	85e62 <__gethex+0x402>
   85e5a:	f843 0b04 	str.w	r0, [r3], #4
   85e5e:	4299      	cmp	r1, r3
   85e60:	d949      	bls.n	85ef6 <__gethex+0x496>
   85e62:	681a      	ldr	r2, [r3, #0]
   85e64:	f1b2 3fff 	cmp.w	r2, #4294967295
   85e68:	d0f7      	beq.n	85e5a <__gethex+0x3fa>
   85e6a:	3201      	adds	r2, #1
   85e6c:	f8dd 8018 	ldr.w	r8, [sp, #24]
   85e70:	601a      	str	r2, [r3, #0]
   85e72:	2c02      	cmp	r4, #2
   85e74:	d04e      	beq.n	85f14 <__gethex+0x4b4>
   85e76:	9b04      	ldr	r3, [sp, #16]
   85e78:	691b      	ldr	r3, [r3, #16]
   85e7a:	429f      	cmp	r7, r3
   85e7c:	f6ff af20 	blt.w	85cc0 <__gethex+0x260>
   85e80:	f016 061f 	ands.w	r6, r6, #31
   85e84:	f47f af12 	bne.w	85cac <__gethex+0x24c>
   85e88:	2421      	movs	r4, #33	; 0x21
   85e8a:	e759      	b.n	85d40 <__gethex+0x2e0>
   85e8c:	2701      	movs	r7, #1
   85e8e:	e7b0      	b.n	85df2 <__gethex+0x392>
   85e90:	9a15      	ldr	r2, [sp, #84]	; 0x54
   85e92:	2a00      	cmp	r2, #0
   85e94:	f43f aee8 	beq.w	85c68 <__gethex+0x208>
   85e98:	9907      	ldr	r1, [sp, #28]
   85e9a:	2201      	movs	r2, #1
   85e9c:	600b      	str	r3, [r1, #0]
   85e9e:	9b06      	ldr	r3, [sp, #24]
   85ea0:	9904      	ldr	r1, [sp, #16]
   85ea2:	2062      	movs	r0, #98	; 0x62
   85ea4:	610a      	str	r2, [r1, #16]
   85ea6:	601a      	str	r2, [r3, #0]
   85ea8:	9b14      	ldr	r3, [sp, #80]	; 0x50
   85eaa:	461a      	mov	r2, r3
   85eac:	6011      	str	r1, [r2, #0]
   85eae:	e627      	b.n	85b00 <__gethex+0xa0>
   85eb0:	07ba      	lsls	r2, r7, #30
   85eb2:	f57f af43 	bpl.w	85d3c <__gethex+0x2dc>
   85eb6:	9b06      	ldr	r3, [sp, #24]
   85eb8:	681b      	ldr	r3, [r3, #0]
   85eba:	433b      	orrs	r3, r7
   85ebc:	07db      	lsls	r3, r3, #31
   85ebe:	d4c4      	bmi.n	85e4a <__gethex+0x3ea>
   85ec0:	e73c      	b.n	85d3c <__gethex+0x2dc>
   85ec2:	f8dd 9018 	ldr.w	r9, [sp, #24]
   85ec6:	f04f 0800 	mov.w	r8, #0
   85eca:	e69c      	b.n	85c06 <__gethex+0x1a6>
   85ecc:	2702      	movs	r7, #2
   85ece:	e765      	b.n	85d9c <__gethex+0x33c>
   85ed0:	42b5      	cmp	r5, r6
   85ed2:	f47f aec9 	bne.w	85c68 <__gethex+0x208>
   85ed6:	2e01      	cmp	r6, #1
   85ed8:	ddde      	ble.n	85e98 <__gethex+0x438>
   85eda:	1e71      	subs	r1, r6, #1
   85edc:	9804      	ldr	r0, [sp, #16]
   85ede:	f001 f8ed 	bl	870bc <__any_on>
   85ee2:	2800      	cmp	r0, #0
   85ee4:	f43f aec0 	beq.w	85c68 <__gethex+0x208>
   85ee8:	9b02      	ldr	r3, [sp, #8]
   85eea:	685b      	ldr	r3, [r3, #4]
   85eec:	e7d4      	b.n	85e98 <__gethex+0x438>
   85eee:	9a15      	ldr	r2, [sp, #84]	; 0x54
   85ef0:	2a00      	cmp	r2, #0
   85ef2:	d0d1      	beq.n	85e98 <__gethex+0x438>
   85ef4:	e6b8      	b.n	85c68 <__gethex+0x208>
   85ef6:	9b04      	ldr	r3, [sp, #16]
   85ef8:	689b      	ldr	r3, [r3, #8]
   85efa:	429f      	cmp	r7, r3
   85efc:	da11      	bge.n	85f22 <__gethex+0x4c2>
   85efe:	463b      	mov	r3, r7
   85f00:	f8dd 8018 	ldr.w	r8, [sp, #24]
   85f04:	9804      	ldr	r0, [sp, #16]
   85f06:	1c59      	adds	r1, r3, #1
   85f08:	2201      	movs	r2, #1
   85f0a:	eb00 0383 	add.w	r3, r0, r3, lsl #2
   85f0e:	6101      	str	r1, [r0, #16]
   85f10:	615a      	str	r2, [r3, #20]
   85f12:	e7ae      	b.n	85e72 <__gethex+0x412>
   85f14:	9b02      	ldr	r3, [sp, #8]
   85f16:	681b      	ldr	r3, [r3, #0]
   85f18:	3b01      	subs	r3, #1
   85f1a:	42b3      	cmp	r3, r6
   85f1c:	d01d      	beq.n	85f5a <__gethex+0x4fa>
   85f1e:	2422      	movs	r4, #34	; 0x22
   85f20:	e70e      	b.n	85d40 <__gethex+0x2e0>
   85f22:	9b04      	ldr	r3, [sp, #16]
   85f24:	f8dd 9014 	ldr.w	r9, [sp, #20]
   85f28:	6859      	ldr	r1, [r3, #4]
   85f2a:	4648      	mov	r0, r9
   85f2c:	3101      	adds	r1, #1
   85f2e:	f000 fca1 	bl	86874 <_Balloc>
   85f32:	4680      	mov	r8, r0
   85f34:	9904      	ldr	r1, [sp, #16]
   85f36:	300c      	adds	r0, #12
   85f38:	690b      	ldr	r3, [r1, #16]
   85f3a:	310c      	adds	r1, #12
   85f3c:	1c9a      	adds	r2, r3, #2
   85f3e:	0092      	lsls	r2, r2, #2
   85f40:	f7fc feca 	bl	82cd8 <memcpy>
   85f44:	4648      	mov	r0, r9
   85f46:	9904      	ldr	r1, [sp, #16]
   85f48:	f000 fcbc 	bl	868c4 <_Bfree>
   85f4c:	f8cd 8010 	str.w	r8, [sp, #16]
   85f50:	f8d8 3010 	ldr.w	r3, [r8, #16]
   85f54:	f108 0814 	add.w	r8, r8, #20
   85f58:	e7d4      	b.n	85f04 <__gethex+0x4a4>
   85f5a:	1173      	asrs	r3, r6, #5
   85f5c:	f858 2023 	ldr.w	r2, [r8, r3, lsl #2]
   85f60:	f006 061f 	and.w	r6, r6, #31
   85f64:	2301      	movs	r3, #1
   85f66:	40b3      	lsls	r3, r6
   85f68:	4213      	tst	r3, r2
   85f6a:	bf0c      	ite	eq
   85f6c:	2422      	moveq	r4, #34	; 0x22
   85f6e:	2421      	movne	r4, #33	; 0x21
   85f70:	e6e6      	b.n	85d40 <__gethex+0x2e0>
   85f72:	bf00      	nop

00085f74 <__hexnan>:
   85f74:	e92d 4ff0 	stmdb	sp!, {r4, r5, r6, r7, r8, r9, sl, fp, lr}
   85f78:	680b      	ldr	r3, [r1, #0]
   85f7a:	b085      	sub	sp, #20
   85f7c:	1159      	asrs	r1, r3, #5
   85f7e:	eb02 0181 	add.w	r1, r2, r1, lsl #2
   85f82:	f013 031f 	ands.w	r3, r3, #31
   85f86:	9002      	str	r0, [sp, #8]
   85f88:	9101      	str	r1, [sp, #4]
   85f8a:	9303      	str	r3, [sp, #12]
   85f8c:	d002      	beq.n	85f94 <__hexnan+0x20>
   85f8e:	460b      	mov	r3, r1
   85f90:	3304      	adds	r3, #4
   85f92:	9301      	str	r3, [sp, #4]
   85f94:	9c01      	ldr	r4, [sp, #4]
   85f96:	2300      	movs	r3, #0
   85f98:	f1a4 0c04 	sub.w	ip, r4, #4
   85f9c:	46e0      	mov	r8, ip
   85f9e:	4660      	mov	r0, ip
   85fa0:	4619      	mov	r1, r3
   85fa2:	f844 3c04 	str.w	r3, [r4, #-4]
   85fa6:	469a      	mov	sl, r3
   85fa8:	469e      	mov	lr, r3
   85faa:	9b02      	ldr	r3, [sp, #8]
   85fac:	f8df 9144 	ldr.w	r9, [pc, #324]	; 860f4 <__hexnan+0x180>
   85fb0:	681d      	ldr	r5, [r3, #0]
   85fb2:	f815 3f01 	ldrb.w	r3, [r5, #1]!
   85fb6:	b323      	cbz	r3, 86002 <__hexnan+0x8e>
   85fb8:	f819 4003 	ldrb.w	r4, [r9, r3]
   85fbc:	2c00      	cmp	r4, #0
   85fbe:	d143      	bne.n	86048 <__hexnan+0xd4>
   85fc0:	2b20      	cmp	r3, #32
   85fc2:	d85e      	bhi.n	86082 <__hexnan+0x10e>
   85fc4:	45d6      	cmp	lr, sl
   85fc6:	ddf4      	ble.n	85fb2 <__hexnan+0x3e>
   85fc8:	4540      	cmp	r0, r8
   85fca:	d213      	bcs.n	85ff4 <__hexnan+0x80>
   85fcc:	2907      	cmp	r1, #7
   85fce:	dc11      	bgt.n	85ff4 <__hexnan+0x80>
   85fd0:	4603      	mov	r3, r0
   85fd2:	f1c1 0108 	rsb	r1, r1, #8
   85fd6:	0089      	lsls	r1, r1, #2
   85fd8:	6806      	ldr	r6, [r0, #0]
   85fda:	f1c1 0b20 	rsb	fp, r1, #32
   85fde:	685f      	ldr	r7, [r3, #4]
   85fe0:	fa07 f40b 	lsl.w	r4, r7, fp
   85fe4:	4334      	orrs	r4, r6
   85fe6:	fa27 f601 	lsr.w	r6, r7, r1
   85fea:	601c      	str	r4, [r3, #0]
   85fec:	f843 6f04 	str.w	r6, [r3, #4]!
   85ff0:	4598      	cmp	r8, r3
   85ff2:	d8f4      	bhi.n	85fde <__hexnan+0x6a>
   85ff4:	4290      	cmp	r0, r2
   85ff6:	d83b      	bhi.n	86070 <__hexnan+0xfc>
   85ff8:	f815 3f01 	ldrb.w	r3, [r5, #1]!
   85ffc:	2108      	movs	r1, #8
   85ffe:	2b00      	cmp	r3, #0
   86000:	d1da      	bne.n	85fb8 <__hexnan+0x44>
   86002:	f1be 0f00 	cmp.w	lr, #0
   86006:	d03e      	beq.n	86086 <__hexnan+0x112>
   86008:	4540      	cmp	r0, r8
   8600a:	d201      	bcs.n	86010 <__hexnan+0x9c>
   8600c:	2907      	cmp	r1, #7
   8600e:	dd5d      	ble.n	860cc <__hexnan+0x158>
   86010:	4282      	cmp	r2, r0
   86012:	d23c      	bcs.n	8608e <__hexnan+0x11a>
   86014:	4613      	mov	r3, r2
   86016:	f850 1b04 	ldr.w	r1, [r0], #4
   8601a:	4584      	cmp	ip, r0
   8601c:	f843 1b04 	str.w	r1, [r3], #4
   86020:	d2f9      	bcs.n	86016 <__hexnan+0xa2>
   86022:	2100      	movs	r1, #0
   86024:	f843 1b04 	str.w	r1, [r3], #4
   86028:	459c      	cmp	ip, r3
   8602a:	d2fb      	bcs.n	86024 <__hexnan+0xb0>
   8602c:	9b01      	ldr	r3, [sp, #4]
   8602e:	f853 3c04 	ldr.w	r3, [r3, #-4]
   86032:	b92b      	cbnz	r3, 86040 <__hexnan+0xcc>
   86034:	4562      	cmp	r2, ip
   86036:	d03b      	beq.n	860b0 <__hexnan+0x13c>
   86038:	f85c 3d04 	ldr.w	r3, [ip, #-4]!
   8603c:	2b00      	cmp	r3, #0
   8603e:	d0f9      	beq.n	86034 <__hexnan+0xc0>
   86040:	2005      	movs	r0, #5
   86042:	b005      	add	sp, #20
   86044:	e8bd 8ff0 	ldmia.w	sp!, {r4, r5, r6, r7, r8, r9, sl, fp, pc}
   86048:	3101      	adds	r1, #1
   8604a:	2908      	cmp	r1, #8
   8604c:	f10e 0e01 	add.w	lr, lr, #1
   86050:	dc06      	bgt.n	86060 <__hexnan+0xec>
   86052:	6803      	ldr	r3, [r0, #0]
   86054:	011b      	lsls	r3, r3, #4
   86056:	f004 040f 	and.w	r4, r4, #15
   8605a:	431c      	orrs	r4, r3
   8605c:	6004      	str	r4, [r0, #0]
   8605e:	e7a8      	b.n	85fb2 <__hexnan+0x3e>
   86060:	4290      	cmp	r0, r2
   86062:	d9a6      	bls.n	85fb2 <__hexnan+0x3e>
   86064:	2300      	movs	r3, #0
   86066:	f840 3c04 	str.w	r3, [r0, #-4]
   8606a:	2101      	movs	r1, #1
   8606c:	3804      	subs	r0, #4
   8606e:	e7f2      	b.n	86056 <__hexnan+0xe2>
   86070:	2300      	movs	r3, #0
   86072:	f1a0 0804 	sub.w	r8, r0, #4
   86076:	f840 3c04 	str.w	r3, [r0, #-4]
   8607a:	46f2      	mov	sl, lr
   8607c:	4640      	mov	r0, r8
   8607e:	4619      	mov	r1, r3
   86080:	e797      	b.n	85fb2 <__hexnan+0x3e>
   86082:	2b29      	cmp	r3, #41	; 0x29
   86084:	d01b      	beq.n	860be <__hexnan+0x14a>
   86086:	2004      	movs	r0, #4
   86088:	b005      	add	sp, #20
   8608a:	e8bd 8ff0 	ldmia.w	sp!, {r4, r5, r6, r7, r8, r9, sl, fp, pc}
   8608e:	9b03      	ldr	r3, [sp, #12]
   86090:	2b00      	cmp	r3, #0
   86092:	d0cb      	beq.n	8602c <__hexnan+0xb8>
   86094:	9c01      	ldr	r4, [sp, #4]
   86096:	9b03      	ldr	r3, [sp, #12]
   86098:	f854 1c04 	ldr.w	r1, [r4, #-4]
   8609c:	f1c3 0320 	rsb	r3, r3, #32
   860a0:	f04f 30ff 	mov.w	r0, #4294967295
   860a4:	fa20 f303 	lsr.w	r3, r0, r3
   860a8:	400b      	ands	r3, r1
   860aa:	f844 3c04 	str.w	r3, [r4, #-4]
   860ae:	e7c0      	b.n	86032 <__hexnan+0xbe>
   860b0:	2301      	movs	r3, #1
   860b2:	2005      	movs	r0, #5
   860b4:	f8cc 3000 	str.w	r3, [ip]
   860b8:	b005      	add	sp, #20
   860ba:	e8bd 8ff0 	ldmia.w	sp!, {r4, r5, r6, r7, r8, r9, sl, fp, pc}
   860be:	9b02      	ldr	r3, [sp, #8]
   860c0:	3501      	adds	r5, #1
   860c2:	601d      	str	r5, [r3, #0]
   860c4:	f1be 0f00 	cmp.w	lr, #0
   860c8:	d19e      	bne.n	86008 <__hexnan+0x94>
   860ca:	e7dc      	b.n	86086 <__hexnan+0x112>
   860cc:	4604      	mov	r4, r0
   860ce:	f1c1 0308 	rsb	r3, r1, #8
   860d2:	009b      	lsls	r3, r3, #2
   860d4:	6805      	ldr	r5, [r0, #0]
   860d6:	f1c3 0720 	rsb	r7, r3, #32
   860da:	6866      	ldr	r6, [r4, #4]
   860dc:	fa06 f107 	lsl.w	r1, r6, r7
   860e0:	4329      	orrs	r1, r5
   860e2:	fa26 f503 	lsr.w	r5, r6, r3
   860e6:	6021      	str	r1, [r4, #0]
   860e8:	f844 5f04 	str.w	r5, [r4, #4]!
   860ec:	4544      	cmp	r4, r8
   860ee:	d3f4      	bcc.n	860da <__hexnan+0x166>
   860f0:	e78e      	b.n	86010 <__hexnan+0x9c>
   860f2:	bf00      	nop
   860f4:	00088b6c 	.word	0x00088b6c

000860f8 <__locale_charset>:
   860f8:	4800      	ldr	r0, [pc, #0]	; (860fc <__locale_charset+0x4>)
   860fa:	4770      	bx	lr
   860fc:	20070570 	.word	0x20070570

00086100 <__locale_mb_cur_max>:
   86100:	4b01      	ldr	r3, [pc, #4]	; (86108 <__locale_mb_cur_max+0x8>)
   86102:	6818      	ldr	r0, [r3, #0]
   86104:	4770      	bx	lr
   86106:	bf00      	nop
   86108:	20070590 	.word	0x20070590

0008610c <_localeconv_r>:
   8610c:	4800      	ldr	r0, [pc, #0]	; (86110 <_localeconv_r+0x4>)
   8610e:	4770      	bx	lr
   86110:	20070538 	.word	0x20070538

00086114 <__smakebuf_r>:
   86114:	898b      	ldrh	r3, [r1, #12]
   86116:	b29a      	uxth	r2, r3
   86118:	f012 0f02 	tst.w	r2, #2
   8611c:	d13c      	bne.n	86198 <__smakebuf_r+0x84>
   8611e:	b5f0      	push	{r4, r5, r6, r7, lr}
   86120:	460c      	mov	r4, r1
   86122:	f9b1 100e 	ldrsh.w	r1, [r1, #14]
   86126:	b091      	sub	sp, #68	; 0x44
   86128:	2900      	cmp	r1, #0
   8612a:	4605      	mov	r5, r0
   8612c:	db19      	blt.n	86162 <__smakebuf_r+0x4e>
   8612e:	aa01      	add	r2, sp, #4
   86130:	f001 fc3e 	bl	879b0 <_fstat_r>
   86134:	2800      	cmp	r0, #0
   86136:	db12      	blt.n	8615e <__smakebuf_r+0x4a>
   86138:	9b02      	ldr	r3, [sp, #8]
   8613a:	f403 4370 	and.w	r3, r3, #61440	; 0xf000
   8613e:	f5a3 5700 	sub.w	r7, r3, #8192	; 0x2000
   86142:	fab7 f787 	clz	r7, r7
   86146:	f5b3 4f00 	cmp.w	r3, #32768	; 0x8000
   8614a:	ea4f 1757 	mov.w	r7, r7, lsr #5
   8614e:	d02a      	beq.n	861a6 <__smakebuf_r+0x92>
   86150:	89a3      	ldrh	r3, [r4, #12]
   86152:	f44f 6680 	mov.w	r6, #1024	; 0x400
   86156:	f443 6300 	orr.w	r3, r3, #2048	; 0x800
   8615a:	81a3      	strh	r3, [r4, #12]
   8615c:	e00b      	b.n	86176 <__smakebuf_r+0x62>
   8615e:	89a3      	ldrh	r3, [r4, #12]
   86160:	b29a      	uxth	r2, r3
   86162:	f012 0f80 	tst.w	r2, #128	; 0x80
   86166:	f443 6300 	orr.w	r3, r3, #2048	; 0x800
   8616a:	81a3      	strh	r3, [r4, #12]
   8616c:	bf0c      	ite	eq
   8616e:	f44f 6680 	moveq.w	r6, #1024	; 0x400
   86172:	2640      	movne	r6, #64	; 0x40
   86174:	2700      	movs	r7, #0
   86176:	4628      	mov	r0, r5
   86178:	4631      	mov	r1, r6
   8617a:	f000 f843 	bl	86204 <_malloc_r>
   8617e:	89a3      	ldrh	r3, [r4, #12]
   86180:	b340      	cbz	r0, 861d4 <__smakebuf_r+0xc0>
   86182:	4a1a      	ldr	r2, [pc, #104]	; (861ec <__smakebuf_r+0xd8>)
   86184:	f043 0380 	orr.w	r3, r3, #128	; 0x80
   86188:	63ea      	str	r2, [r5, #60]	; 0x3c
   8618a:	81a3      	strh	r3, [r4, #12]
   8618c:	6020      	str	r0, [r4, #0]
   8618e:	6120      	str	r0, [r4, #16]
   86190:	6166      	str	r6, [r4, #20]
   86192:	b99f      	cbnz	r7, 861bc <__smakebuf_r+0xa8>
   86194:	b011      	add	sp, #68	; 0x44
   86196:	bdf0      	pop	{r4, r5, r6, r7, pc}
   86198:	f101 0343 	add.w	r3, r1, #67	; 0x43
   8619c:	2201      	movs	r2, #1
   8619e:	600b      	str	r3, [r1, #0]
   861a0:	610b      	str	r3, [r1, #16]
   861a2:	614a      	str	r2, [r1, #20]
   861a4:	4770      	bx	lr
   861a6:	4b12      	ldr	r3, [pc, #72]	; (861f0 <__smakebuf_r+0xdc>)
   861a8:	6aa2      	ldr	r2, [r4, #40]	; 0x28
   861aa:	429a      	cmp	r2, r3
   861ac:	d1d0      	bne.n	86150 <__smakebuf_r+0x3c>
   861ae:	89a3      	ldrh	r3, [r4, #12]
   861b0:	f44f 6680 	mov.w	r6, #1024	; 0x400
   861b4:	4333      	orrs	r3, r6
   861b6:	81a3      	strh	r3, [r4, #12]
   861b8:	64e6      	str	r6, [r4, #76]	; 0x4c
   861ba:	e7dc      	b.n	86176 <__smakebuf_r+0x62>
   861bc:	4628      	mov	r0, r5
   861be:	f9b4 100e 	ldrsh.w	r1, [r4, #14]
   861c2:	f001 fc09 	bl	879d8 <_isatty_r>
   861c6:	2800      	cmp	r0, #0
   861c8:	d0e4      	beq.n	86194 <__smakebuf_r+0x80>
   861ca:	89a3      	ldrh	r3, [r4, #12]
   861cc:	f043 0301 	orr.w	r3, r3, #1
   861d0:	81a3      	strh	r3, [r4, #12]
   861d2:	e7df      	b.n	86194 <__smakebuf_r+0x80>
   861d4:	059a      	lsls	r2, r3, #22
   861d6:	d4dd      	bmi.n	86194 <__smakebuf_r+0x80>
   861d8:	f104 0243 	add.w	r2, r4, #67	; 0x43
   861dc:	f043 0302 	orr.w	r3, r3, #2
   861e0:	2101      	movs	r1, #1
   861e2:	81a3      	strh	r3, [r4, #12]
   861e4:	6022      	str	r2, [r4, #0]
   861e6:	6122      	str	r2, [r4, #16]
   861e8:	6161      	str	r1, [r4, #20]
   861ea:	e7d3      	b.n	86194 <__smakebuf_r+0x80>
   861ec:	000851ad 	.word	0x000851ad
   861f0:	0008769d 	.word	0x0008769d

000861f4 <malloc>:
   861f4:	4b02      	ldr	r3, [pc, #8]	; (86200 <malloc+0xc>)
   861f6:	4601      	mov	r1, r0
   861f8:	6818      	ldr	r0, [r3, #0]
   861fa:	f000 b803 	b.w	86204 <_malloc_r>
   861fe:	bf00      	nop
   86200:	20070530 	.word	0x20070530

00086204 <_malloc_r>:
   86204:	e92d 4ff0 	stmdb	sp!, {r4, r5, r6, r7, r8, r9, sl, fp, lr}
   86208:	f101 050b 	add.w	r5, r1, #11
   8620c:	2d16      	cmp	r5, #22
   8620e:	b083      	sub	sp, #12
   86210:	4606      	mov	r6, r0
   86212:	d927      	bls.n	86264 <_malloc_r+0x60>
   86214:	f035 0507 	bics.w	r5, r5, #7
   86218:	f100 80b6 	bmi.w	86388 <_malloc_r+0x184>
   8621c:	42a9      	cmp	r1, r5
   8621e:	f200 80b3 	bhi.w	86388 <_malloc_r+0x184>
   86222:	f000 fb23 	bl	8686c <__malloc_lock>
   86226:	f5b5 7ffc 	cmp.w	r5, #504	; 0x1f8
   8622a:	d222      	bcs.n	86272 <_malloc_r+0x6e>
   8622c:	4fbc      	ldr	r7, [pc, #752]	; (86520 <_malloc_r+0x31c>)
   8622e:	08e8      	lsrs	r0, r5, #3
   86230:	eb07 03c0 	add.w	r3, r7, r0, lsl #3
   86234:	68dc      	ldr	r4, [r3, #12]
   86236:	429c      	cmp	r4, r3
   86238:	f000 81bc 	beq.w	865b4 <_malloc_r+0x3b0>
   8623c:	6863      	ldr	r3, [r4, #4]
   8623e:	68e1      	ldr	r1, [r4, #12]
   86240:	f023 0303 	bic.w	r3, r3, #3
   86244:	4423      	add	r3, r4
   86246:	685a      	ldr	r2, [r3, #4]
   86248:	68a5      	ldr	r5, [r4, #8]
   8624a:	f042 0201 	orr.w	r2, r2, #1
   8624e:	60e9      	str	r1, [r5, #12]
   86250:	4630      	mov	r0, r6
   86252:	608d      	str	r5, [r1, #8]
   86254:	605a      	str	r2, [r3, #4]
   86256:	f000 fb0b 	bl	86870 <__malloc_unlock>
   8625a:	3408      	adds	r4, #8
   8625c:	4620      	mov	r0, r4
   8625e:	b003      	add	sp, #12
   86260:	e8bd 8ff0 	ldmia.w	sp!, {r4, r5, r6, r7, r8, r9, sl, fp, pc}
   86264:	2910      	cmp	r1, #16
   86266:	f200 808f 	bhi.w	86388 <_malloc_r+0x184>
   8626a:	f000 faff 	bl	8686c <__malloc_lock>
   8626e:	2510      	movs	r5, #16
   86270:	e7dc      	b.n	8622c <_malloc_r+0x28>
   86272:	0a68      	lsrs	r0, r5, #9
   86274:	f000 808f 	beq.w	86396 <_malloc_r+0x192>
   86278:	2804      	cmp	r0, #4
   8627a:	f200 8147 	bhi.w	8650c <_malloc_r+0x308>
   8627e:	09a8      	lsrs	r0, r5, #6
   86280:	3038      	adds	r0, #56	; 0x38
   86282:	0041      	lsls	r1, r0, #1
   86284:	4fa6      	ldr	r7, [pc, #664]	; (86520 <_malloc_r+0x31c>)
   86286:	eb07 0181 	add.w	r1, r7, r1, lsl #2
   8628a:	68cc      	ldr	r4, [r1, #12]
   8628c:	42a1      	cmp	r1, r4
   8628e:	d106      	bne.n	8629e <_malloc_r+0x9a>
   86290:	e00c      	b.n	862ac <_malloc_r+0xa8>
   86292:	2a00      	cmp	r2, #0
   86294:	f280 8082 	bge.w	8639c <_malloc_r+0x198>
   86298:	68e4      	ldr	r4, [r4, #12]
   8629a:	42a1      	cmp	r1, r4
   8629c:	d006      	beq.n	862ac <_malloc_r+0xa8>
   8629e:	6863      	ldr	r3, [r4, #4]
   862a0:	f023 0303 	bic.w	r3, r3, #3
   862a4:	1b5a      	subs	r2, r3, r5
   862a6:	2a0f      	cmp	r2, #15
   862a8:	ddf3      	ble.n	86292 <_malloc_r+0x8e>
   862aa:	3801      	subs	r0, #1
   862ac:	3001      	adds	r0, #1
   862ae:	499c      	ldr	r1, [pc, #624]	; (86520 <_malloc_r+0x31c>)
   862b0:	693c      	ldr	r4, [r7, #16]
   862b2:	f101 0e08 	add.w	lr, r1, #8
   862b6:	4574      	cmp	r4, lr
   862b8:	f000 8171 	beq.w	8659e <_malloc_r+0x39a>
   862bc:	6863      	ldr	r3, [r4, #4]
   862be:	f023 0303 	bic.w	r3, r3, #3
   862c2:	1b5a      	subs	r2, r3, r5
   862c4:	2a0f      	cmp	r2, #15
   862c6:	f300 8157 	bgt.w	86578 <_malloc_r+0x374>
   862ca:	2a00      	cmp	r2, #0
   862cc:	f8c1 e014 	str.w	lr, [r1, #20]
   862d0:	f8c1 e010 	str.w	lr, [r1, #16]
   862d4:	da66      	bge.n	863a4 <_malloc_r+0x1a0>
   862d6:	f5b3 7f00 	cmp.w	r3, #512	; 0x200
   862da:	f080 812d 	bcs.w	86538 <_malloc_r+0x334>
   862de:	08db      	lsrs	r3, r3, #3
   862e0:	eb01 08c3 	add.w	r8, r1, r3, lsl #3
   862e4:	ea4f 0ca3 	mov.w	ip, r3, asr #2
   862e8:	684a      	ldr	r2, [r1, #4]
   862ea:	2301      	movs	r3, #1
   862ec:	fa03 f30c 	lsl.w	r3, r3, ip
   862f0:	f8d8 c008 	ldr.w	ip, [r8, #8]
   862f4:	4313      	orrs	r3, r2
   862f6:	f8c4 c008 	str.w	ip, [r4, #8]
   862fa:	f8c4 800c 	str.w	r8, [r4, #12]
   862fe:	604b      	str	r3, [r1, #4]
   86300:	f8c8 4008 	str.w	r4, [r8, #8]
   86304:	f8cc 400c 	str.w	r4, [ip, #12]
   86308:	1082      	asrs	r2, r0, #2
   8630a:	2401      	movs	r4, #1
   8630c:	4094      	lsls	r4, r2
   8630e:	429c      	cmp	r4, r3
   86310:	d855      	bhi.n	863be <_malloc_r+0x1ba>
   86312:	4223      	tst	r3, r4
   86314:	d106      	bne.n	86324 <_malloc_r+0x120>
   86316:	f020 0003 	bic.w	r0, r0, #3
   8631a:	0064      	lsls	r4, r4, #1
   8631c:	4223      	tst	r3, r4
   8631e:	f100 0004 	add.w	r0, r0, #4
   86322:	d0fa      	beq.n	8631a <_malloc_r+0x116>
   86324:	eb07 08c0 	add.w	r8, r7, r0, lsl #3
   86328:	46c4      	mov	ip, r8
   8632a:	4681      	mov	r9, r0
   8632c:	f8dc 300c 	ldr.w	r3, [ip, #12]
   86330:	459c      	cmp	ip, r3
   86332:	d107      	bne.n	86344 <_malloc_r+0x140>
   86334:	e135      	b.n	865a2 <_malloc_r+0x39e>
   86336:	2900      	cmp	r1, #0
   86338:	f280 8145 	bge.w	865c6 <_malloc_r+0x3c2>
   8633c:	68db      	ldr	r3, [r3, #12]
   8633e:	459c      	cmp	ip, r3
   86340:	f000 812f 	beq.w	865a2 <_malloc_r+0x39e>
   86344:	685a      	ldr	r2, [r3, #4]
   86346:	f022 0203 	bic.w	r2, r2, #3
   8634a:	1b51      	subs	r1, r2, r5
   8634c:	290f      	cmp	r1, #15
   8634e:	ddf2      	ble.n	86336 <_malloc_r+0x132>
   86350:	461c      	mov	r4, r3
   86352:	68da      	ldr	r2, [r3, #12]
   86354:	f854 cf08 	ldr.w	ip, [r4, #8]!
   86358:	f045 0901 	orr.w	r9, r5, #1
   8635c:	f041 0801 	orr.w	r8, r1, #1
   86360:	441d      	add	r5, r3
   86362:	f8c3 9004 	str.w	r9, [r3, #4]
   86366:	4630      	mov	r0, r6
   86368:	f8cc 200c 	str.w	r2, [ip, #12]
   8636c:	f8c2 c008 	str.w	ip, [r2, #8]
   86370:	617d      	str	r5, [r7, #20]
   86372:	613d      	str	r5, [r7, #16]
   86374:	f8c5 e00c 	str.w	lr, [r5, #12]
   86378:	f8c5 e008 	str.w	lr, [r5, #8]
   8637c:	f8c5 8004 	str.w	r8, [r5, #4]
   86380:	5069      	str	r1, [r5, r1]
   86382:	f000 fa75 	bl	86870 <__malloc_unlock>
   86386:	e769      	b.n	8625c <_malloc_r+0x58>
   86388:	2400      	movs	r4, #0
   8638a:	4620      	mov	r0, r4
   8638c:	230c      	movs	r3, #12
   8638e:	6033      	str	r3, [r6, #0]
   86390:	b003      	add	sp, #12
   86392:	e8bd 8ff0 	ldmia.w	sp!, {r4, r5, r6, r7, r8, r9, sl, fp, pc}
   86396:	217e      	movs	r1, #126	; 0x7e
   86398:	203f      	movs	r0, #63	; 0x3f
   8639a:	e773      	b.n	86284 <_malloc_r+0x80>
   8639c:	4423      	add	r3, r4
   8639e:	685a      	ldr	r2, [r3, #4]
   863a0:	68e1      	ldr	r1, [r4, #12]
   863a2:	e751      	b.n	86248 <_malloc_r+0x44>
   863a4:	4423      	add	r3, r4
   863a6:	685a      	ldr	r2, [r3, #4]
   863a8:	4630      	mov	r0, r6
   863aa:	f042 0201 	orr.w	r2, r2, #1
   863ae:	605a      	str	r2, [r3, #4]
   863b0:	3408      	adds	r4, #8
   863b2:	f000 fa5d 	bl	86870 <__malloc_unlock>
   863b6:	4620      	mov	r0, r4
   863b8:	b003      	add	sp, #12
   863ba:	e8bd 8ff0 	ldmia.w	sp!, {r4, r5, r6, r7, r8, r9, sl, fp, pc}
   863be:	68bc      	ldr	r4, [r7, #8]
   863c0:	6863      	ldr	r3, [r4, #4]
   863c2:	f023 0803 	bic.w	r8, r3, #3
   863c6:	4545      	cmp	r5, r8
   863c8:	d804      	bhi.n	863d4 <_malloc_r+0x1d0>
   863ca:	ebc5 0308 	rsb	r3, r5, r8
   863ce:	2b0f      	cmp	r3, #15
   863d0:	f300 808c 	bgt.w	864ec <_malloc_r+0x2e8>
   863d4:	4b53      	ldr	r3, [pc, #332]	; (86524 <_malloc_r+0x320>)
   863d6:	f8df a15c 	ldr.w	sl, [pc, #348]	; 86534 <_malloc_r+0x330>
   863da:	681a      	ldr	r2, [r3, #0]
   863dc:	f8da 3000 	ldr.w	r3, [sl]
   863e0:	442a      	add	r2, r5
   863e2:	3301      	adds	r3, #1
   863e4:	eb04 0b08 	add.w	fp, r4, r8
   863e8:	f000 8151 	beq.w	8668e <_malloc_r+0x48a>
   863ec:	f502 5280 	add.w	r2, r2, #4096	; 0x1000
   863f0:	320f      	adds	r2, #15
   863f2:	f422 627f 	bic.w	r2, r2, #4080	; 0xff0
   863f6:	f022 020f 	bic.w	r2, r2, #15
   863fa:	4611      	mov	r1, r2
   863fc:	4630      	mov	r0, r6
   863fe:	9201      	str	r2, [sp, #4]
   86400:	f001 f90c 	bl	8761c <_sbrk_r>
   86404:	f1b0 3fff 	cmp.w	r0, #4294967295
   86408:	4681      	mov	r9, r0
   8640a:	9a01      	ldr	r2, [sp, #4]
   8640c:	f000 8148 	beq.w	866a0 <_malloc_r+0x49c>
   86410:	4583      	cmp	fp, r0
   86412:	f200 80ef 	bhi.w	865f4 <_malloc_r+0x3f0>
   86416:	4b44      	ldr	r3, [pc, #272]	; (86528 <_malloc_r+0x324>)
   86418:	45cb      	cmp	fp, r9
   8641a:	6819      	ldr	r1, [r3, #0]
   8641c:	4411      	add	r1, r2
   8641e:	6019      	str	r1, [r3, #0]
   86420:	f000 8143 	beq.w	866aa <_malloc_r+0x4a6>
   86424:	f8da 0000 	ldr.w	r0, [sl]
   86428:	f8df e108 	ldr.w	lr, [pc, #264]	; 86534 <_malloc_r+0x330>
   8642c:	3001      	adds	r0, #1
   8642e:	bf1b      	ittet	ne
   86430:	ebcb 0b09 	rsbne	fp, fp, r9
   86434:	4459      	addne	r1, fp
   86436:	f8ce 9000 	streq.w	r9, [lr]
   8643a:	6019      	strne	r1, [r3, #0]
   8643c:	f019 0107 	ands.w	r1, r9, #7
   86440:	f000 8108 	beq.w	86654 <_malloc_r+0x450>
   86444:	f1c1 0008 	rsb	r0, r1, #8
   86448:	f5c1 5180 	rsb	r1, r1, #4096	; 0x1000
   8644c:	4481      	add	r9, r0
   8644e:	3108      	adds	r1, #8
   86450:	444a      	add	r2, r9
   86452:	f3c2 020b 	ubfx	r2, r2, #0, #12
   86456:	ebc2 0a01 	rsb	sl, r2, r1
   8645a:	4651      	mov	r1, sl
   8645c:	4630      	mov	r0, r6
   8645e:	9301      	str	r3, [sp, #4]
   86460:	f001 f8dc 	bl	8761c <_sbrk_r>
   86464:	1c43      	adds	r3, r0, #1
   86466:	9b01      	ldr	r3, [sp, #4]
   86468:	f000 812d 	beq.w	866c6 <_malloc_r+0x4c2>
   8646c:	ebc9 0200 	rsb	r2, r9, r0
   86470:	4452      	add	r2, sl
   86472:	f042 0201 	orr.w	r2, r2, #1
   86476:	6819      	ldr	r1, [r3, #0]
   86478:	42bc      	cmp	r4, r7
   8647a:	4451      	add	r1, sl
   8647c:	f8c7 9008 	str.w	r9, [r7, #8]
   86480:	6019      	str	r1, [r3, #0]
   86482:	f8c9 2004 	str.w	r2, [r9, #4]
   86486:	f8df a0a0 	ldr.w	sl, [pc, #160]	; 86528 <_malloc_r+0x324>
   8648a:	d016      	beq.n	864ba <_malloc_r+0x2b6>
   8648c:	f1b8 0f0f 	cmp.w	r8, #15
   86490:	f240 80ef 	bls.w	86672 <_malloc_r+0x46e>
   86494:	6862      	ldr	r2, [r4, #4]
   86496:	f1a8 030c 	sub.w	r3, r8, #12
   8649a:	f023 0307 	bic.w	r3, r3, #7
   8649e:	f002 0201 	and.w	r2, r2, #1
   864a2:	18e0      	adds	r0, r4, r3
   864a4:	f04f 0e05 	mov.w	lr, #5
   864a8:	431a      	orrs	r2, r3
   864aa:	2b0f      	cmp	r3, #15
   864ac:	6062      	str	r2, [r4, #4]
   864ae:	f8c0 e004 	str.w	lr, [r0, #4]
   864b2:	f8c0 e008 	str.w	lr, [r0, #8]
   864b6:	f200 810a 	bhi.w	866ce <_malloc_r+0x4ca>
   864ba:	4b1c      	ldr	r3, [pc, #112]	; (8652c <_malloc_r+0x328>)
   864bc:	68bc      	ldr	r4, [r7, #8]
   864be:	681a      	ldr	r2, [r3, #0]
   864c0:	4291      	cmp	r1, r2
   864c2:	bf88      	it	hi
   864c4:	6019      	strhi	r1, [r3, #0]
   864c6:	4b1a      	ldr	r3, [pc, #104]	; (86530 <_malloc_r+0x32c>)
   864c8:	681a      	ldr	r2, [r3, #0]
   864ca:	4291      	cmp	r1, r2
   864cc:	6862      	ldr	r2, [r4, #4]
   864ce:	bf88      	it	hi
   864d0:	6019      	strhi	r1, [r3, #0]
   864d2:	f022 0203 	bic.w	r2, r2, #3
   864d6:	4295      	cmp	r5, r2
   864d8:	eba2 0305 	sub.w	r3, r2, r5
   864dc:	d801      	bhi.n	864e2 <_malloc_r+0x2de>
   864de:	2b0f      	cmp	r3, #15
   864e0:	dc04      	bgt.n	864ec <_malloc_r+0x2e8>
   864e2:	4630      	mov	r0, r6
   864e4:	f000 f9c4 	bl	86870 <__malloc_unlock>
   864e8:	2400      	movs	r4, #0
   864ea:	e6b7      	b.n	8625c <_malloc_r+0x58>
   864ec:	f045 0201 	orr.w	r2, r5, #1
   864f0:	f043 0301 	orr.w	r3, r3, #1
   864f4:	4425      	add	r5, r4
   864f6:	6062      	str	r2, [r4, #4]
   864f8:	4630      	mov	r0, r6
   864fa:	60bd      	str	r5, [r7, #8]
   864fc:	3408      	adds	r4, #8
   864fe:	606b      	str	r3, [r5, #4]
   86500:	f000 f9b6 	bl	86870 <__malloc_unlock>
   86504:	4620      	mov	r0, r4
   86506:	b003      	add	sp, #12
   86508:	e8bd 8ff0 	ldmia.w	sp!, {r4, r5, r6, r7, r8, r9, sl, fp, pc}
   8650c:	2814      	cmp	r0, #20
   8650e:	d969      	bls.n	865e4 <_malloc_r+0x3e0>
   86510:	2854      	cmp	r0, #84	; 0x54
   86512:	f200 8098 	bhi.w	86646 <_malloc_r+0x442>
   86516:	0b28      	lsrs	r0, r5, #12
   86518:	306e      	adds	r0, #110	; 0x6e
   8651a:	0041      	lsls	r1, r0, #1
   8651c:	e6b2      	b.n	86284 <_malloc_r+0x80>
   8651e:	bf00      	nop
   86520:	20070594 	.word	0x20070594
   86524:	2007ad80 	.word	0x2007ad80
   86528:	2007ad84 	.word	0x2007ad84
   8652c:	2007ad7c 	.word	0x2007ad7c
   86530:	2007ad78 	.word	0x2007ad78
   86534:	200709a0 	.word	0x200709a0
   86538:	0a5a      	lsrs	r2, r3, #9
   8653a:	2a04      	cmp	r2, #4
   8653c:	d955      	bls.n	865ea <_malloc_r+0x3e6>
   8653e:	2a14      	cmp	r2, #20
   86540:	f200 80a7 	bhi.w	86692 <_malloc_r+0x48e>
   86544:	325b      	adds	r2, #91	; 0x5b
   86546:	ea4f 0c42 	mov.w	ip, r2, lsl #1
   8654a:	eb07 0c8c 	add.w	ip, r7, ip, lsl #2
   8654e:	f8dc 1008 	ldr.w	r1, [ip, #8]
   86552:	f8df 81b8 	ldr.w	r8, [pc, #440]	; 8670c <_malloc_r+0x508>
   86556:	4561      	cmp	r1, ip
   86558:	d07f      	beq.n	8665a <_malloc_r+0x456>
   8655a:	684a      	ldr	r2, [r1, #4]
   8655c:	f022 0203 	bic.w	r2, r2, #3
   86560:	4293      	cmp	r3, r2
   86562:	d202      	bcs.n	8656a <_malloc_r+0x366>
   86564:	6889      	ldr	r1, [r1, #8]
   86566:	458c      	cmp	ip, r1
   86568:	d1f7      	bne.n	8655a <_malloc_r+0x356>
   8656a:	68ca      	ldr	r2, [r1, #12]
   8656c:	687b      	ldr	r3, [r7, #4]
   8656e:	60e2      	str	r2, [r4, #12]
   86570:	60a1      	str	r1, [r4, #8]
   86572:	6094      	str	r4, [r2, #8]
   86574:	60cc      	str	r4, [r1, #12]
   86576:	e6c7      	b.n	86308 <_malloc_r+0x104>
   86578:	f045 0701 	orr.w	r7, r5, #1
   8657c:	f042 0301 	orr.w	r3, r2, #1
   86580:	4425      	add	r5, r4
   86582:	6067      	str	r7, [r4, #4]
   86584:	4630      	mov	r0, r6
   86586:	614d      	str	r5, [r1, #20]
   86588:	610d      	str	r5, [r1, #16]
   8658a:	f8c5 e00c 	str.w	lr, [r5, #12]
   8658e:	f8c5 e008 	str.w	lr, [r5, #8]
   86592:	606b      	str	r3, [r5, #4]
   86594:	50aa      	str	r2, [r5, r2]
   86596:	3408      	adds	r4, #8
   86598:	f000 f96a 	bl	86870 <__malloc_unlock>
   8659c:	e65e      	b.n	8625c <_malloc_r+0x58>
   8659e:	684b      	ldr	r3, [r1, #4]
   865a0:	e6b2      	b.n	86308 <_malloc_r+0x104>
   865a2:	f109 0901 	add.w	r9, r9, #1
   865a6:	f019 0f03 	tst.w	r9, #3
   865aa:	f10c 0c08 	add.w	ip, ip, #8
   865ae:	f47f aebd 	bne.w	8632c <_malloc_r+0x128>
   865b2:	e02c      	b.n	8660e <_malloc_r+0x40a>
   865b4:	f104 0308 	add.w	r3, r4, #8
   865b8:	6964      	ldr	r4, [r4, #20]
   865ba:	42a3      	cmp	r3, r4
   865bc:	bf08      	it	eq
   865be:	3002      	addeq	r0, #2
   865c0:	f43f ae75 	beq.w	862ae <_malloc_r+0xaa>
   865c4:	e63a      	b.n	8623c <_malloc_r+0x38>
   865c6:	461c      	mov	r4, r3
   865c8:	441a      	add	r2, r3
   865ca:	6851      	ldr	r1, [r2, #4]
   865cc:	68db      	ldr	r3, [r3, #12]
   865ce:	f854 5f08 	ldr.w	r5, [r4, #8]!
   865d2:	f041 0101 	orr.w	r1, r1, #1
   865d6:	6051      	str	r1, [r2, #4]
   865d8:	4630      	mov	r0, r6
   865da:	60eb      	str	r3, [r5, #12]
   865dc:	609d      	str	r5, [r3, #8]
   865de:	f000 f947 	bl	86870 <__malloc_unlock>
   865e2:	e63b      	b.n	8625c <_malloc_r+0x58>
   865e4:	305b      	adds	r0, #91	; 0x5b
   865e6:	0041      	lsls	r1, r0, #1
   865e8:	e64c      	b.n	86284 <_malloc_r+0x80>
   865ea:	099a      	lsrs	r2, r3, #6
   865ec:	3238      	adds	r2, #56	; 0x38
   865ee:	ea4f 0c42 	mov.w	ip, r2, lsl #1
   865f2:	e7aa      	b.n	8654a <_malloc_r+0x346>
   865f4:	42bc      	cmp	r4, r7
   865f6:	4b45      	ldr	r3, [pc, #276]	; (8670c <_malloc_r+0x508>)
   865f8:	f43f af0d 	beq.w	86416 <_malloc_r+0x212>
   865fc:	689c      	ldr	r4, [r3, #8]
   865fe:	6862      	ldr	r2, [r4, #4]
   86600:	f022 0203 	bic.w	r2, r2, #3
   86604:	e767      	b.n	864d6 <_malloc_r+0x2d2>
   86606:	f8d8 8000 	ldr.w	r8, [r8]
   8660a:	4598      	cmp	r8, r3
   8660c:	d17c      	bne.n	86708 <_malloc_r+0x504>
   8660e:	f010 0f03 	tst.w	r0, #3
   86612:	f1a8 0308 	sub.w	r3, r8, #8
   86616:	f100 30ff 	add.w	r0, r0, #4294967295
   8661a:	d1f4      	bne.n	86606 <_malloc_r+0x402>
   8661c:	687b      	ldr	r3, [r7, #4]
   8661e:	ea23 0304 	bic.w	r3, r3, r4
   86622:	607b      	str	r3, [r7, #4]
   86624:	0064      	lsls	r4, r4, #1
   86626:	429c      	cmp	r4, r3
   86628:	f63f aec9 	bhi.w	863be <_malloc_r+0x1ba>
   8662c:	2c00      	cmp	r4, #0
   8662e:	f43f aec6 	beq.w	863be <_malloc_r+0x1ba>
   86632:	4223      	tst	r3, r4
   86634:	4648      	mov	r0, r9
   86636:	f47f ae75 	bne.w	86324 <_malloc_r+0x120>
   8663a:	0064      	lsls	r4, r4, #1
   8663c:	4223      	tst	r3, r4
   8663e:	f100 0004 	add.w	r0, r0, #4
   86642:	d0fa      	beq.n	8663a <_malloc_r+0x436>
   86644:	e66e      	b.n	86324 <_malloc_r+0x120>
   86646:	f5b0 7faa 	cmp.w	r0, #340	; 0x154
   8664a:	d818      	bhi.n	8667e <_malloc_r+0x47a>
   8664c:	0be8      	lsrs	r0, r5, #15
   8664e:	3077      	adds	r0, #119	; 0x77
   86650:	0041      	lsls	r1, r0, #1
   86652:	e617      	b.n	86284 <_malloc_r+0x80>
   86654:	f44f 5180 	mov.w	r1, #4096	; 0x1000
   86658:	e6fa      	b.n	86450 <_malloc_r+0x24c>
   8665a:	f8d8 3004 	ldr.w	r3, [r8, #4]
   8665e:	1092      	asrs	r2, r2, #2
   86660:	f04f 0c01 	mov.w	ip, #1
   86664:	fa0c f202 	lsl.w	r2, ip, r2
   86668:	4313      	orrs	r3, r2
   8666a:	f8c8 3004 	str.w	r3, [r8, #4]
   8666e:	460a      	mov	r2, r1
   86670:	e77d      	b.n	8656e <_malloc_r+0x36a>
   86672:	2301      	movs	r3, #1
   86674:	f8c9 3004 	str.w	r3, [r9, #4]
   86678:	464c      	mov	r4, r9
   8667a:	2200      	movs	r2, #0
   8667c:	e72b      	b.n	864d6 <_malloc_r+0x2d2>
   8667e:	f240 5354 	movw	r3, #1364	; 0x554
   86682:	4298      	cmp	r0, r3
   86684:	d81c      	bhi.n	866c0 <_malloc_r+0x4bc>
   86686:	0ca8      	lsrs	r0, r5, #18
   86688:	307c      	adds	r0, #124	; 0x7c
   8668a:	0041      	lsls	r1, r0, #1
   8668c:	e5fa      	b.n	86284 <_malloc_r+0x80>
   8668e:	3210      	adds	r2, #16
   86690:	e6b3      	b.n	863fa <_malloc_r+0x1f6>
   86692:	2a54      	cmp	r2, #84	; 0x54
   86694:	d823      	bhi.n	866de <_malloc_r+0x4da>
   86696:	0b1a      	lsrs	r2, r3, #12
   86698:	326e      	adds	r2, #110	; 0x6e
   8669a:	ea4f 0c42 	mov.w	ip, r2, lsl #1
   8669e:	e754      	b.n	8654a <_malloc_r+0x346>
   866a0:	68bc      	ldr	r4, [r7, #8]
   866a2:	6862      	ldr	r2, [r4, #4]
   866a4:	f022 0203 	bic.w	r2, r2, #3
   866a8:	e715      	b.n	864d6 <_malloc_r+0x2d2>
   866aa:	f3cb 000b 	ubfx	r0, fp, #0, #12
   866ae:	2800      	cmp	r0, #0
   866b0:	f47f aeb8 	bne.w	86424 <_malloc_r+0x220>
   866b4:	4442      	add	r2, r8
   866b6:	68bb      	ldr	r3, [r7, #8]
   866b8:	f042 0201 	orr.w	r2, r2, #1
   866bc:	605a      	str	r2, [r3, #4]
   866be:	e6fc      	b.n	864ba <_malloc_r+0x2b6>
   866c0:	21fc      	movs	r1, #252	; 0xfc
   866c2:	207e      	movs	r0, #126	; 0x7e
   866c4:	e5de      	b.n	86284 <_malloc_r+0x80>
   866c6:	2201      	movs	r2, #1
   866c8:	f04f 0a00 	mov.w	sl, #0
   866cc:	e6d3      	b.n	86476 <_malloc_r+0x272>
   866ce:	f104 0108 	add.w	r1, r4, #8
   866d2:	4630      	mov	r0, r6
   866d4:	f7fe fec0 	bl	85458 <_free_r>
   866d8:	f8da 1000 	ldr.w	r1, [sl]
   866dc:	e6ed      	b.n	864ba <_malloc_r+0x2b6>
   866de:	f5b2 7faa 	cmp.w	r2, #340	; 0x154
   866e2:	d804      	bhi.n	866ee <_malloc_r+0x4ea>
   866e4:	0bda      	lsrs	r2, r3, #15
   866e6:	3277      	adds	r2, #119	; 0x77
   866e8:	ea4f 0c42 	mov.w	ip, r2, lsl #1
   866ec:	e72d      	b.n	8654a <_malloc_r+0x346>
   866ee:	f240 5154 	movw	r1, #1364	; 0x554
   866f2:	428a      	cmp	r2, r1
   866f4:	d804      	bhi.n	86700 <_malloc_r+0x4fc>
   866f6:	0c9a      	lsrs	r2, r3, #18
   866f8:	327c      	adds	r2, #124	; 0x7c
   866fa:	ea4f 0c42 	mov.w	ip, r2, lsl #1
   866fe:	e724      	b.n	8654a <_malloc_r+0x346>
   86700:	f04f 0cfc 	mov.w	ip, #252	; 0xfc
   86704:	227e      	movs	r2, #126	; 0x7e
   86706:	e720      	b.n	8654a <_malloc_r+0x346>
   86708:	687b      	ldr	r3, [r7, #4]
   8670a:	e78b      	b.n	86624 <_malloc_r+0x420>
   8670c:	20070594 	.word	0x20070594

00086710 <memchr>:
   86710:	0783      	lsls	r3, r0, #30
   86712:	b470      	push	{r4, r5, r6}
   86714:	b2c9      	uxtb	r1, r1
   86716:	d040      	beq.n	8679a <memchr+0x8a>
   86718:	1e54      	subs	r4, r2, #1
   8671a:	2a00      	cmp	r2, #0
   8671c:	d03f      	beq.n	8679e <memchr+0x8e>
   8671e:	7803      	ldrb	r3, [r0, #0]
   86720:	428b      	cmp	r3, r1
   86722:	bf18      	it	ne
   86724:	1c43      	addne	r3, r0, #1
   86726:	d105      	bne.n	86734 <memchr+0x24>
   86728:	e01c      	b.n	86764 <memchr+0x54>
   8672a:	b1ec      	cbz	r4, 86768 <memchr+0x58>
   8672c:	7802      	ldrb	r2, [r0, #0]
   8672e:	3c01      	subs	r4, #1
   86730:	428a      	cmp	r2, r1
   86732:	d017      	beq.n	86764 <memchr+0x54>
   86734:	f013 0f03 	tst.w	r3, #3
   86738:	4618      	mov	r0, r3
   8673a:	f103 0301 	add.w	r3, r3, #1
   8673e:	d1f4      	bne.n	8672a <memchr+0x1a>
   86740:	2c03      	cmp	r4, #3
   86742:	d814      	bhi.n	8676e <memchr+0x5e>
   86744:	b184      	cbz	r4, 86768 <memchr+0x58>
   86746:	7803      	ldrb	r3, [r0, #0]
   86748:	428b      	cmp	r3, r1
   8674a:	d00b      	beq.n	86764 <memchr+0x54>
   8674c:	1905      	adds	r5, r0, r4
   8674e:	1c43      	adds	r3, r0, #1
   86750:	e002      	b.n	86758 <memchr+0x48>
   86752:	7802      	ldrb	r2, [r0, #0]
   86754:	428a      	cmp	r2, r1
   86756:	d005      	beq.n	86764 <memchr+0x54>
   86758:	42ab      	cmp	r3, r5
   8675a:	4618      	mov	r0, r3
   8675c:	f103 0301 	add.w	r3, r3, #1
   86760:	d1f7      	bne.n	86752 <memchr+0x42>
   86762:	2000      	movs	r0, #0
   86764:	bc70      	pop	{r4, r5, r6}
   86766:	4770      	bx	lr
   86768:	4620      	mov	r0, r4
   8676a:	bc70      	pop	{r4, r5, r6}
   8676c:	4770      	bx	lr
   8676e:	4602      	mov	r2, r0
   86770:	ea41 2601 	orr.w	r6, r1, r1, lsl #8
   86774:	ea46 4606 	orr.w	r6, r6, r6, lsl #16
   86778:	6813      	ldr	r3, [r2, #0]
   8677a:	4610      	mov	r0, r2
   8677c:	4073      	eors	r3, r6
   8677e:	f1a3 3501 	sub.w	r5, r3, #16843009	; 0x1010101
   86782:	ea25 0303 	bic.w	r3, r5, r3
   86786:	f013 3f80 	tst.w	r3, #2155905152	; 0x80808080
   8678a:	f102 0204 	add.w	r2, r2, #4
   8678e:	d1d9      	bne.n	86744 <memchr+0x34>
   86790:	3c04      	subs	r4, #4
   86792:	2c03      	cmp	r4, #3
   86794:	4610      	mov	r0, r2
   86796:	d8ef      	bhi.n	86778 <memchr+0x68>
   86798:	e7d4      	b.n	86744 <memchr+0x34>
   8679a:	4614      	mov	r4, r2
   8679c:	e7d0      	b.n	86740 <memchr+0x30>
   8679e:	4610      	mov	r0, r2
   867a0:	e7e0      	b.n	86764 <memchr+0x54>
   867a2:	bf00      	nop

000867a4 <memmove>:
   867a4:	4288      	cmp	r0, r1
   867a6:	b5f0      	push	{r4, r5, r6, r7, lr}
   867a8:	d90d      	bls.n	867c6 <memmove+0x22>
   867aa:	188b      	adds	r3, r1, r2
   867ac:	4298      	cmp	r0, r3
   867ae:	d20a      	bcs.n	867c6 <memmove+0x22>
   867b0:	1881      	adds	r1, r0, r2
   867b2:	2a00      	cmp	r2, #0
   867b4:	d054      	beq.n	86860 <memmove+0xbc>
   867b6:	1a9a      	subs	r2, r3, r2
   867b8:	f813 4d01 	ldrb.w	r4, [r3, #-1]!
   867bc:	4293      	cmp	r3, r2
   867be:	f801 4d01 	strb.w	r4, [r1, #-1]!
   867c2:	d1f9      	bne.n	867b8 <memmove+0x14>
   867c4:	bdf0      	pop	{r4, r5, r6, r7, pc}
   867c6:	2a0f      	cmp	r2, #15
   867c8:	d948      	bls.n	8685c <memmove+0xb8>
   867ca:	ea40 0301 	orr.w	r3, r0, r1
   867ce:	079b      	lsls	r3, r3, #30
   867d0:	d147      	bne.n	86862 <memmove+0xbe>
   867d2:	4615      	mov	r5, r2
   867d4:	f100 0410 	add.w	r4, r0, #16
   867d8:	f101 0310 	add.w	r3, r1, #16
   867dc:	f853 6c10 	ldr.w	r6, [r3, #-16]
   867e0:	3d10      	subs	r5, #16
   867e2:	f844 6c10 	str.w	r6, [r4, #-16]
   867e6:	f853 6c0c 	ldr.w	r6, [r3, #-12]
   867ea:	2d0f      	cmp	r5, #15
   867ec:	f844 6c0c 	str.w	r6, [r4, #-12]
   867f0:	f853 6c08 	ldr.w	r6, [r3, #-8]
   867f4:	f104 0410 	add.w	r4, r4, #16
   867f8:	f844 6c18 	str.w	r6, [r4, #-24]
   867fc:	f853 6c04 	ldr.w	r6, [r3, #-4]
   86800:	f103 0310 	add.w	r3, r3, #16
   86804:	f844 6c14 	str.w	r6, [r4, #-20]
   86808:	d8e8      	bhi.n	867dc <memmove+0x38>
   8680a:	f1a2 0310 	sub.w	r3, r2, #16
   8680e:	f023 030f 	bic.w	r3, r3, #15
   86812:	f002 0e0f 	and.w	lr, r2, #15
   86816:	3310      	adds	r3, #16
   86818:	f1be 0f03 	cmp.w	lr, #3
   8681c:	4419      	add	r1, r3
   8681e:	4403      	add	r3, r0
   86820:	d921      	bls.n	86866 <memmove+0xc2>
   86822:	460e      	mov	r6, r1
   86824:	4674      	mov	r4, lr
   86826:	1f1d      	subs	r5, r3, #4
   86828:	f856 7b04 	ldr.w	r7, [r6], #4
   8682c:	3c04      	subs	r4, #4
   8682e:	2c03      	cmp	r4, #3
   86830:	f845 7f04 	str.w	r7, [r5, #4]!
   86834:	d8f8      	bhi.n	86828 <memmove+0x84>
   86836:	f1ae 0404 	sub.w	r4, lr, #4
   8683a:	f024 0403 	bic.w	r4, r4, #3
   8683e:	3404      	adds	r4, #4
   86840:	4423      	add	r3, r4
   86842:	4421      	add	r1, r4
   86844:	f002 0203 	and.w	r2, r2, #3
   86848:	b152      	cbz	r2, 86860 <memmove+0xbc>
   8684a:	3b01      	subs	r3, #1
   8684c:	440a      	add	r2, r1
   8684e:	f811 4b01 	ldrb.w	r4, [r1], #1
   86852:	4291      	cmp	r1, r2
   86854:	f803 4f01 	strb.w	r4, [r3, #1]!
   86858:	d1f9      	bne.n	8684e <memmove+0xaa>
   8685a:	bdf0      	pop	{r4, r5, r6, r7, pc}
   8685c:	4603      	mov	r3, r0
   8685e:	e7f3      	b.n	86848 <memmove+0xa4>
   86860:	bdf0      	pop	{r4, r5, r6, r7, pc}
   86862:	4603      	mov	r3, r0
   86864:	e7f1      	b.n	8684a <memmove+0xa6>
   86866:	4672      	mov	r2, lr
   86868:	e7ee      	b.n	86848 <memmove+0xa4>
   8686a:	bf00      	nop

0008686c <__malloc_lock>:
   8686c:	4770      	bx	lr
   8686e:	bf00      	nop

00086870 <__malloc_unlock>:
   86870:	4770      	bx	lr
   86872:	bf00      	nop

00086874 <_Balloc>:
   86874:	6cc2      	ldr	r2, [r0, #76]	; 0x4c
   86876:	b570      	push	{r4, r5, r6, lr}
   86878:	4605      	mov	r5, r0
   8687a:	460c      	mov	r4, r1
   8687c:	b152      	cbz	r2, 86894 <_Balloc+0x20>
   8687e:	f852 3024 	ldr.w	r3, [r2, r4, lsl #2]
   86882:	b18b      	cbz	r3, 868a8 <_Balloc+0x34>
   86884:	6819      	ldr	r1, [r3, #0]
   86886:	f842 1024 	str.w	r1, [r2, r4, lsl #2]
   8688a:	2200      	movs	r2, #0
   8688c:	4618      	mov	r0, r3
   8688e:	611a      	str	r2, [r3, #16]
   86890:	60da      	str	r2, [r3, #12]
   86892:	bd70      	pop	{r4, r5, r6, pc}
   86894:	2221      	movs	r2, #33	; 0x21
   86896:	2104      	movs	r1, #4
   86898:	f001 f806 	bl	878a8 <_calloc_r>
   8689c:	64e8      	str	r0, [r5, #76]	; 0x4c
   8689e:	4602      	mov	r2, r0
   868a0:	2800      	cmp	r0, #0
   868a2:	d1ec      	bne.n	8687e <_Balloc+0xa>
   868a4:	2000      	movs	r0, #0
   868a6:	bd70      	pop	{r4, r5, r6, pc}
   868a8:	2101      	movs	r1, #1
   868aa:	fa01 f604 	lsl.w	r6, r1, r4
   868ae:	1d72      	adds	r2, r6, #5
   868b0:	4628      	mov	r0, r5
   868b2:	0092      	lsls	r2, r2, #2
   868b4:	f000 fff8 	bl	878a8 <_calloc_r>
   868b8:	4603      	mov	r3, r0
   868ba:	2800      	cmp	r0, #0
   868bc:	d0f2      	beq.n	868a4 <_Balloc+0x30>
   868be:	6044      	str	r4, [r0, #4]
   868c0:	6086      	str	r6, [r0, #8]
   868c2:	e7e2      	b.n	8688a <_Balloc+0x16>

000868c4 <_Bfree>:
   868c4:	b131      	cbz	r1, 868d4 <_Bfree+0x10>
   868c6:	6cc3      	ldr	r3, [r0, #76]	; 0x4c
   868c8:	684a      	ldr	r2, [r1, #4]
   868ca:	f853 0022 	ldr.w	r0, [r3, r2, lsl #2]
   868ce:	6008      	str	r0, [r1, #0]
   868d0:	f843 1022 	str.w	r1, [r3, r2, lsl #2]
   868d4:	4770      	bx	lr
   868d6:	bf00      	nop

000868d8 <__multadd>:
   868d8:	b5f0      	push	{r4, r5, r6, r7, lr}
   868da:	460c      	mov	r4, r1
   868dc:	4605      	mov	r5, r0
   868de:	690e      	ldr	r6, [r1, #16]
   868e0:	b083      	sub	sp, #12
   868e2:	f101 0e14 	add.w	lr, r1, #20
   868e6:	2700      	movs	r7, #0
   868e8:	f8de 1000 	ldr.w	r1, [lr]
   868ec:	3701      	adds	r7, #1
   868ee:	b288      	uxth	r0, r1
   868f0:	0c09      	lsrs	r1, r1, #16
   868f2:	fb02 3300 	mla	r3, r2, r0, r3
   868f6:	fb02 f101 	mul.w	r1, r2, r1
   868fa:	b298      	uxth	r0, r3
   868fc:	eb01 4313 	add.w	r3, r1, r3, lsr #16
   86900:	eb00 4103 	add.w	r1, r0, r3, lsl #16
   86904:	42be      	cmp	r6, r7
   86906:	f84e 1b04 	str.w	r1, [lr], #4
   8690a:	ea4f 4313 	mov.w	r3, r3, lsr #16
   8690e:	dceb      	bgt.n	868e8 <__multadd+0x10>
   86910:	b13b      	cbz	r3, 86922 <__multadd+0x4a>
   86912:	68a2      	ldr	r2, [r4, #8]
   86914:	4296      	cmp	r6, r2
   86916:	da07      	bge.n	86928 <__multadd+0x50>
   86918:	eb04 0286 	add.w	r2, r4, r6, lsl #2
   8691c:	3601      	adds	r6, #1
   8691e:	6153      	str	r3, [r2, #20]
   86920:	6126      	str	r6, [r4, #16]
   86922:	4620      	mov	r0, r4
   86924:	b003      	add	sp, #12
   86926:	bdf0      	pop	{r4, r5, r6, r7, pc}
   86928:	6861      	ldr	r1, [r4, #4]
   8692a:	4628      	mov	r0, r5
   8692c:	3101      	adds	r1, #1
   8692e:	9301      	str	r3, [sp, #4]
   86930:	f7ff ffa0 	bl	86874 <_Balloc>
   86934:	4607      	mov	r7, r0
   86936:	6922      	ldr	r2, [r4, #16]
   86938:	f104 010c 	add.w	r1, r4, #12
   8693c:	3202      	adds	r2, #2
   8693e:	0092      	lsls	r2, r2, #2
   86940:	300c      	adds	r0, #12
   86942:	f7fc f9c9 	bl	82cd8 <memcpy>
   86946:	6cea      	ldr	r2, [r5, #76]	; 0x4c
   86948:	6861      	ldr	r1, [r4, #4]
   8694a:	9b01      	ldr	r3, [sp, #4]
   8694c:	f852 0021 	ldr.w	r0, [r2, r1, lsl #2]
   86950:	6020      	str	r0, [r4, #0]
   86952:	f842 4021 	str.w	r4, [r2, r1, lsl #2]
   86956:	463c      	mov	r4, r7
   86958:	e7de      	b.n	86918 <__multadd+0x40>
   8695a:	bf00      	nop

0008695c <__s2b>:
   8695c:	e92d 43f8 	stmdb	sp!, {r3, r4, r5, r6, r7, r8, r9, lr}
   86960:	4c23      	ldr	r4, [pc, #140]	; (869f0 <__s2b+0x94>)
   86962:	461f      	mov	r7, r3
   86964:	3308      	adds	r3, #8
   86966:	fb84 4e03 	smull	r4, lr, r4, r3
   8696a:	17db      	asrs	r3, r3, #31
   8696c:	ebc3 0e6e 	rsb	lr, r3, lr, asr #1
   86970:	f1be 0f01 	cmp.w	lr, #1
   86974:	4606      	mov	r6, r0
   86976:	460c      	mov	r4, r1
   86978:	4690      	mov	r8, r2
   8697a:	9d08      	ldr	r5, [sp, #32]
   8697c:	dd35      	ble.n	869ea <__s2b+0x8e>
   8697e:	2301      	movs	r3, #1
   86980:	2100      	movs	r1, #0
   86982:	005b      	lsls	r3, r3, #1
   86984:	459e      	cmp	lr, r3
   86986:	f101 0101 	add.w	r1, r1, #1
   8698a:	dcfa      	bgt.n	86982 <__s2b+0x26>
   8698c:	4630      	mov	r0, r6
   8698e:	f7ff ff71 	bl	86874 <_Balloc>
   86992:	2301      	movs	r3, #1
   86994:	f1b8 0f09 	cmp.w	r8, #9
   86998:	6145      	str	r5, [r0, #20]
   8699a:	6103      	str	r3, [r0, #16]
   8699c:	dd21      	ble.n	869e2 <__s2b+0x86>
   8699e:	f104 0909 	add.w	r9, r4, #9
   869a2:	464d      	mov	r5, r9
   869a4:	4444      	add	r4, r8
   869a6:	f815 3b01 	ldrb.w	r3, [r5], #1
   869aa:	4601      	mov	r1, r0
   869ac:	3b30      	subs	r3, #48	; 0x30
   869ae:	4630      	mov	r0, r6
   869b0:	220a      	movs	r2, #10
   869b2:	f7ff ff91 	bl	868d8 <__multadd>
   869b6:	42a5      	cmp	r5, r4
   869b8:	d1f5      	bne.n	869a6 <__s2b+0x4a>
   869ba:	eb09 0408 	add.w	r4, r9, r8
   869be:	3c08      	subs	r4, #8
   869c0:	4547      	cmp	r7, r8
   869c2:	dd0c      	ble.n	869de <__s2b+0x82>
   869c4:	ebc8 0707 	rsb	r7, r8, r7
   869c8:	4427      	add	r7, r4
   869ca:	f814 3b01 	ldrb.w	r3, [r4], #1
   869ce:	4601      	mov	r1, r0
   869d0:	3b30      	subs	r3, #48	; 0x30
   869d2:	4630      	mov	r0, r6
   869d4:	220a      	movs	r2, #10
   869d6:	f7ff ff7f 	bl	868d8 <__multadd>
   869da:	42bc      	cmp	r4, r7
   869dc:	d1f5      	bne.n	869ca <__s2b+0x6e>
   869de:	e8bd 83f8 	ldmia.w	sp!, {r3, r4, r5, r6, r7, r8, r9, pc}
   869e2:	340a      	adds	r4, #10
   869e4:	f04f 0809 	mov.w	r8, #9
   869e8:	e7ea      	b.n	869c0 <__s2b+0x64>
   869ea:	2100      	movs	r1, #0
   869ec:	e7ce      	b.n	8698c <__s2b+0x30>
   869ee:	bf00      	nop
   869f0:	38e38e39 	.word	0x38e38e39

000869f4 <__hi0bits>:
   869f4:	0c03      	lsrs	r3, r0, #16
   869f6:	041b      	lsls	r3, r3, #16
   869f8:	b9b3      	cbnz	r3, 86a28 <__hi0bits+0x34>
   869fa:	0400      	lsls	r0, r0, #16
   869fc:	2310      	movs	r3, #16
   869fe:	f010 4f7f 	tst.w	r0, #4278190080	; 0xff000000
   86a02:	bf04      	itt	eq
   86a04:	0200      	lsleq	r0, r0, #8
   86a06:	3308      	addeq	r3, #8
   86a08:	f010 4f70 	tst.w	r0, #4026531840	; 0xf0000000
   86a0c:	bf04      	itt	eq
   86a0e:	0100      	lsleq	r0, r0, #4
   86a10:	3304      	addeq	r3, #4
   86a12:	f010 4f40 	tst.w	r0, #3221225472	; 0xc0000000
   86a16:	bf04      	itt	eq
   86a18:	0080      	lsleq	r0, r0, #2
   86a1a:	3302      	addeq	r3, #2
   86a1c:	2800      	cmp	r0, #0
   86a1e:	db07      	blt.n	86a30 <__hi0bits+0x3c>
   86a20:	0042      	lsls	r2, r0, #1
   86a22:	d403      	bmi.n	86a2c <__hi0bits+0x38>
   86a24:	2020      	movs	r0, #32
   86a26:	4770      	bx	lr
   86a28:	2300      	movs	r3, #0
   86a2a:	e7e8      	b.n	869fe <__hi0bits+0xa>
   86a2c:	1c58      	adds	r0, r3, #1
   86a2e:	4770      	bx	lr
   86a30:	4618      	mov	r0, r3
   86a32:	4770      	bx	lr

00086a34 <__lo0bits>:
   86a34:	6803      	ldr	r3, [r0, #0]
   86a36:	f013 0207 	ands.w	r2, r3, #7
   86a3a:	d007      	beq.n	86a4c <__lo0bits+0x18>
   86a3c:	07d9      	lsls	r1, r3, #31
   86a3e:	d420      	bmi.n	86a82 <__lo0bits+0x4e>
   86a40:	079a      	lsls	r2, r3, #30
   86a42:	d420      	bmi.n	86a86 <__lo0bits+0x52>
   86a44:	089b      	lsrs	r3, r3, #2
   86a46:	6003      	str	r3, [r0, #0]
   86a48:	2002      	movs	r0, #2
   86a4a:	4770      	bx	lr
   86a4c:	b299      	uxth	r1, r3
   86a4e:	b909      	cbnz	r1, 86a54 <__lo0bits+0x20>
   86a50:	0c1b      	lsrs	r3, r3, #16
   86a52:	2210      	movs	r2, #16
   86a54:	f013 0fff 	tst.w	r3, #255	; 0xff
   86a58:	bf04      	itt	eq
   86a5a:	0a1b      	lsreq	r3, r3, #8
   86a5c:	3208      	addeq	r2, #8
   86a5e:	0719      	lsls	r1, r3, #28
   86a60:	bf04      	itt	eq
   86a62:	091b      	lsreq	r3, r3, #4
   86a64:	3204      	addeq	r2, #4
   86a66:	0799      	lsls	r1, r3, #30
   86a68:	bf04      	itt	eq
   86a6a:	089b      	lsreq	r3, r3, #2
   86a6c:	3202      	addeq	r2, #2
   86a6e:	07d9      	lsls	r1, r3, #31
   86a70:	d404      	bmi.n	86a7c <__lo0bits+0x48>
   86a72:	085b      	lsrs	r3, r3, #1
   86a74:	d101      	bne.n	86a7a <__lo0bits+0x46>
   86a76:	2020      	movs	r0, #32
   86a78:	4770      	bx	lr
   86a7a:	3201      	adds	r2, #1
   86a7c:	6003      	str	r3, [r0, #0]
   86a7e:	4610      	mov	r0, r2
   86a80:	4770      	bx	lr
   86a82:	2000      	movs	r0, #0
   86a84:	4770      	bx	lr
   86a86:	085b      	lsrs	r3, r3, #1
   86a88:	6003      	str	r3, [r0, #0]
   86a8a:	2001      	movs	r0, #1
   86a8c:	4770      	bx	lr
   86a8e:	bf00      	nop

00086a90 <__i2b>:
   86a90:	b510      	push	{r4, lr}
   86a92:	460c      	mov	r4, r1
   86a94:	2101      	movs	r1, #1
   86a96:	f7ff feed 	bl	86874 <_Balloc>
   86a9a:	2201      	movs	r2, #1
   86a9c:	6144      	str	r4, [r0, #20]
   86a9e:	6102      	str	r2, [r0, #16]
   86aa0:	bd10      	pop	{r4, pc}
   86aa2:	bf00      	nop

00086aa4 <__multiply>:
   86aa4:	e92d 4ff0 	stmdb	sp!, {r4, r5, r6, r7, r8, r9, sl, fp, lr}
   86aa8:	690e      	ldr	r6, [r1, #16]
   86aaa:	6915      	ldr	r5, [r2, #16]
   86aac:	b085      	sub	sp, #20
   86aae:	42ae      	cmp	r6, r5
   86ab0:	460c      	mov	r4, r1
   86ab2:	4691      	mov	r9, r2
   86ab4:	f2c0 8092 	blt.w	86bdc <__multiply+0x138>
   86ab8:	462b      	mov	r3, r5
   86aba:	4635      	mov	r5, r6
   86abc:	461e      	mov	r6, r3
   86abe:	68a3      	ldr	r3, [r4, #8]
   86ac0:	eb05 0806 	add.w	r8, r5, r6
   86ac4:	6861      	ldr	r1, [r4, #4]
   86ac6:	4598      	cmp	r8, r3
   86ac8:	bfc8      	it	gt
   86aca:	3101      	addgt	r1, #1
   86acc:	f7ff fed2 	bl	86874 <_Balloc>
   86ad0:	f100 0a14 	add.w	sl, r0, #20
   86ad4:	eb0a 0b88 	add.w	fp, sl, r8, lsl #2
   86ad8:	45da      	cmp	sl, fp
   86ada:	9001      	str	r0, [sp, #4]
   86adc:	d205      	bcs.n	86aea <__multiply+0x46>
   86ade:	4653      	mov	r3, sl
   86ae0:	2100      	movs	r1, #0
   86ae2:	f843 1b04 	str.w	r1, [r3], #4
   86ae6:	459b      	cmp	fp, r3
   86ae8:	d8fb      	bhi.n	86ae2 <__multiply+0x3e>
   86aea:	f109 0914 	add.w	r9, r9, #20
   86aee:	eb09 0386 	add.w	r3, r9, r6, lsl #2
   86af2:	f104 0214 	add.w	r2, r4, #20
   86af6:	4599      	cmp	r9, r3
   86af8:	eb02 0c85 	add.w	ip, r2, r5, lsl #2
   86afc:	d259      	bcs.n	86bb2 <__multiply+0x10e>
   86afe:	f8cd b008 	str.w	fp, [sp, #8]
   86b02:	f8cd 800c 	str.w	r8, [sp, #12]
   86b06:	469b      	mov	fp, r3
   86b08:	4690      	mov	r8, r2
   86b0a:	f859 7b04 	ldr.w	r7, [r9], #4
   86b0e:	fa1f fe87 	uxth.w	lr, r7
   86b12:	f1be 0f00 	cmp.w	lr, #0
   86b16:	d01f      	beq.n	86b58 <__multiply+0xb4>
   86b18:	4647      	mov	r7, r8
   86b1a:	4656      	mov	r6, sl
   86b1c:	2100      	movs	r1, #0
   86b1e:	e000      	b.n	86b22 <__multiply+0x7e>
   86b20:	4606      	mov	r6, r0
   86b22:	4630      	mov	r0, r6
   86b24:	f857 5b04 	ldr.w	r5, [r7], #4
   86b28:	6834      	ldr	r4, [r6, #0]
   86b2a:	b2ab      	uxth	r3, r5
   86b2c:	b2a2      	uxth	r2, r4
   86b2e:	fb0e 2203 	mla	r2, lr, r3, r2
   86b32:	0c2d      	lsrs	r5, r5, #16
   86b34:	0c24      	lsrs	r4, r4, #16
   86b36:	fb0e 4405 	mla	r4, lr, r5, r4
   86b3a:	1853      	adds	r3, r2, r1
   86b3c:	eb04 4113 	add.w	r1, r4, r3, lsr #16
   86b40:	b29a      	uxth	r2, r3
   86b42:	ea42 4201 	orr.w	r2, r2, r1, lsl #16
   86b46:	45bc      	cmp	ip, r7
   86b48:	ea4f 4111 	mov.w	r1, r1, lsr #16
   86b4c:	f840 2b04 	str.w	r2, [r0], #4
   86b50:	d8e6      	bhi.n	86b20 <__multiply+0x7c>
   86b52:	6071      	str	r1, [r6, #4]
   86b54:	f859 7c04 	ldr.w	r7, [r9, #-4]
   86b58:	0c3f      	lsrs	r7, r7, #16
   86b5a:	d022      	beq.n	86ba2 <__multiply+0xfe>
   86b5c:	f8da 3000 	ldr.w	r3, [sl]
   86b60:	2200      	movs	r2, #0
   86b62:	4655      	mov	r5, sl
   86b64:	461e      	mov	r6, r3
   86b66:	4640      	mov	r0, r8
   86b68:	4696      	mov	lr, r2
   86b6a:	e000      	b.n	86b6e <__multiply+0xca>
   86b6c:	4625      	mov	r5, r4
   86b6e:	462c      	mov	r4, r5
   86b70:	8802      	ldrh	r2, [r0, #0]
   86b72:	0c36      	lsrs	r6, r6, #16
   86b74:	fb07 6602 	mla	r6, r7, r2, r6
   86b78:	b299      	uxth	r1, r3
   86b7a:	eb06 020e 	add.w	r2, r6, lr
   86b7e:	ea41 4302 	orr.w	r3, r1, r2, lsl #16
   86b82:	f844 3b04 	str.w	r3, [r4], #4
   86b86:	f850 1b04 	ldr.w	r1, [r0], #4
   86b8a:	686e      	ldr	r6, [r5, #4]
   86b8c:	0c09      	lsrs	r1, r1, #16
   86b8e:	b2b3      	uxth	r3, r6
   86b90:	fb07 3101 	mla	r1, r7, r1, r3
   86b94:	4584      	cmp	ip, r0
   86b96:	eb01 4312 	add.w	r3, r1, r2, lsr #16
   86b9a:	ea4f 4e13 	mov.w	lr, r3, lsr #16
   86b9e:	d8e5      	bhi.n	86b6c <__multiply+0xc8>
   86ba0:	606b      	str	r3, [r5, #4]
   86ba2:	45cb      	cmp	fp, r9
   86ba4:	f10a 0a04 	add.w	sl, sl, #4
   86ba8:	d8af      	bhi.n	86b0a <__multiply+0x66>
   86baa:	f8dd b008 	ldr.w	fp, [sp, #8]
   86bae:	f8dd 800c 	ldr.w	r8, [sp, #12]
   86bb2:	f1b8 0f00 	cmp.w	r8, #0
   86bb6:	dd0b      	ble.n	86bd0 <__multiply+0x12c>
   86bb8:	f85b 3c04 	ldr.w	r3, [fp, #-4]
   86bbc:	f1ab 0b04 	sub.w	fp, fp, #4
   86bc0:	b11b      	cbz	r3, 86bca <__multiply+0x126>
   86bc2:	e005      	b.n	86bd0 <__multiply+0x12c>
   86bc4:	f85b 3d04 	ldr.w	r3, [fp, #-4]!
   86bc8:	b913      	cbnz	r3, 86bd0 <__multiply+0x12c>
   86bca:	f1b8 0801 	subs.w	r8, r8, #1
   86bce:	d1f9      	bne.n	86bc4 <__multiply+0x120>
   86bd0:	9801      	ldr	r0, [sp, #4]
   86bd2:	f8c0 8010 	str.w	r8, [r0, #16]
   86bd6:	b005      	add	sp, #20
   86bd8:	e8bd 8ff0 	ldmia.w	sp!, {r4, r5, r6, r7, r8, r9, sl, fp, pc}
   86bdc:	4614      	mov	r4, r2
   86bde:	4689      	mov	r9, r1
   86be0:	e76d      	b.n	86abe <__multiply+0x1a>
   86be2:	bf00      	nop

00086be4 <__pow5mult>:
   86be4:	f012 0303 	ands.w	r3, r2, #3
   86be8:	e92d 41f0 	stmdb	sp!, {r4, r5, r6, r7, r8, lr}
   86bec:	4614      	mov	r4, r2
   86bee:	4607      	mov	r7, r0
   86bf0:	460e      	mov	r6, r1
   86bf2:	d12d      	bne.n	86c50 <__pow5mult+0x6c>
   86bf4:	10a4      	asrs	r4, r4, #2
   86bf6:	d01c      	beq.n	86c32 <__pow5mult+0x4e>
   86bf8:	6cbd      	ldr	r5, [r7, #72]	; 0x48
   86bfa:	b395      	cbz	r5, 86c62 <__pow5mult+0x7e>
   86bfc:	07e3      	lsls	r3, r4, #31
   86bfe:	f04f 0800 	mov.w	r8, #0
   86c02:	d406      	bmi.n	86c12 <__pow5mult+0x2e>
   86c04:	1064      	asrs	r4, r4, #1
   86c06:	d014      	beq.n	86c32 <__pow5mult+0x4e>
   86c08:	6828      	ldr	r0, [r5, #0]
   86c0a:	b1a8      	cbz	r0, 86c38 <__pow5mult+0x54>
   86c0c:	4605      	mov	r5, r0
   86c0e:	07e3      	lsls	r3, r4, #31
   86c10:	d5f8      	bpl.n	86c04 <__pow5mult+0x20>
   86c12:	4638      	mov	r0, r7
   86c14:	4631      	mov	r1, r6
   86c16:	462a      	mov	r2, r5
   86c18:	f7ff ff44 	bl	86aa4 <__multiply>
   86c1c:	b1b6      	cbz	r6, 86c4c <__pow5mult+0x68>
   86c1e:	6872      	ldr	r2, [r6, #4]
   86c20:	6cfb      	ldr	r3, [r7, #76]	; 0x4c
   86c22:	1064      	asrs	r4, r4, #1
   86c24:	f853 1022 	ldr.w	r1, [r3, r2, lsl #2]
   86c28:	6031      	str	r1, [r6, #0]
   86c2a:	f843 6022 	str.w	r6, [r3, r2, lsl #2]
   86c2e:	4606      	mov	r6, r0
   86c30:	d1ea      	bne.n	86c08 <__pow5mult+0x24>
   86c32:	4630      	mov	r0, r6
   86c34:	e8bd 81f0 	ldmia.w	sp!, {r4, r5, r6, r7, r8, pc}
   86c38:	4629      	mov	r1, r5
   86c3a:	462a      	mov	r2, r5
   86c3c:	4638      	mov	r0, r7
   86c3e:	f7ff ff31 	bl	86aa4 <__multiply>
   86c42:	6028      	str	r0, [r5, #0]
   86c44:	f8c0 8000 	str.w	r8, [r0]
   86c48:	4605      	mov	r5, r0
   86c4a:	e7e0      	b.n	86c0e <__pow5mult+0x2a>
   86c4c:	4606      	mov	r6, r0
   86c4e:	e7d9      	b.n	86c04 <__pow5mult+0x20>
   86c50:	4a0b      	ldr	r2, [pc, #44]	; (86c80 <__pow5mult+0x9c>)
   86c52:	3b01      	subs	r3, #1
   86c54:	f852 2023 	ldr.w	r2, [r2, r3, lsl #2]
   86c58:	2300      	movs	r3, #0
   86c5a:	f7ff fe3d 	bl	868d8 <__multadd>
   86c5e:	4606      	mov	r6, r0
   86c60:	e7c8      	b.n	86bf4 <__pow5mult+0x10>
   86c62:	2101      	movs	r1, #1
   86c64:	4638      	mov	r0, r7
   86c66:	f7ff fe05 	bl	86874 <_Balloc>
   86c6a:	f240 2171 	movw	r1, #625	; 0x271
   86c6e:	2201      	movs	r2, #1
   86c70:	2300      	movs	r3, #0
   86c72:	6141      	str	r1, [r0, #20]
   86c74:	6102      	str	r2, [r0, #16]
   86c76:	4605      	mov	r5, r0
   86c78:	64b8      	str	r0, [r7, #72]	; 0x48
   86c7a:	6003      	str	r3, [r0, #0]
   86c7c:	e7be      	b.n	86bfc <__pow5mult+0x18>
   86c7e:	bf00      	nop
   86c80:	00088d40 	.word	0x00088d40

00086c84 <__lshift>:
   86c84:	e92d 47f0 	stmdb	sp!, {r4, r5, r6, r7, r8, r9, sl, lr}
   86c88:	690f      	ldr	r7, [r1, #16]
   86c8a:	ea4f 1962 	mov.w	r9, r2, asr #5
   86c8e:	688b      	ldr	r3, [r1, #8]
   86c90:	444f      	add	r7, r9
   86c92:	1c7d      	adds	r5, r7, #1
   86c94:	429d      	cmp	r5, r3
   86c96:	460e      	mov	r6, r1
   86c98:	4614      	mov	r4, r2
   86c9a:	4680      	mov	r8, r0
   86c9c:	6849      	ldr	r1, [r1, #4]
   86c9e:	dd04      	ble.n	86caa <__lshift+0x26>
   86ca0:	005b      	lsls	r3, r3, #1
   86ca2:	429d      	cmp	r5, r3
   86ca4:	f101 0101 	add.w	r1, r1, #1
   86ca8:	dcfa      	bgt.n	86ca0 <__lshift+0x1c>
   86caa:	4640      	mov	r0, r8
   86cac:	f7ff fde2 	bl	86874 <_Balloc>
   86cb0:	f1b9 0f00 	cmp.w	r9, #0
   86cb4:	f100 0114 	add.w	r1, r0, #20
   86cb8:	dd09      	ble.n	86cce <__lshift+0x4a>
   86cba:	2300      	movs	r3, #0
   86cbc:	469e      	mov	lr, r3
   86cbe:	460a      	mov	r2, r1
   86cc0:	3301      	adds	r3, #1
   86cc2:	454b      	cmp	r3, r9
   86cc4:	f842 eb04 	str.w	lr, [r2], #4
   86cc8:	d1fa      	bne.n	86cc0 <__lshift+0x3c>
   86cca:	eb01 0183 	add.w	r1, r1, r3, lsl #2
   86cce:	6932      	ldr	r2, [r6, #16]
   86cd0:	f106 0314 	add.w	r3, r6, #20
   86cd4:	eb03 0e82 	add.w	lr, r3, r2, lsl #2
   86cd8:	f014 021f 	ands.w	r2, r4, #31
   86cdc:	d022      	beq.n	86d24 <__lshift+0xa0>
   86cde:	f1c2 0920 	rsb	r9, r2, #32
   86ce2:	f04f 0a00 	mov.w	sl, #0
   86ce6:	681c      	ldr	r4, [r3, #0]
   86ce8:	468c      	mov	ip, r1
   86cea:	4094      	lsls	r4, r2
   86cec:	ea4a 0404 	orr.w	r4, sl, r4
   86cf0:	f841 4b04 	str.w	r4, [r1], #4
   86cf4:	f853 4b04 	ldr.w	r4, [r3], #4
   86cf8:	459e      	cmp	lr, r3
   86cfa:	fa24 fa09 	lsr.w	sl, r4, r9
   86cfe:	d8f2      	bhi.n	86ce6 <__lshift+0x62>
   86d00:	f8cc a004 	str.w	sl, [ip, #4]
   86d04:	f1ba 0f00 	cmp.w	sl, #0
   86d08:	d000      	beq.n	86d0c <__lshift+0x88>
   86d0a:	1cbd      	adds	r5, r7, #2
   86d0c:	f8d8 304c 	ldr.w	r3, [r8, #76]	; 0x4c
   86d10:	6872      	ldr	r2, [r6, #4]
   86d12:	3d01      	subs	r5, #1
   86d14:	f853 1022 	ldr.w	r1, [r3, r2, lsl #2]
   86d18:	6105      	str	r5, [r0, #16]
   86d1a:	6031      	str	r1, [r6, #0]
   86d1c:	f843 6022 	str.w	r6, [r3, r2, lsl #2]
   86d20:	e8bd 87f0 	ldmia.w	sp!, {r4, r5, r6, r7, r8, r9, sl, pc}
   86d24:	3904      	subs	r1, #4
   86d26:	f853 2b04 	ldr.w	r2, [r3], #4
   86d2a:	459e      	cmp	lr, r3
   86d2c:	f841 2f04 	str.w	r2, [r1, #4]!
   86d30:	d8f9      	bhi.n	86d26 <__lshift+0xa2>
   86d32:	e7eb      	b.n	86d0c <__lshift+0x88>

00086d34 <__mcmp>:
   86d34:	6902      	ldr	r2, [r0, #16]
   86d36:	690b      	ldr	r3, [r1, #16]
   86d38:	1ad2      	subs	r2, r2, r3
   86d3a:	d113      	bne.n	86d64 <__mcmp+0x30>
   86d3c:	009b      	lsls	r3, r3, #2
   86d3e:	3014      	adds	r0, #20
   86d40:	3114      	adds	r1, #20
   86d42:	4419      	add	r1, r3
   86d44:	b410      	push	{r4}
   86d46:	4403      	add	r3, r0
   86d48:	e001      	b.n	86d4e <__mcmp+0x1a>
   86d4a:	4298      	cmp	r0, r3
   86d4c:	d20c      	bcs.n	86d68 <__mcmp+0x34>
   86d4e:	f853 4d04 	ldr.w	r4, [r3, #-4]!
   86d52:	f851 2d04 	ldr.w	r2, [r1, #-4]!
   86d56:	4294      	cmp	r4, r2
   86d58:	d0f7      	beq.n	86d4a <__mcmp+0x16>
   86d5a:	d309      	bcc.n	86d70 <__mcmp+0x3c>
   86d5c:	2001      	movs	r0, #1
   86d5e:	f85d 4b04 	ldr.w	r4, [sp], #4
   86d62:	4770      	bx	lr
   86d64:	4610      	mov	r0, r2
   86d66:	4770      	bx	lr
   86d68:	2000      	movs	r0, #0
   86d6a:	f85d 4b04 	ldr.w	r4, [sp], #4
   86d6e:	4770      	bx	lr
   86d70:	f04f 30ff 	mov.w	r0, #4294967295
   86d74:	f85d 4b04 	ldr.w	r4, [sp], #4
   86d78:	4770      	bx	lr
   86d7a:	bf00      	nop

00086d7c <__mdiff>:
   86d7c:	e92d 47f0 	stmdb	sp!, {r4, r5, r6, r7, r8, r9, sl, lr}
   86d80:	460c      	mov	r4, r1
   86d82:	4605      	mov	r5, r0
   86d84:	4611      	mov	r1, r2
   86d86:	4620      	mov	r0, r4
   86d88:	4691      	mov	r9, r2
   86d8a:	f7ff ffd3 	bl	86d34 <__mcmp>
   86d8e:	1e06      	subs	r6, r0, #0
   86d90:	d05d      	beq.n	86e4e <__mdiff+0xd2>
   86d92:	db56      	blt.n	86e42 <__mdiff+0xc6>
   86d94:	f04f 0a00 	mov.w	sl, #0
   86d98:	4628      	mov	r0, r5
   86d9a:	6861      	ldr	r1, [r4, #4]
   86d9c:	f7ff fd6a 	bl	86874 <_Balloc>
   86da0:	f109 0314 	add.w	r3, r9, #20
   86da4:	4680      	mov	r8, r0
   86da6:	461e      	mov	r6, r3
   86da8:	6927      	ldr	r7, [r4, #16]
   86daa:	f8d9 2010 	ldr.w	r2, [r9, #16]
   86dae:	f104 0e14 	add.w	lr, r4, #20
   86db2:	4675      	mov	r5, lr
   86db4:	f8c0 a00c 	str.w	sl, [r0, #12]
   86db8:	f100 0414 	add.w	r4, r0, #20
   86dbc:	eb0e 0e87 	add.w	lr, lr, r7, lsl #2
   86dc0:	eb03 0c82 	add.w	ip, r3, r2, lsl #2
   86dc4:	f04f 0a00 	mov.w	sl, #0
   86dc8:	f855 2b04 	ldr.w	r2, [r5], #4
   86dcc:	f856 1b04 	ldr.w	r1, [r6], #4
   86dd0:	b290      	uxth	r0, r2
   86dd2:	eb00 030a 	add.w	r3, r0, sl
   86dd6:	b288      	uxth	r0, r1
   86dd8:	0c09      	lsrs	r1, r1, #16
   86dda:	1a1b      	subs	r3, r3, r0
   86ddc:	ebc1 4212 	rsb	r2, r1, r2, lsr #16
   86de0:	eb02 4223 	add.w	r2, r2, r3, asr #16
   86de4:	b29b      	uxth	r3, r3
   86de6:	ea43 4302 	orr.w	r3, r3, r2, lsl #16
   86dea:	45b4      	cmp	ip, r6
   86dec:	f844 3b04 	str.w	r3, [r4], #4
   86df0:	ea4f 4a22 	mov.w	sl, r2, asr #16
   86df4:	46a9      	mov	r9, r5
   86df6:	d8e7      	bhi.n	86dc8 <__mdiff+0x4c>
   86df8:	45ae      	cmp	lr, r5
   86dfa:	4626      	mov	r6, r4
   86dfc:	d915      	bls.n	86e2a <__mdiff+0xae>
   86dfe:	f859 0b04 	ldr.w	r0, [r9], #4
   86e02:	b283      	uxth	r3, r0
   86e04:	4453      	add	r3, sl
   86e06:	0c00      	lsrs	r0, r0, #16
   86e08:	eb00 4123 	add.w	r1, r0, r3, asr #16
   86e0c:	b29b      	uxth	r3, r3
   86e0e:	ea43 4301 	orr.w	r3, r3, r1, lsl #16
   86e12:	45ce      	cmp	lr, r9
   86e14:	f844 3b04 	str.w	r3, [r4], #4
   86e18:	ea4f 4a21 	mov.w	sl, r1, asr #16
   86e1c:	d8ef      	bhi.n	86dfe <__mdiff+0x82>
   86e1e:	43ed      	mvns	r5, r5
   86e20:	4475      	add	r5, lr
   86e22:	f025 0403 	bic.w	r4, r5, #3
   86e26:	3404      	adds	r4, #4
   86e28:	4434      	add	r4, r6
   86e2a:	3c04      	subs	r4, #4
   86e2c:	b923      	cbnz	r3, 86e38 <__mdiff+0xbc>
   86e2e:	f854 3d04 	ldr.w	r3, [r4, #-4]!
   86e32:	3f01      	subs	r7, #1
   86e34:	2b00      	cmp	r3, #0
   86e36:	d0fa      	beq.n	86e2e <__mdiff+0xb2>
   86e38:	4640      	mov	r0, r8
   86e3a:	f8c8 7010 	str.w	r7, [r8, #16]
   86e3e:	e8bd 87f0 	ldmia.w	sp!, {r4, r5, r6, r7, r8, r9, sl, pc}
   86e42:	4623      	mov	r3, r4
   86e44:	f04f 0a01 	mov.w	sl, #1
   86e48:	464c      	mov	r4, r9
   86e4a:	4699      	mov	r9, r3
   86e4c:	e7a4      	b.n	86d98 <__mdiff+0x1c>
   86e4e:	4628      	mov	r0, r5
   86e50:	4631      	mov	r1, r6
   86e52:	f7ff fd0f 	bl	86874 <_Balloc>
   86e56:	2301      	movs	r3, #1
   86e58:	6146      	str	r6, [r0, #20]
   86e5a:	6103      	str	r3, [r0, #16]
   86e5c:	e8bd 87f0 	ldmia.w	sp!, {r4, r5, r6, r7, r8, r9, sl, pc}

00086e60 <__ulp>:
   86e60:	4b0f      	ldr	r3, [pc, #60]	; (86ea0 <__ulp+0x40>)
   86e62:	400b      	ands	r3, r1
   86e64:	f1a3 7350 	sub.w	r3, r3, #54525952	; 0x3400000
   86e68:	2b00      	cmp	r3, #0
   86e6a:	dd02      	ble.n	86e72 <__ulp+0x12>
   86e6c:	2000      	movs	r0, #0
   86e6e:	4619      	mov	r1, r3
   86e70:	4770      	bx	lr
   86e72:	425b      	negs	r3, r3
   86e74:	151b      	asrs	r3, r3, #20
   86e76:	2b13      	cmp	r3, #19
   86e78:	f04f 0000 	mov.w	r0, #0
   86e7c:	f04f 0100 	mov.w	r1, #0
   86e80:	dd09      	ble.n	86e96 <__ulp+0x36>
   86e82:	2b32      	cmp	r3, #50	; 0x32
   86e84:	bfdd      	ittte	le
   86e86:	f1c3 0333 	rsble	r3, r3, #51	; 0x33
   86e8a:	2201      	movle	r2, #1
   86e8c:	fa02 f303 	lslle.w	r3, r2, r3
   86e90:	2301      	movgt	r3, #1
   86e92:	4618      	mov	r0, r3
   86e94:	4770      	bx	lr
   86e96:	f44f 2200 	mov.w	r2, #524288	; 0x80000
   86e9a:	fa42 f103 	asr.w	r1, r2, r3
   86e9e:	4770      	bx	lr
   86ea0:	7ff00000 	.word	0x7ff00000

00086ea4 <__b2d>:
   86ea4:	e92d 41f0 	stmdb	sp!, {r4, r5, r6, r7, r8, lr}
   86ea8:	6905      	ldr	r5, [r0, #16]
   86eaa:	f100 0414 	add.w	r4, r0, #20
   86eae:	eb04 0585 	add.w	r5, r4, r5, lsl #2
   86eb2:	f855 7c04 	ldr.w	r7, [r5, #-4]
   86eb6:	460e      	mov	r6, r1
   86eb8:	4638      	mov	r0, r7
   86eba:	f7ff fd9b 	bl	869f4 <__hi0bits>
   86ebe:	f1c0 0320 	rsb	r3, r0, #32
   86ec2:	280a      	cmp	r0, #10
   86ec4:	6033      	str	r3, [r6, #0]
   86ec6:	f1a5 0104 	sub.w	r1, r5, #4
   86eca:	dc17      	bgt.n	86efc <__b2d+0x58>
   86ecc:	428c      	cmp	r4, r1
   86ece:	f1c0 060b 	rsb	r6, r0, #11
   86ed2:	bf38      	it	cc
   86ed4:	f855 1c08 	ldrcc.w	r1, [r5, #-8]
   86ed8:	fa27 fe06 	lsr.w	lr, r7, r6
   86edc:	f100 0015 	add.w	r0, r0, #21
   86ee0:	bf34      	ite	cc
   86ee2:	40f1      	lsrcc	r1, r6
   86ee4:	2100      	movcs	r1, #0
   86ee6:	4087      	lsls	r7, r0
   86ee8:	f04e 537f 	orr.w	r3, lr, #1069547520	; 0x3fc00000
   86eec:	ea41 0207 	orr.w	r2, r1, r7
   86ef0:	f443 1340 	orr.w	r3, r3, #3145728	; 0x300000
   86ef4:	4610      	mov	r0, r2
   86ef6:	4619      	mov	r1, r3
   86ef8:	e8bd 81f0 	ldmia.w	sp!, {r4, r5, r6, r7, r8, pc}
   86efc:	428c      	cmp	r4, r1
   86efe:	d222      	bcs.n	86f46 <__b2d+0xa2>
   86f00:	f1b0 0c0b 	subs.w	ip, r0, #11
   86f04:	f1a5 0808 	sub.w	r8, r5, #8
   86f08:	f855 1c08 	ldr.w	r1, [r5, #-8]
   86f0c:	d028      	beq.n	86f60 <__b2d+0xbc>
   86f0e:	f1c0 0e2b 	rsb	lr, r0, #43	; 0x2b
   86f12:	4544      	cmp	r4, r8
   86f14:	fa07 f70c 	lsl.w	r7, r7, ip
   86f18:	fa21 f60e 	lsr.w	r6, r1, lr
   86f1c:	ea47 0706 	orr.w	r7, r7, r6
   86f20:	bf38      	it	cc
   86f22:	f855 0c0c 	ldrcc.w	r0, [r5, #-12]
   86f26:	f047 537f 	orr.w	r3, r7, #1069547520	; 0x3fc00000
   86f2a:	f443 1340 	orr.w	r3, r3, #3145728	; 0x300000
   86f2e:	bf34      	ite	cc
   86f30:	fa20 f00e 	lsrcc.w	r0, r0, lr
   86f34:	2000      	movcs	r0, #0
   86f36:	fa01 f10c 	lsl.w	r1, r1, ip
   86f3a:	ea41 0200 	orr.w	r2, r1, r0
   86f3e:	4610      	mov	r0, r2
   86f40:	4619      	mov	r1, r3
   86f42:	e8bd 81f0 	ldmia.w	sp!, {r4, r5, r6, r7, r8, pc}
   86f46:	f1b0 0c0b 	subs.w	ip, r0, #11
   86f4a:	d008      	beq.n	86f5e <__b2d+0xba>
   86f4c:	fa07 f70c 	lsl.w	r7, r7, ip
   86f50:	f047 537f 	orr.w	r3, r7, #1069547520	; 0x3fc00000
   86f54:	2000      	movs	r0, #0
   86f56:	f443 1340 	orr.w	r3, r3, #3145728	; 0x300000
   86f5a:	4601      	mov	r1, r0
   86f5c:	e7eb      	b.n	86f36 <__b2d+0x92>
   86f5e:	4661      	mov	r1, ip
   86f60:	460a      	mov	r2, r1
   86f62:	f047 537f 	orr.w	r3, r7, #1069547520	; 0x3fc00000
   86f66:	f443 1340 	orr.w	r3, r3, #3145728	; 0x300000
   86f6a:	4610      	mov	r0, r2
   86f6c:	4619      	mov	r1, r3
   86f6e:	e8bd 81f0 	ldmia.w	sp!, {r4, r5, r6, r7, r8, pc}
   86f72:	bf00      	nop

00086f74 <__d2b>:
   86f74:	b5f0      	push	{r4, r5, r6, r7, lr}
   86f76:	2101      	movs	r1, #1
   86f78:	b083      	sub	sp, #12
   86f7a:	461c      	mov	r4, r3
   86f7c:	f3c3 550a 	ubfx	r5, r3, #20, #11
   86f80:	4616      	mov	r6, r2
   86f82:	f7ff fc77 	bl	86874 <_Balloc>
   86f86:	f3c4 0413 	ubfx	r4, r4, #0, #20
   86f8a:	4607      	mov	r7, r0
   86f8c:	b10d      	cbz	r5, 86f92 <__d2b+0x1e>
   86f8e:	f444 1480 	orr.w	r4, r4, #1048576	; 0x100000
   86f92:	9401      	str	r4, [sp, #4]
   86f94:	b306      	cbz	r6, 86fd8 <__d2b+0x64>
   86f96:	a802      	add	r0, sp, #8
   86f98:	f840 6d08 	str.w	r6, [r0, #-8]!
   86f9c:	f7ff fd4a 	bl	86a34 <__lo0bits>
   86fa0:	2800      	cmp	r0, #0
   86fa2:	d130      	bne.n	87006 <__d2b+0x92>
   86fa4:	e89d 000c 	ldmia.w	sp, {r2, r3}
   86fa8:	617a      	str	r2, [r7, #20]
   86faa:	2b00      	cmp	r3, #0
   86fac:	bf14      	ite	ne
   86fae:	2402      	movne	r4, #2
   86fb0:	2401      	moveq	r4, #1
   86fb2:	61bb      	str	r3, [r7, #24]
   86fb4:	613c      	str	r4, [r7, #16]
   86fb6:	b9d5      	cbnz	r5, 86fee <__d2b+0x7a>
   86fb8:	9a08      	ldr	r2, [sp, #32]
   86fba:	eb07 0384 	add.w	r3, r7, r4, lsl #2
   86fbe:	f2a0 4032 	subw	r0, r0, #1074	; 0x432
   86fc2:	6010      	str	r0, [r2, #0]
   86fc4:	6918      	ldr	r0, [r3, #16]
   86fc6:	f7ff fd15 	bl	869f4 <__hi0bits>
   86fca:	9b09      	ldr	r3, [sp, #36]	; 0x24
   86fcc:	ebc0 1044 	rsb	r0, r0, r4, lsl #5
   86fd0:	6018      	str	r0, [r3, #0]
   86fd2:	4638      	mov	r0, r7
   86fd4:	b003      	add	sp, #12
   86fd6:	bdf0      	pop	{r4, r5, r6, r7, pc}
   86fd8:	a801      	add	r0, sp, #4
   86fda:	f7ff fd2b 	bl	86a34 <__lo0bits>
   86fde:	9b01      	ldr	r3, [sp, #4]
   86fe0:	2201      	movs	r2, #1
   86fe2:	4614      	mov	r4, r2
   86fe4:	3020      	adds	r0, #32
   86fe6:	613a      	str	r2, [r7, #16]
   86fe8:	617b      	str	r3, [r7, #20]
   86fea:	2d00      	cmp	r5, #0
   86fec:	d0e4      	beq.n	86fb8 <__d2b+0x44>
   86fee:	f2a5 4333 	subw	r3, r5, #1075	; 0x433
   86ff2:	9a08      	ldr	r2, [sp, #32]
   86ff4:	4403      	add	r3, r0
   86ff6:	6013      	str	r3, [r2, #0]
   86ff8:	9b09      	ldr	r3, [sp, #36]	; 0x24
   86ffa:	f1c0 0035 	rsb	r0, r0, #53	; 0x35
   86ffe:	6018      	str	r0, [r3, #0]
   87000:	4638      	mov	r0, r7
   87002:	b003      	add	sp, #12
   87004:	bdf0      	pop	{r4, r5, r6, r7, pc}
   87006:	9b01      	ldr	r3, [sp, #4]
   87008:	f1c0 0120 	rsb	r1, r0, #32
   8700c:	9a00      	ldr	r2, [sp, #0]
   8700e:	fa03 f101 	lsl.w	r1, r3, r1
   87012:	430a      	orrs	r2, r1
   87014:	40c3      	lsrs	r3, r0
   87016:	9301      	str	r3, [sp, #4]
   87018:	617a      	str	r2, [r7, #20]
   8701a:	e7c6      	b.n	86faa <__d2b+0x36>

0008701c <__ratio>:
   8701c:	e92d 43f0 	stmdb	sp!, {r4, r5, r6, r7, r8, r9, lr}
   87020:	b083      	sub	sp, #12
   87022:	4688      	mov	r8, r1
   87024:	4669      	mov	r1, sp
   87026:	4681      	mov	r9, r0
   87028:	f7ff ff3c 	bl	86ea4 <__b2d>
   8702c:	4604      	mov	r4, r0
   8702e:	460d      	mov	r5, r1
   87030:	4640      	mov	r0, r8
   87032:	a901      	add	r1, sp, #4
   87034:	f7ff ff36 	bl	86ea4 <__b2d>
   87038:	f8d9 2010 	ldr.w	r2, [r9, #16]
   8703c:	4606      	mov	r6, r0
   8703e:	f8d8 0010 	ldr.w	r0, [r8, #16]
   87042:	460f      	mov	r7, r1
   87044:	e89d 000a 	ldmia.w	sp, {r1, r3}
   87048:	1a12      	subs	r2, r2, r0
   8704a:	1ac9      	subs	r1, r1, r3
   8704c:	eb01 1342 	add.w	r3, r1, r2, lsl #5
   87050:	2b00      	cmp	r3, #0
   87052:	dd0b      	ble.n	8706c <__ratio+0x50>
   87054:	eb05 5103 	add.w	r1, r5, r3, lsl #20
   87058:	460d      	mov	r5, r1
   8705a:	4620      	mov	r0, r4
   8705c:	4629      	mov	r1, r5
   8705e:	4632      	mov	r2, r6
   87060:	463b      	mov	r3, r7
   87062:	f000 ffd5 	bl	88010 <__aeabi_ddiv>
   87066:	b003      	add	sp, #12
   87068:	e8bd 83f0 	ldmia.w	sp!, {r4, r5, r6, r7, r8, r9, pc}
   8706c:	eba7 5903 	sub.w	r9, r7, r3, lsl #20
   87070:	464f      	mov	r7, r9
   87072:	e7f2      	b.n	8705a <__ratio+0x3e>

00087074 <__copybits>:
   87074:	b470      	push	{r4, r5, r6}
   87076:	6914      	ldr	r4, [r2, #16]
   87078:	f102 0314 	add.w	r3, r2, #20
   8707c:	3901      	subs	r1, #1
   8707e:	114e      	asrs	r6, r1, #5
   87080:	eb03 0484 	add.w	r4, r3, r4, lsl #2
   87084:	3601      	adds	r6, #1
   87086:	42a3      	cmp	r3, r4
   87088:	eb00 0686 	add.w	r6, r0, r6, lsl #2
   8708c:	d20c      	bcs.n	870a8 <__copybits+0x34>
   8708e:	1f01      	subs	r1, r0, #4
   87090:	f853 5b04 	ldr.w	r5, [r3], #4
   87094:	429c      	cmp	r4, r3
   87096:	f841 5f04 	str.w	r5, [r1, #4]!
   8709a:	d8f9      	bhi.n	87090 <__copybits+0x1c>
   8709c:	1aa3      	subs	r3, r4, r2
   8709e:	3b15      	subs	r3, #21
   870a0:	f023 0303 	bic.w	r3, r3, #3
   870a4:	3304      	adds	r3, #4
   870a6:	4418      	add	r0, r3
   870a8:	4286      	cmp	r6, r0
   870aa:	d904      	bls.n	870b6 <__copybits+0x42>
   870ac:	2300      	movs	r3, #0
   870ae:	f840 3b04 	str.w	r3, [r0], #4
   870b2:	4286      	cmp	r6, r0
   870b4:	d8fb      	bhi.n	870ae <__copybits+0x3a>
   870b6:	bc70      	pop	{r4, r5, r6}
   870b8:	4770      	bx	lr
   870ba:	bf00      	nop

000870bc <__any_on>:
   870bc:	6903      	ldr	r3, [r0, #16]
   870be:	114a      	asrs	r2, r1, #5
   870c0:	4293      	cmp	r3, r2
   870c2:	b410      	push	{r4}
   870c4:	f100 0414 	add.w	r4, r0, #20
   870c8:	da10      	bge.n	870ec <__any_on+0x30>
   870ca:	eb04 0383 	add.w	r3, r4, r3, lsl #2
   870ce:	429c      	cmp	r4, r3
   870d0:	d220      	bcs.n	87114 <__any_on+0x58>
   870d2:	f853 0c04 	ldr.w	r0, [r3, #-4]
   870d6:	3b04      	subs	r3, #4
   870d8:	b118      	cbz	r0, 870e2 <__any_on+0x26>
   870da:	e014      	b.n	87106 <__any_on+0x4a>
   870dc:	f853 2d04 	ldr.w	r2, [r3, #-4]!
   870e0:	b98a      	cbnz	r2, 87106 <__any_on+0x4a>
   870e2:	429c      	cmp	r4, r3
   870e4:	d3fa      	bcc.n	870dc <__any_on+0x20>
   870e6:	f85d 4b04 	ldr.w	r4, [sp], #4
   870ea:	4770      	bx	lr
   870ec:	dd0f      	ble.n	8710e <__any_on+0x52>
   870ee:	f011 011f 	ands.w	r1, r1, #31
   870f2:	d00c      	beq.n	8710e <__any_on+0x52>
   870f4:	f854 0022 	ldr.w	r0, [r4, r2, lsl #2]
   870f8:	eb04 0382 	add.w	r3, r4, r2, lsl #2
   870fc:	fa20 f201 	lsr.w	r2, r0, r1
   87100:	408a      	lsls	r2, r1
   87102:	4282      	cmp	r2, r0
   87104:	d0e3      	beq.n	870ce <__any_on+0x12>
   87106:	2001      	movs	r0, #1
   87108:	f85d 4b04 	ldr.w	r4, [sp], #4
   8710c:	4770      	bx	lr
   8710e:	eb04 0382 	add.w	r3, r4, r2, lsl #2
   87112:	e7dc      	b.n	870ce <__any_on+0x12>
   87114:	2000      	movs	r0, #0
   87116:	e7e6      	b.n	870e6 <__any_on+0x2a>

00087118 <_realloc_r>:
   87118:	e92d 4ff0 	stmdb	sp!, {r4, r5, r6, r7, r8, r9, sl, fp, lr}
   8711c:	4617      	mov	r7, r2
   8711e:	b083      	sub	sp, #12
   87120:	460d      	mov	r5, r1
   87122:	2900      	cmp	r1, #0
   87124:	f000 80e2 	beq.w	872ec <_realloc_r+0x1d4>
   87128:	4681      	mov	r9, r0
   8712a:	f107 040b 	add.w	r4, r7, #11
   8712e:	f7ff fb9d 	bl	8686c <__malloc_lock>
   87132:	f855 3c04 	ldr.w	r3, [r5, #-4]
   87136:	2c16      	cmp	r4, #22
   87138:	f023 0603 	bic.w	r6, r3, #3
   8713c:	f1a5 0808 	sub.w	r8, r5, #8
   87140:	d84b      	bhi.n	871da <_realloc_r+0xc2>
   87142:	2210      	movs	r2, #16
   87144:	4614      	mov	r4, r2
   87146:	42a7      	cmp	r7, r4
   87148:	d84c      	bhi.n	871e4 <_realloc_r+0xcc>
   8714a:	4296      	cmp	r6, r2
   8714c:	da51      	bge.n	871f2 <_realloc_r+0xda>
   8714e:	f8df b3a4 	ldr.w	fp, [pc, #932]	; 874f4 <_realloc_r+0x3dc>
   87152:	eb08 0106 	add.w	r1, r8, r6
   87156:	f8db 0008 	ldr.w	r0, [fp, #8]
   8715a:	4288      	cmp	r0, r1
   8715c:	f000 80d3 	beq.w	87306 <_realloc_r+0x1ee>
   87160:	6848      	ldr	r0, [r1, #4]
   87162:	f020 0e01 	bic.w	lr, r0, #1
   87166:	448e      	add	lr, r1
   87168:	f8de e004 	ldr.w	lr, [lr, #4]
   8716c:	f01e 0f01 	tst.w	lr, #1
   87170:	d154      	bne.n	8721c <_realloc_r+0x104>
   87172:	f020 0003 	bic.w	r0, r0, #3
   87176:	4430      	add	r0, r6
   87178:	4290      	cmp	r0, r2
   8717a:	f280 80bd 	bge.w	872f8 <_realloc_r+0x1e0>
   8717e:	07db      	lsls	r3, r3, #31
   87180:	f100 8090 	bmi.w	872a4 <_realloc_r+0x18c>
   87184:	f855 3c08 	ldr.w	r3, [r5, #-8]
   87188:	ebc3 0a08 	rsb	sl, r3, r8
   8718c:	f8da 3004 	ldr.w	r3, [sl, #4]
   87190:	f023 0303 	bic.w	r3, r3, #3
   87194:	eb00 0e03 	add.w	lr, r0, r3
   87198:	4596      	cmp	lr, r2
   8719a:	db49      	blt.n	87230 <_realloc_r+0x118>
   8719c:	4657      	mov	r7, sl
   8719e:	68cb      	ldr	r3, [r1, #12]
   871a0:	6889      	ldr	r1, [r1, #8]
   871a2:	1f32      	subs	r2, r6, #4
   871a4:	60cb      	str	r3, [r1, #12]
   871a6:	6099      	str	r1, [r3, #8]
   871a8:	f857 1f08 	ldr.w	r1, [r7, #8]!
   871ac:	f8da 300c 	ldr.w	r3, [sl, #12]
   871b0:	2a24      	cmp	r2, #36	; 0x24
   871b2:	60cb      	str	r3, [r1, #12]
   871b4:	6099      	str	r1, [r3, #8]
   871b6:	f200 8133 	bhi.w	87420 <_realloc_r+0x308>
   871ba:	2a13      	cmp	r2, #19
   871bc:	f240 80fa 	bls.w	873b4 <_realloc_r+0x29c>
   871c0:	682b      	ldr	r3, [r5, #0]
   871c2:	2a1b      	cmp	r2, #27
   871c4:	f8ca 3008 	str.w	r3, [sl, #8]
   871c8:	686b      	ldr	r3, [r5, #4]
   871ca:	f8ca 300c 	str.w	r3, [sl, #12]
   871ce:	f200 813b 	bhi.w	87448 <_realloc_r+0x330>
   871d2:	3508      	adds	r5, #8
   871d4:	f10a 0310 	add.w	r3, sl, #16
   871d8:	e0ed      	b.n	873b6 <_realloc_r+0x29e>
   871da:	f024 0407 	bic.w	r4, r4, #7
   871de:	2c00      	cmp	r4, #0
   871e0:	4622      	mov	r2, r4
   871e2:	dab0      	bge.n	87146 <_realloc_r+0x2e>
   871e4:	230c      	movs	r3, #12
   871e6:	2000      	movs	r0, #0
   871e8:	f8c9 3000 	str.w	r3, [r9]
   871ec:	b003      	add	sp, #12
   871ee:	e8bd 8ff0 	ldmia.w	sp!, {r4, r5, r6, r7, r8, r9, sl, fp, pc}
   871f2:	462f      	mov	r7, r5
   871f4:	1b32      	subs	r2, r6, r4
   871f6:	2a0f      	cmp	r2, #15
   871f8:	f003 0301 	and.w	r3, r3, #1
   871fc:	d840      	bhi.n	87280 <_realloc_r+0x168>
   871fe:	4333      	orrs	r3, r6
   87200:	f8c8 3004 	str.w	r3, [r8, #4]
   87204:	4446      	add	r6, r8
   87206:	6873      	ldr	r3, [r6, #4]
   87208:	f043 0301 	orr.w	r3, r3, #1
   8720c:	6073      	str	r3, [r6, #4]
   8720e:	4648      	mov	r0, r9
   87210:	f7ff fb2e 	bl	86870 <__malloc_unlock>
   87214:	4638      	mov	r0, r7
   87216:	b003      	add	sp, #12
   87218:	e8bd 8ff0 	ldmia.w	sp!, {r4, r5, r6, r7, r8, r9, sl, fp, pc}
   8721c:	07d9      	lsls	r1, r3, #31
   8721e:	d441      	bmi.n	872a4 <_realloc_r+0x18c>
   87220:	f855 3c08 	ldr.w	r3, [r5, #-8]
   87224:	ebc3 0a08 	rsb	sl, r3, r8
   87228:	f8da 3004 	ldr.w	r3, [sl, #4]
   8722c:	f023 0303 	bic.w	r3, r3, #3
   87230:	4433      	add	r3, r6
   87232:	4293      	cmp	r3, r2
   87234:	db36      	blt.n	872a4 <_realloc_r+0x18c>
   87236:	4657      	mov	r7, sl
   87238:	f8da 100c 	ldr.w	r1, [sl, #12]
   8723c:	f857 0f08 	ldr.w	r0, [r7, #8]!
   87240:	1f32      	subs	r2, r6, #4
   87242:	2a24      	cmp	r2, #36	; 0x24
   87244:	60c1      	str	r1, [r0, #12]
   87246:	6088      	str	r0, [r1, #8]
   87248:	f200 80f5 	bhi.w	87436 <_realloc_r+0x31e>
   8724c:	2a13      	cmp	r2, #19
   8724e:	f240 80f0 	bls.w	87432 <_realloc_r+0x31a>
   87252:	6829      	ldr	r1, [r5, #0]
   87254:	2a1b      	cmp	r2, #27
   87256:	f8ca 1008 	str.w	r1, [sl, #8]
   8725a:	6869      	ldr	r1, [r5, #4]
   8725c:	f8ca 100c 	str.w	r1, [sl, #12]
   87260:	f200 8107 	bhi.w	87472 <_realloc_r+0x35a>
   87264:	3508      	adds	r5, #8
   87266:	f10a 0210 	add.w	r2, sl, #16
   8726a:	6829      	ldr	r1, [r5, #0]
   8726c:	461e      	mov	r6, r3
   8726e:	6011      	str	r1, [r2, #0]
   87270:	6869      	ldr	r1, [r5, #4]
   87272:	46d0      	mov	r8, sl
   87274:	6051      	str	r1, [r2, #4]
   87276:	68ab      	ldr	r3, [r5, #8]
   87278:	6093      	str	r3, [r2, #8]
   8727a:	f8da 3004 	ldr.w	r3, [sl, #4]
   8727e:	e7b9      	b.n	871f4 <_realloc_r+0xdc>
   87280:	eb08 0104 	add.w	r1, r8, r4
   87284:	4323      	orrs	r3, r4
   87286:	f042 0001 	orr.w	r0, r2, #1
   8728a:	f8c8 3004 	str.w	r3, [r8, #4]
   8728e:	440a      	add	r2, r1
   87290:	6048      	str	r0, [r1, #4]
   87292:	6853      	ldr	r3, [r2, #4]
   87294:	3108      	adds	r1, #8
   87296:	f043 0301 	orr.w	r3, r3, #1
   8729a:	6053      	str	r3, [r2, #4]
   8729c:	4648      	mov	r0, r9
   8729e:	f7fe f8db 	bl	85458 <_free_r>
   872a2:	e7b4      	b.n	8720e <_realloc_r+0xf6>
   872a4:	4639      	mov	r1, r7
   872a6:	4648      	mov	r0, r9
   872a8:	f7fe ffac 	bl	86204 <_malloc_r>
   872ac:	4607      	mov	r7, r0
   872ae:	2800      	cmp	r0, #0
   872b0:	d0ad      	beq.n	8720e <_realloc_r+0xf6>
   872b2:	f855 3c04 	ldr.w	r3, [r5, #-4]
   872b6:	f1a0 0108 	sub.w	r1, r0, #8
   872ba:	f023 0201 	bic.w	r2, r3, #1
   872be:	4442      	add	r2, r8
   872c0:	4291      	cmp	r1, r2
   872c2:	f000 80a6 	beq.w	87412 <_realloc_r+0x2fa>
   872c6:	1f32      	subs	r2, r6, #4
   872c8:	2a24      	cmp	r2, #36	; 0x24
   872ca:	f200 8093 	bhi.w	873f4 <_realloc_r+0x2dc>
   872ce:	2a13      	cmp	r2, #19
   872d0:	d865      	bhi.n	8739e <_realloc_r+0x286>
   872d2:	4603      	mov	r3, r0
   872d4:	462a      	mov	r2, r5
   872d6:	6811      	ldr	r1, [r2, #0]
   872d8:	6019      	str	r1, [r3, #0]
   872da:	6851      	ldr	r1, [r2, #4]
   872dc:	6059      	str	r1, [r3, #4]
   872de:	6892      	ldr	r2, [r2, #8]
   872e0:	609a      	str	r2, [r3, #8]
   872e2:	4629      	mov	r1, r5
   872e4:	4648      	mov	r0, r9
   872e6:	f7fe f8b7 	bl	85458 <_free_r>
   872ea:	e790      	b.n	8720e <_realloc_r+0xf6>
   872ec:	4611      	mov	r1, r2
   872ee:	b003      	add	sp, #12
   872f0:	e8bd 4ff0 	ldmia.w	sp!, {r4, r5, r6, r7, r8, r9, sl, fp, lr}
   872f4:	f7fe bf86 	b.w	86204 <_malloc_r>
   872f8:	68ca      	ldr	r2, [r1, #12]
   872fa:	6889      	ldr	r1, [r1, #8]
   872fc:	462f      	mov	r7, r5
   872fe:	60ca      	str	r2, [r1, #12]
   87300:	4606      	mov	r6, r0
   87302:	6091      	str	r1, [r2, #8]
   87304:	e776      	b.n	871f4 <_realloc_r+0xdc>
   87306:	6841      	ldr	r1, [r0, #4]
   87308:	f104 0010 	add.w	r0, r4, #16
   8730c:	f021 0103 	bic.w	r1, r1, #3
   87310:	4431      	add	r1, r6
   87312:	4281      	cmp	r1, r0
   87314:	da5a      	bge.n	873cc <_realloc_r+0x2b4>
   87316:	07db      	lsls	r3, r3, #31
   87318:	d4c4      	bmi.n	872a4 <_realloc_r+0x18c>
   8731a:	f855 3c08 	ldr.w	r3, [r5, #-8]
   8731e:	ebc3 0a08 	rsb	sl, r3, r8
   87322:	f8da 3004 	ldr.w	r3, [sl, #4]
   87326:	f023 0303 	bic.w	r3, r3, #3
   8732a:	eb01 0c03 	add.w	ip, r1, r3
   8732e:	4560      	cmp	r0, ip
   87330:	f73f af7e 	bgt.w	87230 <_realloc_r+0x118>
   87334:	4657      	mov	r7, sl
   87336:	f8da 300c 	ldr.w	r3, [sl, #12]
   8733a:	f857 1f08 	ldr.w	r1, [r7, #8]!
   8733e:	1f32      	subs	r2, r6, #4
   87340:	2a24      	cmp	r2, #36	; 0x24
   87342:	60cb      	str	r3, [r1, #12]
   87344:	6099      	str	r1, [r3, #8]
   87346:	f200 80b6 	bhi.w	874b6 <_realloc_r+0x39e>
   8734a:	2a13      	cmp	r2, #19
   8734c:	f240 80a7 	bls.w	8749e <_realloc_r+0x386>
   87350:	682b      	ldr	r3, [r5, #0]
   87352:	2a1b      	cmp	r2, #27
   87354:	f8ca 3008 	str.w	r3, [sl, #8]
   87358:	686b      	ldr	r3, [r5, #4]
   8735a:	f8ca 300c 	str.w	r3, [sl, #12]
   8735e:	f200 80b3 	bhi.w	874c8 <_realloc_r+0x3b0>
   87362:	3508      	adds	r5, #8
   87364:	f10a 0310 	add.w	r3, sl, #16
   87368:	682a      	ldr	r2, [r5, #0]
   8736a:	601a      	str	r2, [r3, #0]
   8736c:	686a      	ldr	r2, [r5, #4]
   8736e:	605a      	str	r2, [r3, #4]
   87370:	68aa      	ldr	r2, [r5, #8]
   87372:	609a      	str	r2, [r3, #8]
   87374:	ebc4 030c 	rsb	r3, r4, ip
   87378:	eb0a 0204 	add.w	r2, sl, r4
   8737c:	f043 0301 	orr.w	r3, r3, #1
   87380:	f8cb 2008 	str.w	r2, [fp, #8]
   87384:	6053      	str	r3, [r2, #4]
   87386:	f8da 3004 	ldr.w	r3, [sl, #4]
   8738a:	4648      	mov	r0, r9
   8738c:	f003 0301 	and.w	r3, r3, #1
   87390:	431c      	orrs	r4, r3
   87392:	f8ca 4004 	str.w	r4, [sl, #4]
   87396:	f7ff fa6b 	bl	86870 <__malloc_unlock>
   8739a:	4638      	mov	r0, r7
   8739c:	e73b      	b.n	87216 <_realloc_r+0xfe>
   8739e:	682b      	ldr	r3, [r5, #0]
   873a0:	2a1b      	cmp	r2, #27
   873a2:	6003      	str	r3, [r0, #0]
   873a4:	686b      	ldr	r3, [r5, #4]
   873a6:	6043      	str	r3, [r0, #4]
   873a8:	d828      	bhi.n	873fc <_realloc_r+0x2e4>
   873aa:	f100 0308 	add.w	r3, r0, #8
   873ae:	f105 0208 	add.w	r2, r5, #8
   873b2:	e790      	b.n	872d6 <_realloc_r+0x1be>
   873b4:	463b      	mov	r3, r7
   873b6:	682a      	ldr	r2, [r5, #0]
   873b8:	4676      	mov	r6, lr
   873ba:	601a      	str	r2, [r3, #0]
   873bc:	686a      	ldr	r2, [r5, #4]
   873be:	46d0      	mov	r8, sl
   873c0:	605a      	str	r2, [r3, #4]
   873c2:	68aa      	ldr	r2, [r5, #8]
   873c4:	609a      	str	r2, [r3, #8]
   873c6:	f8da 3004 	ldr.w	r3, [sl, #4]
   873ca:	e713      	b.n	871f4 <_realloc_r+0xdc>
   873cc:	1b0b      	subs	r3, r1, r4
   873ce:	eb08 0204 	add.w	r2, r8, r4
   873d2:	f043 0301 	orr.w	r3, r3, #1
   873d6:	f8cb 2008 	str.w	r2, [fp, #8]
   873da:	6053      	str	r3, [r2, #4]
   873dc:	f855 3c04 	ldr.w	r3, [r5, #-4]
   873e0:	4648      	mov	r0, r9
   873e2:	f003 0301 	and.w	r3, r3, #1
   873e6:	431c      	orrs	r4, r3
   873e8:	f845 4c04 	str.w	r4, [r5, #-4]
   873ec:	f7ff fa40 	bl	86870 <__malloc_unlock>
   873f0:	4628      	mov	r0, r5
   873f2:	e710      	b.n	87216 <_realloc_r+0xfe>
   873f4:	4629      	mov	r1, r5
   873f6:	f7ff f9d5 	bl	867a4 <memmove>
   873fa:	e772      	b.n	872e2 <_realloc_r+0x1ca>
   873fc:	68ab      	ldr	r3, [r5, #8]
   873fe:	2a24      	cmp	r2, #36	; 0x24
   87400:	6083      	str	r3, [r0, #8]
   87402:	68eb      	ldr	r3, [r5, #12]
   87404:	60c3      	str	r3, [r0, #12]
   87406:	d02b      	beq.n	87460 <_realloc_r+0x348>
   87408:	f100 0310 	add.w	r3, r0, #16
   8740c:	f105 0210 	add.w	r2, r5, #16
   87410:	e761      	b.n	872d6 <_realloc_r+0x1be>
   87412:	f850 2c04 	ldr.w	r2, [r0, #-4]
   87416:	462f      	mov	r7, r5
   87418:	f022 0203 	bic.w	r2, r2, #3
   8741c:	4416      	add	r6, r2
   8741e:	e6e9      	b.n	871f4 <_realloc_r+0xdc>
   87420:	4629      	mov	r1, r5
   87422:	4638      	mov	r0, r7
   87424:	4676      	mov	r6, lr
   87426:	46d0      	mov	r8, sl
   87428:	f7ff f9bc 	bl	867a4 <memmove>
   8742c:	f8da 3004 	ldr.w	r3, [sl, #4]
   87430:	e6e0      	b.n	871f4 <_realloc_r+0xdc>
   87432:	463a      	mov	r2, r7
   87434:	e719      	b.n	8726a <_realloc_r+0x152>
   87436:	4629      	mov	r1, r5
   87438:	4638      	mov	r0, r7
   8743a:	461e      	mov	r6, r3
   8743c:	46d0      	mov	r8, sl
   8743e:	f7ff f9b1 	bl	867a4 <memmove>
   87442:	f8da 3004 	ldr.w	r3, [sl, #4]
   87446:	e6d5      	b.n	871f4 <_realloc_r+0xdc>
   87448:	68ab      	ldr	r3, [r5, #8]
   8744a:	2a24      	cmp	r2, #36	; 0x24
   8744c:	f8ca 3010 	str.w	r3, [sl, #16]
   87450:	68eb      	ldr	r3, [r5, #12]
   87452:	f8ca 3014 	str.w	r3, [sl, #20]
   87456:	d018      	beq.n	8748a <_realloc_r+0x372>
   87458:	3510      	adds	r5, #16
   8745a:	f10a 0318 	add.w	r3, sl, #24
   8745e:	e7aa      	b.n	873b6 <_realloc_r+0x29e>
   87460:	692a      	ldr	r2, [r5, #16]
   87462:	f100 0318 	add.w	r3, r0, #24
   87466:	6102      	str	r2, [r0, #16]
   87468:	6969      	ldr	r1, [r5, #20]
   8746a:	f105 0218 	add.w	r2, r5, #24
   8746e:	6141      	str	r1, [r0, #20]
   87470:	e731      	b.n	872d6 <_realloc_r+0x1be>
   87472:	68a9      	ldr	r1, [r5, #8]
   87474:	2a24      	cmp	r2, #36	; 0x24
   87476:	f8ca 1010 	str.w	r1, [sl, #16]
   8747a:	68e9      	ldr	r1, [r5, #12]
   8747c:	f8ca 1014 	str.w	r1, [sl, #20]
   87480:	d00f      	beq.n	874a2 <_realloc_r+0x38a>
   87482:	3510      	adds	r5, #16
   87484:	f10a 0218 	add.w	r2, sl, #24
   87488:	e6ef      	b.n	8726a <_realloc_r+0x152>
   8748a:	692a      	ldr	r2, [r5, #16]
   8748c:	f10a 0320 	add.w	r3, sl, #32
   87490:	f8ca 2018 	str.w	r2, [sl, #24]
   87494:	696a      	ldr	r2, [r5, #20]
   87496:	3518      	adds	r5, #24
   87498:	f8ca 201c 	str.w	r2, [sl, #28]
   8749c:	e78b      	b.n	873b6 <_realloc_r+0x29e>
   8749e:	463b      	mov	r3, r7
   874a0:	e762      	b.n	87368 <_realloc_r+0x250>
   874a2:	6929      	ldr	r1, [r5, #16]
   874a4:	f10a 0220 	add.w	r2, sl, #32
   874a8:	f8ca 1018 	str.w	r1, [sl, #24]
   874ac:	6969      	ldr	r1, [r5, #20]
   874ae:	3518      	adds	r5, #24
   874b0:	f8ca 101c 	str.w	r1, [sl, #28]
   874b4:	e6d9      	b.n	8726a <_realloc_r+0x152>
   874b6:	4629      	mov	r1, r5
   874b8:	4638      	mov	r0, r7
   874ba:	f8cd c004 	str.w	ip, [sp, #4]
   874be:	f7ff f971 	bl	867a4 <memmove>
   874c2:	f8dd c004 	ldr.w	ip, [sp, #4]
   874c6:	e755      	b.n	87374 <_realloc_r+0x25c>
   874c8:	68ab      	ldr	r3, [r5, #8]
   874ca:	2a24      	cmp	r2, #36	; 0x24
   874cc:	f8ca 3010 	str.w	r3, [sl, #16]
   874d0:	68eb      	ldr	r3, [r5, #12]
   874d2:	f8ca 3014 	str.w	r3, [sl, #20]
   874d6:	d003      	beq.n	874e0 <_realloc_r+0x3c8>
   874d8:	3510      	adds	r5, #16
   874da:	f10a 0318 	add.w	r3, sl, #24
   874de:	e743      	b.n	87368 <_realloc_r+0x250>
   874e0:	692a      	ldr	r2, [r5, #16]
   874e2:	f10a 0320 	add.w	r3, sl, #32
   874e6:	f8ca 2018 	str.w	r2, [sl, #24]
   874ea:	696a      	ldr	r2, [r5, #20]
   874ec:	3518      	adds	r5, #24
   874ee:	f8ca 201c 	str.w	r2, [sl, #28]
   874f2:	e739      	b.n	87368 <_realloc_r+0x250>
   874f4:	20070594 	.word	0x20070594

000874f8 <lflush>:
   874f8:	8983      	ldrh	r3, [r0, #12]
   874fa:	f003 0309 	and.w	r3, r3, #9
   874fe:	2b09      	cmp	r3, #9
   87500:	d001      	beq.n	87506 <lflush+0xe>
   87502:	2000      	movs	r0, #0
   87504:	4770      	bx	lr
   87506:	f7fd be3f 	b.w	85188 <fflush>
   8750a:	bf00      	nop

0008750c <__srefill_r>:
   8750c:	b5f8      	push	{r3, r4, r5, r6, r7, lr}
   8750e:	460c      	mov	r4, r1
   87510:	4605      	mov	r5, r0
   87512:	b110      	cbz	r0, 8751a <__srefill_r+0xe>
   87514:	6b83      	ldr	r3, [r0, #56]	; 0x38
   87516:	2b00      	cmp	r3, #0
   87518:	d045      	beq.n	875a6 <__srefill_r+0x9a>
   8751a:	89a3      	ldrh	r3, [r4, #12]
   8751c:	b29a      	uxth	r2, r3
   8751e:	0497      	lsls	r7, r2, #18
   87520:	d407      	bmi.n	87532 <__srefill_r+0x26>
   87522:	6e62      	ldr	r2, [r4, #100]	; 0x64
   87524:	f443 5300 	orr.w	r3, r3, #8192	; 0x2000
   87528:	f422 5200 	bic.w	r2, r2, #8192	; 0x2000
   8752c:	6662      	str	r2, [r4, #100]	; 0x64
   8752e:	81a3      	strh	r3, [r4, #12]
   87530:	b29a      	uxth	r2, r3
   87532:	2100      	movs	r1, #0
   87534:	0696      	lsls	r6, r2, #26
   87536:	6061      	str	r1, [r4, #4]
   87538:	d432      	bmi.n	875a0 <__srefill_r+0x94>
   8753a:	0750      	lsls	r0, r2, #29
   8753c:	d521      	bpl.n	87582 <__srefill_r+0x76>
   8753e:	6b21      	ldr	r1, [r4, #48]	; 0x30
   87540:	b161      	cbz	r1, 8755c <__srefill_r+0x50>
   87542:	f104 0340 	add.w	r3, r4, #64	; 0x40
   87546:	4299      	cmp	r1, r3
   87548:	d002      	beq.n	87550 <__srefill_r+0x44>
   8754a:	4628      	mov	r0, r5
   8754c:	f7fd ff84 	bl	85458 <_free_r>
   87550:	6be3      	ldr	r3, [r4, #60]	; 0x3c
   87552:	2000      	movs	r0, #0
   87554:	6063      	str	r3, [r4, #4]
   87556:	6320      	str	r0, [r4, #48]	; 0x30
   87558:	2b00      	cmp	r3, #0
   8755a:	d13e      	bne.n	875da <__srefill_r+0xce>
   8755c:	6923      	ldr	r3, [r4, #16]
   8755e:	2b00      	cmp	r3, #0
   87560:	d04b      	beq.n	875fa <__srefill_r+0xee>
   87562:	89a7      	ldrh	r7, [r4, #12]
   87564:	b2be      	uxth	r6, r7
   87566:	07b3      	lsls	r3, r6, #30
   87568:	d120      	bne.n	875ac <__srefill_r+0xa0>
   8756a:	6922      	ldr	r2, [r4, #16]
   8756c:	4628      	mov	r0, r5
   8756e:	6022      	str	r2, [r4, #0]
   87570:	6a25      	ldr	r5, [r4, #32]
   87572:	69e1      	ldr	r1, [r4, #28]
   87574:	6963      	ldr	r3, [r4, #20]
   87576:	47a8      	blx	r5
   87578:	2800      	cmp	r0, #0
   8757a:	6060      	str	r0, [r4, #4]
   8757c:	dd09      	ble.n	87592 <__srefill_r+0x86>
   8757e:	2000      	movs	r0, #0
   87580:	bdf8      	pop	{r3, r4, r5, r6, r7, pc}
   87582:	06d1      	lsls	r1, r2, #27
   87584:	d53e      	bpl.n	87604 <__srefill_r+0xf8>
   87586:	0712      	lsls	r2, r2, #28
   87588:	d42a      	bmi.n	875e0 <__srefill_r+0xd4>
   8758a:	f043 0304 	orr.w	r3, r3, #4
   8758e:	81a3      	strh	r3, [r4, #12]
   87590:	e7e4      	b.n	8755c <__srefill_r+0x50>
   87592:	89a3      	ldrh	r3, [r4, #12]
   87594:	d01b      	beq.n	875ce <__srefill_r+0xc2>
   87596:	2200      	movs	r2, #0
   87598:	f043 0340 	orr.w	r3, r3, #64	; 0x40
   8759c:	81a3      	strh	r3, [r4, #12]
   8759e:	6062      	str	r2, [r4, #4]
   875a0:	f04f 30ff 	mov.w	r0, #4294967295
   875a4:	bdf8      	pop	{r3, r4, r5, r6, r7, pc}
   875a6:	f7fd fe7f 	bl	852a8 <__sinit>
   875aa:	e7b6      	b.n	8751a <__srefill_r+0xe>
   875ac:	4a19      	ldr	r2, [pc, #100]	; (87614 <__srefill_r+0x108>)
   875ae:	2301      	movs	r3, #1
   875b0:	6810      	ldr	r0, [r2, #0]
   875b2:	81a3      	strh	r3, [r4, #12]
   875b4:	4918      	ldr	r1, [pc, #96]	; (87618 <__srefill_r+0x10c>)
   875b6:	f006 0609 	and.w	r6, r6, #9
   875ba:	f7fe f9b5 	bl	85928 <_fwalk>
   875be:	2e09      	cmp	r6, #9
   875c0:	81a7      	strh	r7, [r4, #12]
   875c2:	d1d2      	bne.n	8756a <__srefill_r+0x5e>
   875c4:	4628      	mov	r0, r5
   875c6:	4621      	mov	r1, r4
   875c8:	f7fd fd24 	bl	85014 <__sflush_r>
   875cc:	e7cd      	b.n	8756a <__srefill_r+0x5e>
   875ce:	f043 0320 	orr.w	r3, r3, #32
   875d2:	f04f 30ff 	mov.w	r0, #4294967295
   875d6:	81a3      	strh	r3, [r4, #12]
   875d8:	bdf8      	pop	{r3, r4, r5, r6, r7, pc}
   875da:	6ba3      	ldr	r3, [r4, #56]	; 0x38
   875dc:	6023      	str	r3, [r4, #0]
   875de:	bdf8      	pop	{r3, r4, r5, r6, r7, pc}
   875e0:	4628      	mov	r0, r5
   875e2:	4621      	mov	r1, r4
   875e4:	f7fd fdba 	bl	8515c <_fflush_r>
   875e8:	2800      	cmp	r0, #0
   875ea:	d1d9      	bne.n	875a0 <__srefill_r+0x94>
   875ec:	89a3      	ldrh	r3, [r4, #12]
   875ee:	60a0      	str	r0, [r4, #8]
   875f0:	f023 0308 	bic.w	r3, r3, #8
   875f4:	61a0      	str	r0, [r4, #24]
   875f6:	b29b      	uxth	r3, r3
   875f8:	e7c7      	b.n	8758a <__srefill_r+0x7e>
   875fa:	4628      	mov	r0, r5
   875fc:	4621      	mov	r1, r4
   875fe:	f7fe fd89 	bl	86114 <__smakebuf_r>
   87602:	e7ae      	b.n	87562 <__srefill_r+0x56>
   87604:	f043 0340 	orr.w	r3, r3, #64	; 0x40
   87608:	2209      	movs	r2, #9
   8760a:	602a      	str	r2, [r5, #0]
   8760c:	f04f 30ff 	mov.w	r0, #4294967295
   87610:	81a3      	strh	r3, [r4, #12]
   87612:	bdf8      	pop	{r3, r4, r5, r6, r7, pc}
   87614:	00088988 	.word	0x00088988
   87618:	000874f9 	.word	0x000874f9

0008761c <_sbrk_r>:
   8761c:	b538      	push	{r3, r4, r5, lr}
   8761e:	4c07      	ldr	r4, [pc, #28]	; (8763c <_sbrk_r+0x20>)
   87620:	2300      	movs	r3, #0
   87622:	4605      	mov	r5, r0
   87624:	4608      	mov	r0, r1
   87626:	6023      	str	r3, [r4, #0]
   87628:	f7fa fefa 	bl	82420 <_sbrk>
   8762c:	1c43      	adds	r3, r0, #1
   8762e:	d000      	beq.n	87632 <_sbrk_r+0x16>
   87630:	bd38      	pop	{r3, r4, r5, pc}
   87632:	6823      	ldr	r3, [r4, #0]
   87634:	2b00      	cmp	r3, #0
   87636:	d0fb      	beq.n	87630 <_sbrk_r+0x14>
   87638:	602b      	str	r3, [r5, #0]
   8763a:	bd38      	pop	{r3, r4, r5, pc}
   8763c:	2007ae94 	.word	0x2007ae94

00087640 <__sread>:
   87640:	b510      	push	{r4, lr}
   87642:	460c      	mov	r4, r1
   87644:	f9b1 100e 	ldrsh.w	r1, [r1, #14]
   87648:	f000 f9ec 	bl	87a24 <_read_r>
   8764c:	2800      	cmp	r0, #0
   8764e:	db03      	blt.n	87658 <__sread+0x18>
   87650:	6d23      	ldr	r3, [r4, #80]	; 0x50
   87652:	4403      	add	r3, r0
   87654:	6523      	str	r3, [r4, #80]	; 0x50
   87656:	bd10      	pop	{r4, pc}
   87658:	89a3      	ldrh	r3, [r4, #12]
   8765a:	f423 5380 	bic.w	r3, r3, #4096	; 0x1000
   8765e:	81a3      	strh	r3, [r4, #12]
   87660:	bd10      	pop	{r4, pc}
   87662:	bf00      	nop

00087664 <__swrite>:
   87664:	e92d 41f0 	stmdb	sp!, {r4, r5, r6, r7, r8, lr}
   87668:	460c      	mov	r4, r1
   8766a:	8989      	ldrh	r1, [r1, #12]
   8766c:	461d      	mov	r5, r3
   8766e:	05cb      	lsls	r3, r1, #23
   87670:	4616      	mov	r6, r2
   87672:	4607      	mov	r7, r0
   87674:	d506      	bpl.n	87684 <__swrite+0x20>
   87676:	f9b4 100e 	ldrsh.w	r1, [r4, #14]
   8767a:	2200      	movs	r2, #0
   8767c:	2302      	movs	r3, #2
   8767e:	f000 f9bd 	bl	879fc <_lseek_r>
   87682:	89a1      	ldrh	r1, [r4, #12]
   87684:	f421 5180 	bic.w	r1, r1, #4096	; 0x1000
   87688:	81a1      	strh	r1, [r4, #12]
   8768a:	4638      	mov	r0, r7
   8768c:	f9b4 100e 	ldrsh.w	r1, [r4, #14]
   87690:	4632      	mov	r2, r6
   87692:	462b      	mov	r3, r5
   87694:	e8bd 41f0 	ldmia.w	sp!, {r4, r5, r6, r7, r8, lr}
   87698:	f000 b8a0 	b.w	877dc <_write_r>

0008769c <__sseek>:
   8769c:	b510      	push	{r4, lr}
   8769e:	460c      	mov	r4, r1
   876a0:	f9b1 100e 	ldrsh.w	r1, [r1, #14]
   876a4:	f000 f9aa 	bl	879fc <_lseek_r>
   876a8:	89a3      	ldrh	r3, [r4, #12]
   876aa:	1c42      	adds	r2, r0, #1
   876ac:	bf0e      	itee	eq
   876ae:	f423 5380 	biceq.w	r3, r3, #4096	; 0x1000
   876b2:	f443 5380 	orrne.w	r3, r3, #4096	; 0x1000
   876b6:	6520      	strne	r0, [r4, #80]	; 0x50
   876b8:	81a3      	strh	r3, [r4, #12]
   876ba:	bd10      	pop	{r4, pc}

000876bc <__sclose>:
   876bc:	f9b1 100e 	ldrsh.w	r1, [r1, #14]
   876c0:	f000 b922 	b.w	87908 <_close_r>

000876c4 <__swbuf_r>:
   876c4:	b570      	push	{r4, r5, r6, lr}
   876c6:	460d      	mov	r5, r1
   876c8:	4614      	mov	r4, r2
   876ca:	4606      	mov	r6, r0
   876cc:	b110      	cbz	r0, 876d4 <__swbuf_r+0x10>
   876ce:	6b83      	ldr	r3, [r0, #56]	; 0x38
   876d0:	2b00      	cmp	r3, #0
   876d2:	d048      	beq.n	87766 <__swbuf_r+0xa2>
   876d4:	89a2      	ldrh	r2, [r4, #12]
   876d6:	69a3      	ldr	r3, [r4, #24]
   876d8:	b291      	uxth	r1, r2
   876da:	0708      	lsls	r0, r1, #28
   876dc:	60a3      	str	r3, [r4, #8]
   876de:	d538      	bpl.n	87752 <__swbuf_r+0x8e>
   876e0:	6923      	ldr	r3, [r4, #16]
   876e2:	2b00      	cmp	r3, #0
   876e4:	d035      	beq.n	87752 <__swbuf_r+0x8e>
   876e6:	0489      	lsls	r1, r1, #18
   876e8:	b2ed      	uxtb	r5, r5
   876ea:	d515      	bpl.n	87718 <__swbuf_r+0x54>
   876ec:	6822      	ldr	r2, [r4, #0]
   876ee:	6961      	ldr	r1, [r4, #20]
   876f0:	1ad3      	subs	r3, r2, r3
   876f2:	428b      	cmp	r3, r1
   876f4:	da1c      	bge.n	87730 <__swbuf_r+0x6c>
   876f6:	3301      	adds	r3, #1
   876f8:	68a1      	ldr	r1, [r4, #8]
   876fa:	1c50      	adds	r0, r2, #1
   876fc:	3901      	subs	r1, #1
   876fe:	60a1      	str	r1, [r4, #8]
   87700:	6020      	str	r0, [r4, #0]
   87702:	7015      	strb	r5, [r2, #0]
   87704:	6962      	ldr	r2, [r4, #20]
   87706:	429a      	cmp	r2, r3
   87708:	d01a      	beq.n	87740 <__swbuf_r+0x7c>
   8770a:	89a3      	ldrh	r3, [r4, #12]
   8770c:	07db      	lsls	r3, r3, #31
   8770e:	d501      	bpl.n	87714 <__swbuf_r+0x50>
   87710:	2d0a      	cmp	r5, #10
   87712:	d015      	beq.n	87740 <__swbuf_r+0x7c>
   87714:	4628      	mov	r0, r5
   87716:	bd70      	pop	{r4, r5, r6, pc}
   87718:	6e61      	ldr	r1, [r4, #100]	; 0x64
   8771a:	f442 5200 	orr.w	r2, r2, #8192	; 0x2000
   8771e:	f421 5100 	bic.w	r1, r1, #8192	; 0x2000
   87722:	81a2      	strh	r2, [r4, #12]
   87724:	6822      	ldr	r2, [r4, #0]
   87726:	6661      	str	r1, [r4, #100]	; 0x64
   87728:	6961      	ldr	r1, [r4, #20]
   8772a:	1ad3      	subs	r3, r2, r3
   8772c:	428b      	cmp	r3, r1
   8772e:	dbe2      	blt.n	876f6 <__swbuf_r+0x32>
   87730:	4630      	mov	r0, r6
   87732:	4621      	mov	r1, r4
   87734:	f7fd fd12 	bl	8515c <_fflush_r>
   87738:	b940      	cbnz	r0, 8774c <__swbuf_r+0x88>
   8773a:	6822      	ldr	r2, [r4, #0]
   8773c:	2301      	movs	r3, #1
   8773e:	e7db      	b.n	876f8 <__swbuf_r+0x34>
   87740:	4630      	mov	r0, r6
   87742:	4621      	mov	r1, r4
   87744:	f7fd fd0a 	bl	8515c <_fflush_r>
   87748:	2800      	cmp	r0, #0
   8774a:	d0e3      	beq.n	87714 <__swbuf_r+0x50>
   8774c:	f04f 30ff 	mov.w	r0, #4294967295
   87750:	bd70      	pop	{r4, r5, r6, pc}
   87752:	4630      	mov	r0, r6
   87754:	4621      	mov	r1, r4
   87756:	f7fd fbeb 	bl	84f30 <__swsetup_r>
   8775a:	2800      	cmp	r0, #0
   8775c:	d1f6      	bne.n	8774c <__swbuf_r+0x88>
   8775e:	89a2      	ldrh	r2, [r4, #12]
   87760:	6923      	ldr	r3, [r4, #16]
   87762:	b291      	uxth	r1, r2
   87764:	e7bf      	b.n	876e6 <__swbuf_r+0x22>
   87766:	f7fd fd9f 	bl	852a8 <__sinit>
   8776a:	e7b3      	b.n	876d4 <__swbuf_r+0x10>

0008776c <_wcrtomb_r>:
   8776c:	e92d 41f0 	stmdb	sp!, {r4, r5, r6, r7, r8, lr}
   87770:	4605      	mov	r5, r0
   87772:	b086      	sub	sp, #24
   87774:	461e      	mov	r6, r3
   87776:	460c      	mov	r4, r1
   87778:	b1a1      	cbz	r1, 877a4 <_wcrtomb_r+0x38>
   8777a:	4b10      	ldr	r3, [pc, #64]	; (877bc <_wcrtomb_r+0x50>)
   8777c:	4617      	mov	r7, r2
   8777e:	f8d3 8000 	ldr.w	r8, [r3]
   87782:	f7fe fcb9 	bl	860f8 <__locale_charset>
   87786:	9600      	str	r6, [sp, #0]
   87788:	4603      	mov	r3, r0
   8778a:	4621      	mov	r1, r4
   8778c:	463a      	mov	r2, r7
   8778e:	4628      	mov	r0, r5
   87790:	47c0      	blx	r8
   87792:	1c43      	adds	r3, r0, #1
   87794:	d103      	bne.n	8779e <_wcrtomb_r+0x32>
   87796:	2200      	movs	r2, #0
   87798:	238a      	movs	r3, #138	; 0x8a
   8779a:	6032      	str	r2, [r6, #0]
   8779c:	602b      	str	r3, [r5, #0]
   8779e:	b006      	add	sp, #24
   877a0:	e8bd 81f0 	ldmia.w	sp!, {r4, r5, r6, r7, r8, pc}
   877a4:	4b05      	ldr	r3, [pc, #20]	; (877bc <_wcrtomb_r+0x50>)
   877a6:	681f      	ldr	r7, [r3, #0]
   877a8:	f7fe fca6 	bl	860f8 <__locale_charset>
   877ac:	9600      	str	r6, [sp, #0]
   877ae:	4603      	mov	r3, r0
   877b0:	4622      	mov	r2, r4
   877b2:	4628      	mov	r0, r5
   877b4:	a903      	add	r1, sp, #12
   877b6:	47b8      	blx	r7
   877b8:	e7eb      	b.n	87792 <_wcrtomb_r+0x26>
   877ba:	bf00      	nop
   877bc:	200709a4 	.word	0x200709a4

000877c0 <__ascii_wctomb>:
   877c0:	b121      	cbz	r1, 877cc <__ascii_wctomb+0xc>
   877c2:	2aff      	cmp	r2, #255	; 0xff
   877c4:	d804      	bhi.n	877d0 <__ascii_wctomb+0x10>
   877c6:	700a      	strb	r2, [r1, #0]
   877c8:	2001      	movs	r0, #1
   877ca:	4770      	bx	lr
   877cc:	4608      	mov	r0, r1
   877ce:	4770      	bx	lr
   877d0:	238a      	movs	r3, #138	; 0x8a
   877d2:	6003      	str	r3, [r0, #0]
   877d4:	f04f 30ff 	mov.w	r0, #4294967295
   877d8:	4770      	bx	lr
   877da:	bf00      	nop

000877dc <_write_r>:
   877dc:	b570      	push	{r4, r5, r6, lr}
   877de:	4c08      	ldr	r4, [pc, #32]	; (87800 <_write_r+0x24>)
   877e0:	4606      	mov	r6, r0
   877e2:	2500      	movs	r5, #0
   877e4:	4608      	mov	r0, r1
   877e6:	4611      	mov	r1, r2
   877e8:	461a      	mov	r2, r3
   877ea:	6025      	str	r5, [r4, #0]
   877ec:	f7fa f976 	bl	81adc <_write>
   877f0:	1c43      	adds	r3, r0, #1
   877f2:	d000      	beq.n	877f6 <_write_r+0x1a>
   877f4:	bd70      	pop	{r4, r5, r6, pc}
   877f6:	6823      	ldr	r3, [r4, #0]
   877f8:	2b00      	cmp	r3, #0
   877fa:	d0fb      	beq.n	877f4 <_write_r+0x18>
   877fc:	6033      	str	r3, [r6, #0]
   877fe:	bd70      	pop	{r4, r5, r6, pc}
   87800:	2007ae94 	.word	0x2007ae94

00087804 <__register_exitproc>:
   87804:	e92d 47f0 	stmdb	sp!, {r4, r5, r6, r7, r8, r9, sl, lr}
   87808:	4c25      	ldr	r4, [pc, #148]	; (878a0 <__register_exitproc+0x9c>)
   8780a:	4606      	mov	r6, r0
   8780c:	6825      	ldr	r5, [r4, #0]
   8780e:	4688      	mov	r8, r1
   87810:	f8d5 4148 	ldr.w	r4, [r5, #328]	; 0x148
   87814:	4692      	mov	sl, r2
   87816:	4699      	mov	r9, r3
   87818:	b3c4      	cbz	r4, 8788c <__register_exitproc+0x88>
   8781a:	6860      	ldr	r0, [r4, #4]
   8781c:	281f      	cmp	r0, #31
   8781e:	dc17      	bgt.n	87850 <__register_exitproc+0x4c>
   87820:	1c41      	adds	r1, r0, #1
   87822:	b176      	cbz	r6, 87842 <__register_exitproc+0x3e>
   87824:	eb04 0380 	add.w	r3, r4, r0, lsl #2
   87828:	f8c3 a088 	str.w	sl, [r3, #136]	; 0x88
   8782c:	f8d4 5188 	ldr.w	r5, [r4, #392]	; 0x188
   87830:	2201      	movs	r2, #1
   87832:	4082      	lsls	r2, r0
   87834:	4315      	orrs	r5, r2
   87836:	2e02      	cmp	r6, #2
   87838:	f8c4 5188 	str.w	r5, [r4, #392]	; 0x188
   8783c:	f8c3 9108 	str.w	r9, [r3, #264]	; 0x108
   87840:	d01e      	beq.n	87880 <__register_exitproc+0x7c>
   87842:	1c83      	adds	r3, r0, #2
   87844:	6061      	str	r1, [r4, #4]
   87846:	2000      	movs	r0, #0
   87848:	f844 8023 	str.w	r8, [r4, r3, lsl #2]
   8784c:	e8bd 87f0 	ldmia.w	sp!, {r4, r5, r6, r7, r8, r9, sl, pc}
   87850:	4b14      	ldr	r3, [pc, #80]	; (878a4 <__register_exitproc+0xa0>)
   87852:	b303      	cbz	r3, 87896 <__register_exitproc+0x92>
   87854:	f44f 70c8 	mov.w	r0, #400	; 0x190
   87858:	f7fe fccc 	bl	861f4 <malloc>
   8785c:	4604      	mov	r4, r0
   8785e:	b1d0      	cbz	r0, 87896 <__register_exitproc+0x92>
   87860:	f8d5 3148 	ldr.w	r3, [r5, #328]	; 0x148
   87864:	2700      	movs	r7, #0
   87866:	e884 0088 	stmia.w	r4, {r3, r7}
   8786a:	4638      	mov	r0, r7
   8786c:	f8c5 4148 	str.w	r4, [r5, #328]	; 0x148
   87870:	2101      	movs	r1, #1
   87872:	f8c4 7188 	str.w	r7, [r4, #392]	; 0x188
   87876:	f8c4 718c 	str.w	r7, [r4, #396]	; 0x18c
   8787a:	2e00      	cmp	r6, #0
   8787c:	d0e1      	beq.n	87842 <__register_exitproc+0x3e>
   8787e:	e7d1      	b.n	87824 <__register_exitproc+0x20>
   87880:	f8d4 318c 	ldr.w	r3, [r4, #396]	; 0x18c
   87884:	431a      	orrs	r2, r3
   87886:	f8c4 218c 	str.w	r2, [r4, #396]	; 0x18c
   8788a:	e7da      	b.n	87842 <__register_exitproc+0x3e>
   8788c:	f505 74a6 	add.w	r4, r5, #332	; 0x14c
   87890:	f8c5 4148 	str.w	r4, [r5, #328]	; 0x148
   87894:	e7c1      	b.n	8781a <__register_exitproc+0x16>
   87896:	f04f 30ff 	mov.w	r0, #4294967295
   8789a:	e8bd 87f0 	ldmia.w	sp!, {r4, r5, r6, r7, r8, r9, sl, pc}
   8789e:	bf00      	nop
   878a0:	00088988 	.word	0x00088988
   878a4:	000861f5 	.word	0x000861f5

000878a8 <_calloc_r>:
   878a8:	b510      	push	{r4, lr}
   878aa:	fb02 f101 	mul.w	r1, r2, r1
   878ae:	f7fe fca9 	bl	86204 <_malloc_r>
   878b2:	4604      	mov	r4, r0
   878b4:	b168      	cbz	r0, 878d2 <_calloc_r+0x2a>
   878b6:	f850 2c04 	ldr.w	r2, [r0, #-4]
   878ba:	f022 0203 	bic.w	r2, r2, #3
   878be:	3a04      	subs	r2, #4
   878c0:	2a24      	cmp	r2, #36	; 0x24
   878c2:	d818      	bhi.n	878f6 <_calloc_r+0x4e>
   878c4:	2a13      	cmp	r2, #19
   878c6:	d806      	bhi.n	878d6 <_calloc_r+0x2e>
   878c8:	4603      	mov	r3, r0
   878ca:	2200      	movs	r2, #0
   878cc:	601a      	str	r2, [r3, #0]
   878ce:	605a      	str	r2, [r3, #4]
   878d0:	609a      	str	r2, [r3, #8]
   878d2:	4620      	mov	r0, r4
   878d4:	bd10      	pop	{r4, pc}
   878d6:	2300      	movs	r3, #0
   878d8:	2a1b      	cmp	r2, #27
   878da:	6003      	str	r3, [r0, #0]
   878dc:	6043      	str	r3, [r0, #4]
   878de:	d90f      	bls.n	87900 <_calloc_r+0x58>
   878e0:	2a24      	cmp	r2, #36	; 0x24
   878e2:	6083      	str	r3, [r0, #8]
   878e4:	60c3      	str	r3, [r0, #12]
   878e6:	bf05      	ittet	eq
   878e8:	6103      	streq	r3, [r0, #16]
   878ea:	6143      	streq	r3, [r0, #20]
   878ec:	f100 0310 	addne.w	r3, r0, #16
   878f0:	f100 0318 	addeq.w	r3, r0, #24
   878f4:	e7e9      	b.n	878ca <_calloc_r+0x22>
   878f6:	2100      	movs	r1, #0
   878f8:	f7fb fa64 	bl	82dc4 <memset>
   878fc:	4620      	mov	r0, r4
   878fe:	bd10      	pop	{r4, pc}
   87900:	f100 0308 	add.w	r3, r0, #8
   87904:	e7e1      	b.n	878ca <_calloc_r+0x22>
   87906:	bf00      	nop

00087908 <_close_r>:
   87908:	b538      	push	{r3, r4, r5, lr}
   8790a:	4c07      	ldr	r4, [pc, #28]	; (87928 <_close_r+0x20>)
   8790c:	2300      	movs	r3, #0
   8790e:	4605      	mov	r5, r0
   87910:	4608      	mov	r0, r1
   87912:	6023      	str	r3, [r4, #0]
   87914:	f7fa fd9a 	bl	8244c <_close>
   87918:	1c43      	adds	r3, r0, #1
   8791a:	d000      	beq.n	8791e <_close_r+0x16>
   8791c:	bd38      	pop	{r3, r4, r5, pc}
   8791e:	6823      	ldr	r3, [r4, #0]
   87920:	2b00      	cmp	r3, #0
   87922:	d0fb      	beq.n	8791c <_close_r+0x14>
   87924:	602b      	str	r3, [r5, #0]
   87926:	bd38      	pop	{r3, r4, r5, pc}
   87928:	2007ae94 	.word	0x2007ae94

0008792c <_fclose_r>:
   8792c:	2900      	cmp	r1, #0
   8792e:	d03d      	beq.n	879ac <_fclose_r+0x80>
   87930:	b570      	push	{r4, r5, r6, lr}
   87932:	4605      	mov	r5, r0
   87934:	460c      	mov	r4, r1
   87936:	b108      	cbz	r0, 8793c <_fclose_r+0x10>
   87938:	6b83      	ldr	r3, [r0, #56]	; 0x38
   8793a:	b37b      	cbz	r3, 8799c <_fclose_r+0x70>
   8793c:	f9b4 300c 	ldrsh.w	r3, [r4, #12]
   87940:	b90b      	cbnz	r3, 87946 <_fclose_r+0x1a>
   87942:	2000      	movs	r0, #0
   87944:	bd70      	pop	{r4, r5, r6, pc}
   87946:	4628      	mov	r0, r5
   87948:	4621      	mov	r1, r4
   8794a:	f7fd fb63 	bl	85014 <__sflush_r>
   8794e:	6ae3      	ldr	r3, [r4, #44]	; 0x2c
   87950:	4606      	mov	r6, r0
   87952:	b133      	cbz	r3, 87962 <_fclose_r+0x36>
   87954:	4628      	mov	r0, r5
   87956:	69e1      	ldr	r1, [r4, #28]
   87958:	4798      	blx	r3
   8795a:	2800      	cmp	r0, #0
   8795c:	bfb8      	it	lt
   8795e:	f04f 36ff 	movlt.w	r6, #4294967295
   87962:	89a3      	ldrh	r3, [r4, #12]
   87964:	061b      	lsls	r3, r3, #24
   87966:	d41c      	bmi.n	879a2 <_fclose_r+0x76>
   87968:	6b21      	ldr	r1, [r4, #48]	; 0x30
   8796a:	b141      	cbz	r1, 8797e <_fclose_r+0x52>
   8796c:	f104 0340 	add.w	r3, r4, #64	; 0x40
   87970:	4299      	cmp	r1, r3
   87972:	d002      	beq.n	8797a <_fclose_r+0x4e>
   87974:	4628      	mov	r0, r5
   87976:	f7fd fd6f 	bl	85458 <_free_r>
   8797a:	2300      	movs	r3, #0
   8797c:	6323      	str	r3, [r4, #48]	; 0x30
   8797e:	6c61      	ldr	r1, [r4, #68]	; 0x44
   87980:	b121      	cbz	r1, 8798c <_fclose_r+0x60>
   87982:	4628      	mov	r0, r5
   87984:	f7fd fd68 	bl	85458 <_free_r>
   87988:	2300      	movs	r3, #0
   8798a:	6463      	str	r3, [r4, #68]	; 0x44
   8798c:	f7fd fc92 	bl	852b4 <__sfp_lock_acquire>
   87990:	2300      	movs	r3, #0
   87992:	81a3      	strh	r3, [r4, #12]
   87994:	f7fd fc90 	bl	852b8 <__sfp_lock_release>
   87998:	4630      	mov	r0, r6
   8799a:	bd70      	pop	{r4, r5, r6, pc}
   8799c:	f7fd fc84 	bl	852a8 <__sinit>
   879a0:	e7cc      	b.n	8793c <_fclose_r+0x10>
   879a2:	4628      	mov	r0, r5
   879a4:	6921      	ldr	r1, [r4, #16]
   879a6:	f7fd fd57 	bl	85458 <_free_r>
   879aa:	e7dd      	b.n	87968 <_fclose_r+0x3c>
   879ac:	2000      	movs	r0, #0
   879ae:	4770      	bx	lr

000879b0 <_fstat_r>:
   879b0:	b538      	push	{r3, r4, r5, lr}
   879b2:	4c08      	ldr	r4, [pc, #32]	; (879d4 <_fstat_r+0x24>)
   879b4:	2300      	movs	r3, #0
   879b6:	4605      	mov	r5, r0
   879b8:	4608      	mov	r0, r1
   879ba:	4611      	mov	r1, r2
   879bc:	6023      	str	r3, [r4, #0]
   879be:	f7fa fd48 	bl	82452 <_fstat>
   879c2:	1c43      	adds	r3, r0, #1
   879c4:	d000      	beq.n	879c8 <_fstat_r+0x18>
   879c6:	bd38      	pop	{r3, r4, r5, pc}
   879c8:	6823      	ldr	r3, [r4, #0]
   879ca:	2b00      	cmp	r3, #0
   879cc:	d0fb      	beq.n	879c6 <_fstat_r+0x16>
   879ce:	602b      	str	r3, [r5, #0]
   879d0:	bd38      	pop	{r3, r4, r5, pc}
   879d2:	bf00      	nop
   879d4:	2007ae94 	.word	0x2007ae94

000879d8 <_isatty_r>:
   879d8:	b538      	push	{r3, r4, r5, lr}
   879da:	4c07      	ldr	r4, [pc, #28]	; (879f8 <_isatty_r+0x20>)
   879dc:	2300      	movs	r3, #0
   879de:	4605      	mov	r5, r0
   879e0:	4608      	mov	r0, r1
   879e2:	6023      	str	r3, [r4, #0]
   879e4:	f7fa fd3a 	bl	8245c <_isatty>
   879e8:	1c43      	adds	r3, r0, #1
   879ea:	d000      	beq.n	879ee <_isatty_r+0x16>
   879ec:	bd38      	pop	{r3, r4, r5, pc}
   879ee:	6823      	ldr	r3, [r4, #0]
   879f0:	2b00      	cmp	r3, #0
   879f2:	d0fb      	beq.n	879ec <_isatty_r+0x14>
   879f4:	602b      	str	r3, [r5, #0]
   879f6:	bd38      	pop	{r3, r4, r5, pc}
   879f8:	2007ae94 	.word	0x2007ae94

000879fc <_lseek_r>:
   879fc:	b570      	push	{r4, r5, r6, lr}
   879fe:	4c08      	ldr	r4, [pc, #32]	; (87a20 <_lseek_r+0x24>)
   87a00:	4606      	mov	r6, r0
   87a02:	2500      	movs	r5, #0
   87a04:	4608      	mov	r0, r1
   87a06:	4611      	mov	r1, r2
   87a08:	461a      	mov	r2, r3
   87a0a:	6025      	str	r5, [r4, #0]
   87a0c:	f7fa fd28 	bl	82460 <_lseek>
   87a10:	1c43      	adds	r3, r0, #1
   87a12:	d000      	beq.n	87a16 <_lseek_r+0x1a>
   87a14:	bd70      	pop	{r4, r5, r6, pc}
   87a16:	6823      	ldr	r3, [r4, #0]
   87a18:	2b00      	cmp	r3, #0
   87a1a:	d0fb      	beq.n	87a14 <_lseek_r+0x18>
   87a1c:	6033      	str	r3, [r6, #0]
   87a1e:	bd70      	pop	{r4, r5, r6, pc}
   87a20:	2007ae94 	.word	0x2007ae94

00087a24 <_read_r>:
   87a24:	b570      	push	{r4, r5, r6, lr}
   87a26:	4c08      	ldr	r4, [pc, #32]	; (87a48 <_read_r+0x24>)
   87a28:	4606      	mov	r6, r0
   87a2a:	2500      	movs	r5, #0
   87a2c:	4608      	mov	r0, r1
   87a2e:	4611      	mov	r1, r2
   87a30:	461a      	mov	r2, r3
   87a32:	6025      	str	r5, [r4, #0]
   87a34:	f7f8 fbbe 	bl	801b4 <_read>
   87a38:	1c43      	adds	r3, r0, #1
   87a3a:	d000      	beq.n	87a3e <_read_r+0x1a>
   87a3c:	bd70      	pop	{r4, r5, r6, pc}
   87a3e:	6823      	ldr	r3, [r4, #0]
   87a40:	2b00      	cmp	r3, #0
   87a42:	d0fb      	beq.n	87a3c <_read_r+0x18>
   87a44:	6033      	str	r3, [r6, #0]
   87a46:	bd70      	pop	{r4, r5, r6, pc}
   87a48:	2007ae94 	.word	0x2007ae94

00087a4c <__aeabi_drsub>:
   87a4c:	f081 4100 	eor.w	r1, r1, #2147483648	; 0x80000000
   87a50:	e002      	b.n	87a58 <__adddf3>
   87a52:	bf00      	nop

00087a54 <__aeabi_dsub>:
   87a54:	f083 4300 	eor.w	r3, r3, #2147483648	; 0x80000000

00087a58 <__adddf3>:
   87a58:	b530      	push	{r4, r5, lr}
   87a5a:	ea4f 0441 	mov.w	r4, r1, lsl #1
   87a5e:	ea4f 0543 	mov.w	r5, r3, lsl #1
   87a62:	ea94 0f05 	teq	r4, r5
   87a66:	bf08      	it	eq
   87a68:	ea90 0f02 	teqeq	r0, r2
   87a6c:	bf1f      	itttt	ne
   87a6e:	ea54 0c00 	orrsne.w	ip, r4, r0
   87a72:	ea55 0c02 	orrsne.w	ip, r5, r2
   87a76:	ea7f 5c64 	mvnsne.w	ip, r4, asr #21
   87a7a:	ea7f 5c65 	mvnsne.w	ip, r5, asr #21
   87a7e:	f000 80e2 	beq.w	87c46 <__adddf3+0x1ee>
   87a82:	ea4f 5454 	mov.w	r4, r4, lsr #21
   87a86:	ebd4 5555 	rsbs	r5, r4, r5, lsr #21
   87a8a:	bfb8      	it	lt
   87a8c:	426d      	neglt	r5, r5
   87a8e:	dd0c      	ble.n	87aaa <__adddf3+0x52>
   87a90:	442c      	add	r4, r5
   87a92:	ea80 0202 	eor.w	r2, r0, r2
   87a96:	ea81 0303 	eor.w	r3, r1, r3
   87a9a:	ea82 0000 	eor.w	r0, r2, r0
   87a9e:	ea83 0101 	eor.w	r1, r3, r1
   87aa2:	ea80 0202 	eor.w	r2, r0, r2
   87aa6:	ea81 0303 	eor.w	r3, r1, r3
   87aaa:	2d36      	cmp	r5, #54	; 0x36
   87aac:	bf88      	it	hi
   87aae:	bd30      	pophi	{r4, r5, pc}
   87ab0:	f011 4f00 	tst.w	r1, #2147483648	; 0x80000000
   87ab4:	ea4f 3101 	mov.w	r1, r1, lsl #12
   87ab8:	f44f 1c80 	mov.w	ip, #1048576	; 0x100000
   87abc:	ea4c 3111 	orr.w	r1, ip, r1, lsr #12
   87ac0:	d002      	beq.n	87ac8 <__adddf3+0x70>
   87ac2:	4240      	negs	r0, r0
   87ac4:	eb61 0141 	sbc.w	r1, r1, r1, lsl #1
   87ac8:	f013 4f00 	tst.w	r3, #2147483648	; 0x80000000
   87acc:	ea4f 3303 	mov.w	r3, r3, lsl #12
   87ad0:	ea4c 3313 	orr.w	r3, ip, r3, lsr #12
   87ad4:	d002      	beq.n	87adc <__adddf3+0x84>
   87ad6:	4252      	negs	r2, r2
   87ad8:	eb63 0343 	sbc.w	r3, r3, r3, lsl #1
   87adc:	ea94 0f05 	teq	r4, r5
   87ae0:	f000 80a7 	beq.w	87c32 <__adddf3+0x1da>
   87ae4:	f1a4 0401 	sub.w	r4, r4, #1
   87ae8:	f1d5 0e20 	rsbs	lr, r5, #32
   87aec:	db0d      	blt.n	87b0a <__adddf3+0xb2>
   87aee:	fa02 fc0e 	lsl.w	ip, r2, lr
   87af2:	fa22 f205 	lsr.w	r2, r2, r5
   87af6:	1880      	adds	r0, r0, r2
   87af8:	f141 0100 	adc.w	r1, r1, #0
   87afc:	fa03 f20e 	lsl.w	r2, r3, lr
   87b00:	1880      	adds	r0, r0, r2
   87b02:	fa43 f305 	asr.w	r3, r3, r5
   87b06:	4159      	adcs	r1, r3
   87b08:	e00e      	b.n	87b28 <__adddf3+0xd0>
   87b0a:	f1a5 0520 	sub.w	r5, r5, #32
   87b0e:	f10e 0e20 	add.w	lr, lr, #32
   87b12:	2a01      	cmp	r2, #1
   87b14:	fa03 fc0e 	lsl.w	ip, r3, lr
   87b18:	bf28      	it	cs
   87b1a:	f04c 0c02 	orrcs.w	ip, ip, #2
   87b1e:	fa43 f305 	asr.w	r3, r3, r5
   87b22:	18c0      	adds	r0, r0, r3
   87b24:	eb51 71e3 	adcs.w	r1, r1, r3, asr #31
   87b28:	f001 4500 	and.w	r5, r1, #2147483648	; 0x80000000
   87b2c:	d507      	bpl.n	87b3e <__adddf3+0xe6>
   87b2e:	f04f 0e00 	mov.w	lr, #0
   87b32:	f1dc 0c00 	rsbs	ip, ip, #0
   87b36:	eb7e 0000 	sbcs.w	r0, lr, r0
   87b3a:	eb6e 0101 	sbc.w	r1, lr, r1
   87b3e:	f5b1 1f80 	cmp.w	r1, #1048576	; 0x100000
   87b42:	d31b      	bcc.n	87b7c <__adddf3+0x124>
   87b44:	f5b1 1f00 	cmp.w	r1, #2097152	; 0x200000
   87b48:	d30c      	bcc.n	87b64 <__adddf3+0x10c>
   87b4a:	0849      	lsrs	r1, r1, #1
   87b4c:	ea5f 0030 	movs.w	r0, r0, rrx
   87b50:	ea4f 0c3c 	mov.w	ip, ip, rrx
   87b54:	f104 0401 	add.w	r4, r4, #1
   87b58:	ea4f 5244 	mov.w	r2, r4, lsl #21
   87b5c:	f512 0f80 	cmn.w	r2, #4194304	; 0x400000
   87b60:	f080 809a 	bcs.w	87c98 <__adddf3+0x240>
   87b64:	f1bc 4f00 	cmp.w	ip, #2147483648	; 0x80000000
   87b68:	bf08      	it	eq
   87b6a:	ea5f 0c50 	movseq.w	ip, r0, lsr #1
   87b6e:	f150 0000 	adcs.w	r0, r0, #0
   87b72:	eb41 5104 	adc.w	r1, r1, r4, lsl #20
   87b76:	ea41 0105 	orr.w	r1, r1, r5
   87b7a:	bd30      	pop	{r4, r5, pc}
   87b7c:	ea5f 0c4c 	movs.w	ip, ip, lsl #1
   87b80:	4140      	adcs	r0, r0
   87b82:	eb41 0101 	adc.w	r1, r1, r1
   87b86:	f411 1f80 	tst.w	r1, #1048576	; 0x100000
   87b8a:	f1a4 0401 	sub.w	r4, r4, #1
   87b8e:	d1e9      	bne.n	87b64 <__adddf3+0x10c>
   87b90:	f091 0f00 	teq	r1, #0
   87b94:	bf04      	itt	eq
   87b96:	4601      	moveq	r1, r0
   87b98:	2000      	moveq	r0, #0
   87b9a:	fab1 f381 	clz	r3, r1
   87b9e:	bf08      	it	eq
   87ba0:	3320      	addeq	r3, #32
   87ba2:	f1a3 030b 	sub.w	r3, r3, #11
   87ba6:	f1b3 0220 	subs.w	r2, r3, #32
   87baa:	da0c      	bge.n	87bc6 <__adddf3+0x16e>
   87bac:	320c      	adds	r2, #12
   87bae:	dd08      	ble.n	87bc2 <__adddf3+0x16a>
   87bb0:	f102 0c14 	add.w	ip, r2, #20
   87bb4:	f1c2 020c 	rsb	r2, r2, #12
   87bb8:	fa01 f00c 	lsl.w	r0, r1, ip
   87bbc:	fa21 f102 	lsr.w	r1, r1, r2
   87bc0:	e00c      	b.n	87bdc <__adddf3+0x184>
   87bc2:	f102 0214 	add.w	r2, r2, #20
   87bc6:	bfd8      	it	le
   87bc8:	f1c2 0c20 	rsble	ip, r2, #32
   87bcc:	fa01 f102 	lsl.w	r1, r1, r2
   87bd0:	fa20 fc0c 	lsr.w	ip, r0, ip
   87bd4:	bfdc      	itt	le
   87bd6:	ea41 010c 	orrle.w	r1, r1, ip
   87bda:	4090      	lslle	r0, r2
   87bdc:	1ae4      	subs	r4, r4, r3
   87bde:	bfa2      	ittt	ge
   87be0:	eb01 5104 	addge.w	r1, r1, r4, lsl #20
   87be4:	4329      	orrge	r1, r5
   87be6:	bd30      	popge	{r4, r5, pc}
   87be8:	ea6f 0404 	mvn.w	r4, r4
   87bec:	3c1f      	subs	r4, #31
   87bee:	da1c      	bge.n	87c2a <__adddf3+0x1d2>
   87bf0:	340c      	adds	r4, #12
   87bf2:	dc0e      	bgt.n	87c12 <__adddf3+0x1ba>
   87bf4:	f104 0414 	add.w	r4, r4, #20
   87bf8:	f1c4 0220 	rsb	r2, r4, #32
   87bfc:	fa20 f004 	lsr.w	r0, r0, r4
   87c00:	fa01 f302 	lsl.w	r3, r1, r2
   87c04:	ea40 0003 	orr.w	r0, r0, r3
   87c08:	fa21 f304 	lsr.w	r3, r1, r4
   87c0c:	ea45 0103 	orr.w	r1, r5, r3
   87c10:	bd30      	pop	{r4, r5, pc}
   87c12:	f1c4 040c 	rsb	r4, r4, #12
   87c16:	f1c4 0220 	rsb	r2, r4, #32
   87c1a:	fa20 f002 	lsr.w	r0, r0, r2
   87c1e:	fa01 f304 	lsl.w	r3, r1, r4
   87c22:	ea40 0003 	orr.w	r0, r0, r3
   87c26:	4629      	mov	r1, r5
   87c28:	bd30      	pop	{r4, r5, pc}
   87c2a:	fa21 f004 	lsr.w	r0, r1, r4
   87c2e:	4629      	mov	r1, r5
   87c30:	bd30      	pop	{r4, r5, pc}
   87c32:	f094 0f00 	teq	r4, #0
   87c36:	f483 1380 	eor.w	r3, r3, #1048576	; 0x100000
   87c3a:	bf06      	itte	eq
   87c3c:	f481 1180 	eoreq.w	r1, r1, #1048576	; 0x100000
   87c40:	3401      	addeq	r4, #1
   87c42:	3d01      	subne	r5, #1
   87c44:	e74e      	b.n	87ae4 <__adddf3+0x8c>
   87c46:	ea7f 5c64 	mvns.w	ip, r4, asr #21
   87c4a:	bf18      	it	ne
   87c4c:	ea7f 5c65 	mvnsne.w	ip, r5, asr #21
   87c50:	d029      	beq.n	87ca6 <__adddf3+0x24e>
   87c52:	ea94 0f05 	teq	r4, r5
   87c56:	bf08      	it	eq
   87c58:	ea90 0f02 	teqeq	r0, r2
   87c5c:	d005      	beq.n	87c6a <__adddf3+0x212>
   87c5e:	ea54 0c00 	orrs.w	ip, r4, r0
   87c62:	bf04      	itt	eq
   87c64:	4619      	moveq	r1, r3
   87c66:	4610      	moveq	r0, r2
   87c68:	bd30      	pop	{r4, r5, pc}
   87c6a:	ea91 0f03 	teq	r1, r3
   87c6e:	bf1e      	ittt	ne
   87c70:	2100      	movne	r1, #0
   87c72:	2000      	movne	r0, #0
   87c74:	bd30      	popne	{r4, r5, pc}
   87c76:	ea5f 5c54 	movs.w	ip, r4, lsr #21
   87c7a:	d105      	bne.n	87c88 <__adddf3+0x230>
   87c7c:	0040      	lsls	r0, r0, #1
   87c7e:	4149      	adcs	r1, r1
   87c80:	bf28      	it	cs
   87c82:	f041 4100 	orrcs.w	r1, r1, #2147483648	; 0x80000000
   87c86:	bd30      	pop	{r4, r5, pc}
   87c88:	f514 0480 	adds.w	r4, r4, #4194304	; 0x400000
   87c8c:	bf3c      	itt	cc
   87c8e:	f501 1180 	addcc.w	r1, r1, #1048576	; 0x100000
   87c92:	bd30      	popcc	{r4, r5, pc}
   87c94:	f001 4500 	and.w	r5, r1, #2147483648	; 0x80000000
   87c98:	f045 41fe 	orr.w	r1, r5, #2130706432	; 0x7f000000
   87c9c:	f441 0170 	orr.w	r1, r1, #15728640	; 0xf00000
   87ca0:	f04f 0000 	mov.w	r0, #0
   87ca4:	bd30      	pop	{r4, r5, pc}
   87ca6:	ea7f 5c64 	mvns.w	ip, r4, asr #21
   87caa:	bf1a      	itte	ne
   87cac:	4619      	movne	r1, r3
   87cae:	4610      	movne	r0, r2
   87cb0:	ea7f 5c65 	mvnseq.w	ip, r5, asr #21
   87cb4:	bf1c      	itt	ne
   87cb6:	460b      	movne	r3, r1
   87cb8:	4602      	movne	r2, r0
   87cba:	ea50 3401 	orrs.w	r4, r0, r1, lsl #12
   87cbe:	bf06      	itte	eq
   87cc0:	ea52 3503 	orrseq.w	r5, r2, r3, lsl #12
   87cc4:	ea91 0f03 	teqeq	r1, r3
   87cc8:	f441 2100 	orrne.w	r1, r1, #524288	; 0x80000
   87ccc:	bd30      	pop	{r4, r5, pc}
   87cce:	bf00      	nop

00087cd0 <__aeabi_ui2d>:
   87cd0:	f090 0f00 	teq	r0, #0
   87cd4:	bf04      	itt	eq
   87cd6:	2100      	moveq	r1, #0
   87cd8:	4770      	bxeq	lr
   87cda:	b530      	push	{r4, r5, lr}
   87cdc:	f44f 6480 	mov.w	r4, #1024	; 0x400
   87ce0:	f104 0432 	add.w	r4, r4, #50	; 0x32
   87ce4:	f04f 0500 	mov.w	r5, #0
   87ce8:	f04f 0100 	mov.w	r1, #0
   87cec:	e750      	b.n	87b90 <__adddf3+0x138>
   87cee:	bf00      	nop

00087cf0 <__aeabi_i2d>:
   87cf0:	f090 0f00 	teq	r0, #0
   87cf4:	bf04      	itt	eq
   87cf6:	2100      	moveq	r1, #0
   87cf8:	4770      	bxeq	lr
   87cfa:	b530      	push	{r4, r5, lr}
   87cfc:	f44f 6480 	mov.w	r4, #1024	; 0x400
   87d00:	f104 0432 	add.w	r4, r4, #50	; 0x32
   87d04:	f010 4500 	ands.w	r5, r0, #2147483648	; 0x80000000
   87d08:	bf48      	it	mi
   87d0a:	4240      	negmi	r0, r0
   87d0c:	f04f 0100 	mov.w	r1, #0
   87d10:	e73e      	b.n	87b90 <__adddf3+0x138>
   87d12:	bf00      	nop

00087d14 <__aeabi_f2d>:
   87d14:	0042      	lsls	r2, r0, #1
   87d16:	ea4f 01e2 	mov.w	r1, r2, asr #3
   87d1a:	ea4f 0131 	mov.w	r1, r1, rrx
   87d1e:	ea4f 7002 	mov.w	r0, r2, lsl #28
   87d22:	bf1f      	itttt	ne
   87d24:	f012 437f 	andsne.w	r3, r2, #4278190080	; 0xff000000
   87d28:	f093 4f7f 	teqne	r3, #4278190080	; 0xff000000
   87d2c:	f081 5160 	eorne.w	r1, r1, #939524096	; 0x38000000
   87d30:	4770      	bxne	lr
   87d32:	f092 0f00 	teq	r2, #0
   87d36:	bf14      	ite	ne
   87d38:	f093 4f7f 	teqne	r3, #4278190080	; 0xff000000
   87d3c:	4770      	bxeq	lr
   87d3e:	b530      	push	{r4, r5, lr}
   87d40:	f44f 7460 	mov.w	r4, #896	; 0x380
   87d44:	f001 4500 	and.w	r5, r1, #2147483648	; 0x80000000
   87d48:	f021 4100 	bic.w	r1, r1, #2147483648	; 0x80000000
   87d4c:	e720      	b.n	87b90 <__adddf3+0x138>
   87d4e:	bf00      	nop

00087d50 <__aeabi_ul2d>:
   87d50:	ea50 0201 	orrs.w	r2, r0, r1
   87d54:	bf08      	it	eq
   87d56:	4770      	bxeq	lr
   87d58:	b530      	push	{r4, r5, lr}
   87d5a:	f04f 0500 	mov.w	r5, #0
   87d5e:	e00a      	b.n	87d76 <__aeabi_l2d+0x16>

00087d60 <__aeabi_l2d>:
   87d60:	ea50 0201 	orrs.w	r2, r0, r1
   87d64:	bf08      	it	eq
   87d66:	4770      	bxeq	lr
   87d68:	b530      	push	{r4, r5, lr}
   87d6a:	f011 4500 	ands.w	r5, r1, #2147483648	; 0x80000000
   87d6e:	d502      	bpl.n	87d76 <__aeabi_l2d+0x16>
   87d70:	4240      	negs	r0, r0
   87d72:	eb61 0141 	sbc.w	r1, r1, r1, lsl #1
   87d76:	f44f 6480 	mov.w	r4, #1024	; 0x400
   87d7a:	f104 0432 	add.w	r4, r4, #50	; 0x32
   87d7e:	ea5f 5c91 	movs.w	ip, r1, lsr #22
   87d82:	f43f aedc 	beq.w	87b3e <__adddf3+0xe6>
   87d86:	f04f 0203 	mov.w	r2, #3
   87d8a:	ea5f 0cdc 	movs.w	ip, ip, lsr #3
   87d8e:	bf18      	it	ne
   87d90:	3203      	addne	r2, #3
   87d92:	ea5f 0cdc 	movs.w	ip, ip, lsr #3
   87d96:	bf18      	it	ne
   87d98:	3203      	addne	r2, #3
   87d9a:	eb02 02dc 	add.w	r2, r2, ip, lsr #3
   87d9e:	f1c2 0320 	rsb	r3, r2, #32
   87da2:	fa00 fc03 	lsl.w	ip, r0, r3
   87da6:	fa20 f002 	lsr.w	r0, r0, r2
   87daa:	fa01 fe03 	lsl.w	lr, r1, r3
   87dae:	ea40 000e 	orr.w	r0, r0, lr
   87db2:	fa21 f102 	lsr.w	r1, r1, r2
   87db6:	4414      	add	r4, r2
   87db8:	e6c1      	b.n	87b3e <__adddf3+0xe6>
   87dba:	bf00      	nop

00087dbc <__aeabi_dmul>:
   87dbc:	b570      	push	{r4, r5, r6, lr}
   87dbe:	f04f 0cff 	mov.w	ip, #255	; 0xff
   87dc2:	f44c 6ce0 	orr.w	ip, ip, #1792	; 0x700
   87dc6:	ea1c 5411 	ands.w	r4, ip, r1, lsr #20
   87dca:	bf1d      	ittte	ne
   87dcc:	ea1c 5513 	andsne.w	r5, ip, r3, lsr #20
   87dd0:	ea94 0f0c 	teqne	r4, ip
   87dd4:	ea95 0f0c 	teqne	r5, ip
   87dd8:	f000 f8de 	bleq	87f98 <__aeabi_dmul+0x1dc>
   87ddc:	442c      	add	r4, r5
   87dde:	ea81 0603 	eor.w	r6, r1, r3
   87de2:	ea21 514c 	bic.w	r1, r1, ip, lsl #21
   87de6:	ea23 534c 	bic.w	r3, r3, ip, lsl #21
   87dea:	ea50 3501 	orrs.w	r5, r0, r1, lsl #12
   87dee:	bf18      	it	ne
   87df0:	ea52 3503 	orrsne.w	r5, r2, r3, lsl #12
   87df4:	f441 1180 	orr.w	r1, r1, #1048576	; 0x100000
   87df8:	f443 1380 	orr.w	r3, r3, #1048576	; 0x100000
   87dfc:	d038      	beq.n	87e70 <__aeabi_dmul+0xb4>
   87dfe:	fba0 ce02 	umull	ip, lr, r0, r2
   87e02:	f04f 0500 	mov.w	r5, #0
   87e06:	fbe1 e502 	umlal	lr, r5, r1, r2
   87e0a:	f006 4200 	and.w	r2, r6, #2147483648	; 0x80000000
   87e0e:	fbe0 e503 	umlal	lr, r5, r0, r3
   87e12:	f04f 0600 	mov.w	r6, #0
   87e16:	fbe1 5603 	umlal	r5, r6, r1, r3
   87e1a:	f09c 0f00 	teq	ip, #0
   87e1e:	bf18      	it	ne
   87e20:	f04e 0e01 	orrne.w	lr, lr, #1
   87e24:	f1a4 04ff 	sub.w	r4, r4, #255	; 0xff
   87e28:	f5b6 7f00 	cmp.w	r6, #512	; 0x200
   87e2c:	f564 7440 	sbc.w	r4, r4, #768	; 0x300
   87e30:	d204      	bcs.n	87e3c <__aeabi_dmul+0x80>
   87e32:	ea5f 0e4e 	movs.w	lr, lr, lsl #1
   87e36:	416d      	adcs	r5, r5
   87e38:	eb46 0606 	adc.w	r6, r6, r6
   87e3c:	ea42 21c6 	orr.w	r1, r2, r6, lsl #11
   87e40:	ea41 5155 	orr.w	r1, r1, r5, lsr #21
   87e44:	ea4f 20c5 	mov.w	r0, r5, lsl #11
   87e48:	ea40 505e 	orr.w	r0, r0, lr, lsr #21
   87e4c:	ea4f 2ece 	mov.w	lr, lr, lsl #11
   87e50:	f1b4 0cfd 	subs.w	ip, r4, #253	; 0xfd
   87e54:	bf88      	it	hi
   87e56:	f5bc 6fe0 	cmphi.w	ip, #1792	; 0x700
   87e5a:	d81e      	bhi.n	87e9a <__aeabi_dmul+0xde>
   87e5c:	f1be 4f00 	cmp.w	lr, #2147483648	; 0x80000000
   87e60:	bf08      	it	eq
   87e62:	ea5f 0e50 	movseq.w	lr, r0, lsr #1
   87e66:	f150 0000 	adcs.w	r0, r0, #0
   87e6a:	eb41 5104 	adc.w	r1, r1, r4, lsl #20
   87e6e:	bd70      	pop	{r4, r5, r6, pc}
   87e70:	f006 4600 	and.w	r6, r6, #2147483648	; 0x80000000
   87e74:	ea46 0101 	orr.w	r1, r6, r1
   87e78:	ea40 0002 	orr.w	r0, r0, r2
   87e7c:	ea81 0103 	eor.w	r1, r1, r3
   87e80:	ebb4 045c 	subs.w	r4, r4, ip, lsr #1
   87e84:	bfc2      	ittt	gt
   87e86:	ebd4 050c 	rsbsgt	r5, r4, ip
   87e8a:	ea41 5104 	orrgt.w	r1, r1, r4, lsl #20
   87e8e:	bd70      	popgt	{r4, r5, r6, pc}
   87e90:	f441 1180 	orr.w	r1, r1, #1048576	; 0x100000
   87e94:	f04f 0e00 	mov.w	lr, #0
   87e98:	3c01      	subs	r4, #1
   87e9a:	f300 80ab 	bgt.w	87ff4 <__aeabi_dmul+0x238>
   87e9e:	f114 0f36 	cmn.w	r4, #54	; 0x36
   87ea2:	bfde      	ittt	le
   87ea4:	2000      	movle	r0, #0
   87ea6:	f001 4100 	andle.w	r1, r1, #2147483648	; 0x80000000
   87eaa:	bd70      	pople	{r4, r5, r6, pc}
   87eac:	f1c4 0400 	rsb	r4, r4, #0
   87eb0:	3c20      	subs	r4, #32
   87eb2:	da35      	bge.n	87f20 <__aeabi_dmul+0x164>
   87eb4:	340c      	adds	r4, #12
   87eb6:	dc1b      	bgt.n	87ef0 <__aeabi_dmul+0x134>
   87eb8:	f104 0414 	add.w	r4, r4, #20
   87ebc:	f1c4 0520 	rsb	r5, r4, #32
   87ec0:	fa00 f305 	lsl.w	r3, r0, r5
   87ec4:	fa20 f004 	lsr.w	r0, r0, r4
   87ec8:	fa01 f205 	lsl.w	r2, r1, r5
   87ecc:	ea40 0002 	orr.w	r0, r0, r2
   87ed0:	f001 4200 	and.w	r2, r1, #2147483648	; 0x80000000
   87ed4:	f021 4100 	bic.w	r1, r1, #2147483648	; 0x80000000
   87ed8:	eb10 70d3 	adds.w	r0, r0, r3, lsr #31
   87edc:	fa21 f604 	lsr.w	r6, r1, r4
   87ee0:	eb42 0106 	adc.w	r1, r2, r6
   87ee4:	ea5e 0e43 	orrs.w	lr, lr, r3, lsl #1
   87ee8:	bf08      	it	eq
   87eea:	ea20 70d3 	biceq.w	r0, r0, r3, lsr #31
   87eee:	bd70      	pop	{r4, r5, r6, pc}
   87ef0:	f1c4 040c 	rsb	r4, r4, #12
   87ef4:	f1c4 0520 	rsb	r5, r4, #32
   87ef8:	fa00 f304 	lsl.w	r3, r0, r4
   87efc:	fa20 f005 	lsr.w	r0, r0, r5
   87f00:	fa01 f204 	lsl.w	r2, r1, r4
   87f04:	ea40 0002 	orr.w	r0, r0, r2
   87f08:	f001 4100 	and.w	r1, r1, #2147483648	; 0x80000000
   87f0c:	eb10 70d3 	adds.w	r0, r0, r3, lsr #31
   87f10:	f141 0100 	adc.w	r1, r1, #0
   87f14:	ea5e 0e43 	orrs.w	lr, lr, r3, lsl #1
   87f18:	bf08      	it	eq
   87f1a:	ea20 70d3 	biceq.w	r0, r0, r3, lsr #31
   87f1e:	bd70      	pop	{r4, r5, r6, pc}
   87f20:	f1c4 0520 	rsb	r5, r4, #32
   87f24:	fa00 f205 	lsl.w	r2, r0, r5
   87f28:	ea4e 0e02 	orr.w	lr, lr, r2
   87f2c:	fa20 f304 	lsr.w	r3, r0, r4
   87f30:	fa01 f205 	lsl.w	r2, r1, r5
   87f34:	ea43 0302 	orr.w	r3, r3, r2
   87f38:	fa21 f004 	lsr.w	r0, r1, r4
   87f3c:	f001 4100 	and.w	r1, r1, #2147483648	; 0x80000000
   87f40:	fa21 f204 	lsr.w	r2, r1, r4
   87f44:	ea20 0002 	bic.w	r0, r0, r2
   87f48:	eb00 70d3 	add.w	r0, r0, r3, lsr #31
   87f4c:	ea5e 0e43 	orrs.w	lr, lr, r3, lsl #1
   87f50:	bf08      	it	eq
   87f52:	ea20 70d3 	biceq.w	r0, r0, r3, lsr #31
   87f56:	bd70      	pop	{r4, r5, r6, pc}
   87f58:	f094 0f00 	teq	r4, #0
   87f5c:	d10f      	bne.n	87f7e <__aeabi_dmul+0x1c2>
   87f5e:	f001 4600 	and.w	r6, r1, #2147483648	; 0x80000000
   87f62:	0040      	lsls	r0, r0, #1
   87f64:	eb41 0101 	adc.w	r1, r1, r1
   87f68:	f411 1f80 	tst.w	r1, #1048576	; 0x100000
   87f6c:	bf08      	it	eq
   87f6e:	3c01      	subeq	r4, #1
   87f70:	d0f7      	beq.n	87f62 <__aeabi_dmul+0x1a6>
   87f72:	ea41 0106 	orr.w	r1, r1, r6
   87f76:	f095 0f00 	teq	r5, #0
   87f7a:	bf18      	it	ne
   87f7c:	4770      	bxne	lr
   87f7e:	f003 4600 	and.w	r6, r3, #2147483648	; 0x80000000
   87f82:	0052      	lsls	r2, r2, #1
   87f84:	eb43 0303 	adc.w	r3, r3, r3
   87f88:	f413 1f80 	tst.w	r3, #1048576	; 0x100000
   87f8c:	bf08      	it	eq
   87f8e:	3d01      	subeq	r5, #1
   87f90:	d0f7      	beq.n	87f82 <__aeabi_dmul+0x1c6>
   87f92:	ea43 0306 	orr.w	r3, r3, r6
   87f96:	4770      	bx	lr
   87f98:	ea94 0f0c 	teq	r4, ip
   87f9c:	ea0c 5513 	and.w	r5, ip, r3, lsr #20
   87fa0:	bf18      	it	ne
   87fa2:	ea95 0f0c 	teqne	r5, ip
   87fa6:	d00c      	beq.n	87fc2 <__aeabi_dmul+0x206>
   87fa8:	ea50 0641 	orrs.w	r6, r0, r1, lsl #1
   87fac:	bf18      	it	ne
   87fae:	ea52 0643 	orrsne.w	r6, r2, r3, lsl #1
   87fb2:	d1d1      	bne.n	87f58 <__aeabi_dmul+0x19c>
   87fb4:	ea81 0103 	eor.w	r1, r1, r3
   87fb8:	f001 4100 	and.w	r1, r1, #2147483648	; 0x80000000
   87fbc:	f04f 0000 	mov.w	r0, #0
   87fc0:	bd70      	pop	{r4, r5, r6, pc}
   87fc2:	ea50 0641 	orrs.w	r6, r0, r1, lsl #1
   87fc6:	bf06      	itte	eq
   87fc8:	4610      	moveq	r0, r2
   87fca:	4619      	moveq	r1, r3
   87fcc:	ea52 0643 	orrsne.w	r6, r2, r3, lsl #1
   87fd0:	d019      	beq.n	88006 <__aeabi_dmul+0x24a>
   87fd2:	ea94 0f0c 	teq	r4, ip
   87fd6:	d102      	bne.n	87fde <__aeabi_dmul+0x222>
   87fd8:	ea50 3601 	orrs.w	r6, r0, r1, lsl #12
   87fdc:	d113      	bne.n	88006 <__aeabi_dmul+0x24a>
   87fde:	ea95 0f0c 	teq	r5, ip
   87fe2:	d105      	bne.n	87ff0 <__aeabi_dmul+0x234>
   87fe4:	ea52 3603 	orrs.w	r6, r2, r3, lsl #12
   87fe8:	bf1c      	itt	ne
   87fea:	4610      	movne	r0, r2
   87fec:	4619      	movne	r1, r3
   87fee:	d10a      	bne.n	88006 <__aeabi_dmul+0x24a>
   87ff0:	ea81 0103 	eor.w	r1, r1, r3
   87ff4:	f001 4100 	and.w	r1, r1, #2147483648	; 0x80000000
   87ff8:	f041 41fe 	orr.w	r1, r1, #2130706432	; 0x7f000000
   87ffc:	f441 0170 	orr.w	r1, r1, #15728640	; 0xf00000
   88000:	f04f 0000 	mov.w	r0, #0
   88004:	bd70      	pop	{r4, r5, r6, pc}
   88006:	f041 41fe 	orr.w	r1, r1, #2130706432	; 0x7f000000
   8800a:	f441 0178 	orr.w	r1, r1, #16252928	; 0xf80000
   8800e:	bd70      	pop	{r4, r5, r6, pc}

00088010 <__aeabi_ddiv>:
   88010:	b570      	push	{r4, r5, r6, lr}
   88012:	f04f 0cff 	mov.w	ip, #255	; 0xff
   88016:	f44c 6ce0 	orr.w	ip, ip, #1792	; 0x700
   8801a:	ea1c 5411 	ands.w	r4, ip, r1, lsr #20
   8801e:	bf1d      	ittte	ne
   88020:	ea1c 5513 	andsne.w	r5, ip, r3, lsr #20
   88024:	ea94 0f0c 	teqne	r4, ip
   88028:	ea95 0f0c 	teqne	r5, ip
   8802c:	f000 f8a7 	bleq	8817e <__aeabi_ddiv+0x16e>
   88030:	eba4 0405 	sub.w	r4, r4, r5
   88034:	ea81 0e03 	eor.w	lr, r1, r3
   88038:	ea52 3503 	orrs.w	r5, r2, r3, lsl #12
   8803c:	ea4f 3101 	mov.w	r1, r1, lsl #12
   88040:	f000 8088 	beq.w	88154 <__aeabi_ddiv+0x144>
   88044:	ea4f 3303 	mov.w	r3, r3, lsl #12
   88048:	f04f 5580 	mov.w	r5, #268435456	; 0x10000000
   8804c:	ea45 1313 	orr.w	r3, r5, r3, lsr #4
   88050:	ea43 6312 	orr.w	r3, r3, r2, lsr #24
   88054:	ea4f 2202 	mov.w	r2, r2, lsl #8
   88058:	ea45 1511 	orr.w	r5, r5, r1, lsr #4
   8805c:	ea45 6510 	orr.w	r5, r5, r0, lsr #24
   88060:	ea4f 2600 	mov.w	r6, r0, lsl #8
   88064:	f00e 4100 	and.w	r1, lr, #2147483648	; 0x80000000
   88068:	429d      	cmp	r5, r3
   8806a:	bf08      	it	eq
   8806c:	4296      	cmpeq	r6, r2
   8806e:	f144 04fd 	adc.w	r4, r4, #253	; 0xfd
   88072:	f504 7440 	add.w	r4, r4, #768	; 0x300
   88076:	d202      	bcs.n	8807e <__aeabi_ddiv+0x6e>
   88078:	085b      	lsrs	r3, r3, #1
   8807a:	ea4f 0232 	mov.w	r2, r2, rrx
   8807e:	1ab6      	subs	r6, r6, r2
   88080:	eb65 0503 	sbc.w	r5, r5, r3
   88084:	085b      	lsrs	r3, r3, #1
   88086:	ea4f 0232 	mov.w	r2, r2, rrx
   8808a:	f44f 1080 	mov.w	r0, #1048576	; 0x100000
   8808e:	f44f 2c00 	mov.w	ip, #524288	; 0x80000
   88092:	ebb6 0e02 	subs.w	lr, r6, r2
   88096:	eb75 0e03 	sbcs.w	lr, r5, r3
   8809a:	bf22      	ittt	cs
   8809c:	1ab6      	subcs	r6, r6, r2
   8809e:	4675      	movcs	r5, lr
   880a0:	ea40 000c 	orrcs.w	r0, r0, ip
   880a4:	085b      	lsrs	r3, r3, #1
   880a6:	ea4f 0232 	mov.w	r2, r2, rrx
   880aa:	ebb6 0e02 	subs.w	lr, r6, r2
   880ae:	eb75 0e03 	sbcs.w	lr, r5, r3
   880b2:	bf22      	ittt	cs
   880b4:	1ab6      	subcs	r6, r6, r2
   880b6:	4675      	movcs	r5, lr
   880b8:	ea40 005c 	orrcs.w	r0, r0, ip, lsr #1
   880bc:	085b      	lsrs	r3, r3, #1
   880be:	ea4f 0232 	mov.w	r2, r2, rrx
   880c2:	ebb6 0e02 	subs.w	lr, r6, r2
   880c6:	eb75 0e03 	sbcs.w	lr, r5, r3
   880ca:	bf22      	ittt	cs
   880cc:	1ab6      	subcs	r6, r6, r2
   880ce:	4675      	movcs	r5, lr
   880d0:	ea40 009c 	orrcs.w	r0, r0, ip, lsr #2
   880d4:	085b      	lsrs	r3, r3, #1
   880d6:	ea4f 0232 	mov.w	r2, r2, rrx
   880da:	ebb6 0e02 	subs.w	lr, r6, r2
   880de:	eb75 0e03 	sbcs.w	lr, r5, r3
   880e2:	bf22      	ittt	cs
   880e4:	1ab6      	subcs	r6, r6, r2
   880e6:	4675      	movcs	r5, lr
   880e8:	ea40 00dc 	orrcs.w	r0, r0, ip, lsr #3
   880ec:	ea55 0e06 	orrs.w	lr, r5, r6
   880f0:	d018      	beq.n	88124 <__aeabi_ddiv+0x114>
   880f2:	ea4f 1505 	mov.w	r5, r5, lsl #4
   880f6:	ea45 7516 	orr.w	r5, r5, r6, lsr #28
   880fa:	ea4f 1606 	mov.w	r6, r6, lsl #4
   880fe:	ea4f 03c3 	mov.w	r3, r3, lsl #3
   88102:	ea43 7352 	orr.w	r3, r3, r2, lsr #29
   88106:	ea4f 02c2 	mov.w	r2, r2, lsl #3
   8810a:	ea5f 1c1c 	movs.w	ip, ip, lsr #4
   8810e:	d1c0      	bne.n	88092 <__aeabi_ddiv+0x82>
   88110:	f411 1f80 	tst.w	r1, #1048576	; 0x100000
   88114:	d10b      	bne.n	8812e <__aeabi_ddiv+0x11e>
   88116:	ea41 0100 	orr.w	r1, r1, r0
   8811a:	f04f 0000 	mov.w	r0, #0
   8811e:	f04f 4c00 	mov.w	ip, #2147483648	; 0x80000000
   88122:	e7b6      	b.n	88092 <__aeabi_ddiv+0x82>
   88124:	f411 1f80 	tst.w	r1, #1048576	; 0x100000
   88128:	bf04      	itt	eq
   8812a:	4301      	orreq	r1, r0
   8812c:	2000      	moveq	r0, #0
   8812e:	f1b4 0cfd 	subs.w	ip, r4, #253	; 0xfd
   88132:	bf88      	it	hi
   88134:	f5bc 6fe0 	cmphi.w	ip, #1792	; 0x700
   88138:	f63f aeaf 	bhi.w	87e9a <__aeabi_dmul+0xde>
   8813c:	ebb5 0c03 	subs.w	ip, r5, r3
   88140:	bf04      	itt	eq
   88142:	ebb6 0c02 	subseq.w	ip, r6, r2
   88146:	ea5f 0c50 	movseq.w	ip, r0, lsr #1
   8814a:	f150 0000 	adcs.w	r0, r0, #0
   8814e:	eb41 5104 	adc.w	r1, r1, r4, lsl #20
   88152:	bd70      	pop	{r4, r5, r6, pc}
   88154:	f00e 4e00 	and.w	lr, lr, #2147483648	; 0x80000000
   88158:	ea4e 3111 	orr.w	r1, lr, r1, lsr #12
   8815c:	eb14 045c 	adds.w	r4, r4, ip, lsr #1
   88160:	bfc2      	ittt	gt
   88162:	ebd4 050c 	rsbsgt	r5, r4, ip
   88166:	ea41 5104 	orrgt.w	r1, r1, r4, lsl #20
   8816a:	bd70      	popgt	{r4, r5, r6, pc}
   8816c:	f441 1180 	orr.w	r1, r1, #1048576	; 0x100000
   88170:	f04f 0e00 	mov.w	lr, #0
   88174:	3c01      	subs	r4, #1
   88176:	e690      	b.n	87e9a <__aeabi_dmul+0xde>
   88178:	ea45 0e06 	orr.w	lr, r5, r6
   8817c:	e68d      	b.n	87e9a <__aeabi_dmul+0xde>
   8817e:	ea0c 5513 	and.w	r5, ip, r3, lsr #20
   88182:	ea94 0f0c 	teq	r4, ip
   88186:	bf08      	it	eq
   88188:	ea95 0f0c 	teqeq	r5, ip
   8818c:	f43f af3b 	beq.w	88006 <__aeabi_dmul+0x24a>
   88190:	ea94 0f0c 	teq	r4, ip
   88194:	d10a      	bne.n	881ac <__aeabi_ddiv+0x19c>
   88196:	ea50 3401 	orrs.w	r4, r0, r1, lsl #12
   8819a:	f47f af34 	bne.w	88006 <__aeabi_dmul+0x24a>
   8819e:	ea95 0f0c 	teq	r5, ip
   881a2:	f47f af25 	bne.w	87ff0 <__aeabi_dmul+0x234>
   881a6:	4610      	mov	r0, r2
   881a8:	4619      	mov	r1, r3
   881aa:	e72c      	b.n	88006 <__aeabi_dmul+0x24a>
   881ac:	ea95 0f0c 	teq	r5, ip
   881b0:	d106      	bne.n	881c0 <__aeabi_ddiv+0x1b0>
   881b2:	ea52 3503 	orrs.w	r5, r2, r3, lsl #12
   881b6:	f43f aefd 	beq.w	87fb4 <__aeabi_dmul+0x1f8>
   881ba:	4610      	mov	r0, r2
   881bc:	4619      	mov	r1, r3
   881be:	e722      	b.n	88006 <__aeabi_dmul+0x24a>
   881c0:	ea50 0641 	orrs.w	r6, r0, r1, lsl #1
   881c4:	bf18      	it	ne
   881c6:	ea52 0643 	orrsne.w	r6, r2, r3, lsl #1
   881ca:	f47f aec5 	bne.w	87f58 <__aeabi_dmul+0x19c>
   881ce:	ea50 0441 	orrs.w	r4, r0, r1, lsl #1
   881d2:	f47f af0d 	bne.w	87ff0 <__aeabi_dmul+0x234>
   881d6:	ea52 0543 	orrs.w	r5, r2, r3, lsl #1
   881da:	f47f aeeb 	bne.w	87fb4 <__aeabi_dmul+0x1f8>
   881de:	e712      	b.n	88006 <__aeabi_dmul+0x24a>

000881e0 <__gedf2>:
   881e0:	f04f 3cff 	mov.w	ip, #4294967295
   881e4:	e006      	b.n	881f4 <__cmpdf2+0x4>
   881e6:	bf00      	nop

000881e8 <__ledf2>:
   881e8:	f04f 0c01 	mov.w	ip, #1
   881ec:	e002      	b.n	881f4 <__cmpdf2+0x4>
   881ee:	bf00      	nop

000881f0 <__cmpdf2>:
   881f0:	f04f 0c01 	mov.w	ip, #1
   881f4:	f84d cd04 	str.w	ip, [sp, #-4]!
   881f8:	ea4f 0c41 	mov.w	ip, r1, lsl #1
   881fc:	ea7f 5c6c 	mvns.w	ip, ip, asr #21
   88200:	ea4f 0c43 	mov.w	ip, r3, lsl #1
   88204:	bf18      	it	ne
   88206:	ea7f 5c6c 	mvnsne.w	ip, ip, asr #21
   8820a:	d01b      	beq.n	88244 <__cmpdf2+0x54>
   8820c:	b001      	add	sp, #4
   8820e:	ea50 0c41 	orrs.w	ip, r0, r1, lsl #1
   88212:	bf0c      	ite	eq
   88214:	ea52 0c43 	orrseq.w	ip, r2, r3, lsl #1
   88218:	ea91 0f03 	teqne	r1, r3
   8821c:	bf02      	ittt	eq
   8821e:	ea90 0f02 	teqeq	r0, r2
   88222:	2000      	moveq	r0, #0
   88224:	4770      	bxeq	lr
   88226:	f110 0f00 	cmn.w	r0, #0
   8822a:	ea91 0f03 	teq	r1, r3
   8822e:	bf58      	it	pl
   88230:	4299      	cmppl	r1, r3
   88232:	bf08      	it	eq
   88234:	4290      	cmpeq	r0, r2
   88236:	bf2c      	ite	cs
   88238:	17d8      	asrcs	r0, r3, #31
   8823a:	ea6f 70e3 	mvncc.w	r0, r3, asr #31
   8823e:	f040 0001 	orr.w	r0, r0, #1
   88242:	4770      	bx	lr
   88244:	ea4f 0c41 	mov.w	ip, r1, lsl #1
   88248:	ea7f 5c6c 	mvns.w	ip, ip, asr #21
   8824c:	d102      	bne.n	88254 <__cmpdf2+0x64>
   8824e:	ea50 3c01 	orrs.w	ip, r0, r1, lsl #12
   88252:	d107      	bne.n	88264 <__cmpdf2+0x74>
   88254:	ea4f 0c43 	mov.w	ip, r3, lsl #1
   88258:	ea7f 5c6c 	mvns.w	ip, ip, asr #21
   8825c:	d1d6      	bne.n	8820c <__cmpdf2+0x1c>
   8825e:	ea52 3c03 	orrs.w	ip, r2, r3, lsl #12
   88262:	d0d3      	beq.n	8820c <__cmpdf2+0x1c>
   88264:	f85d 0b04 	ldr.w	r0, [sp], #4
   88268:	4770      	bx	lr
   8826a:	bf00      	nop

0008826c <__aeabi_cdrcmple>:
   8826c:	4684      	mov	ip, r0
   8826e:	4610      	mov	r0, r2
   88270:	4662      	mov	r2, ip
   88272:	468c      	mov	ip, r1
   88274:	4619      	mov	r1, r3
   88276:	4663      	mov	r3, ip
   88278:	e000      	b.n	8827c <__aeabi_cdcmpeq>
   8827a:	bf00      	nop

0008827c <__aeabi_cdcmpeq>:
   8827c:	b501      	push	{r0, lr}
   8827e:	f7ff ffb7 	bl	881f0 <__cmpdf2>
   88282:	2800      	cmp	r0, #0
   88284:	bf48      	it	mi
   88286:	f110 0f00 	cmnmi.w	r0, #0
   8828a:	bd01      	pop	{r0, pc}

0008828c <__aeabi_dcmpeq>:
   8828c:	f84d ed08 	str.w	lr, [sp, #-8]!
   88290:	f7ff fff4 	bl	8827c <__aeabi_cdcmpeq>
   88294:	bf0c      	ite	eq
   88296:	2001      	moveq	r0, #1
   88298:	2000      	movne	r0, #0
   8829a:	f85d fb08 	ldr.w	pc, [sp], #8
   8829e:	bf00      	nop

000882a0 <__aeabi_dcmplt>:
   882a0:	f84d ed08 	str.w	lr, [sp, #-8]!
   882a4:	f7ff ffea 	bl	8827c <__aeabi_cdcmpeq>
   882a8:	bf34      	ite	cc
   882aa:	2001      	movcc	r0, #1
   882ac:	2000      	movcs	r0, #0
   882ae:	f85d fb08 	ldr.w	pc, [sp], #8
   882b2:	bf00      	nop

000882b4 <__aeabi_dcmple>:
   882b4:	f84d ed08 	str.w	lr, [sp, #-8]!
   882b8:	f7ff ffe0 	bl	8827c <__aeabi_cdcmpeq>
   882bc:	bf94      	ite	ls
   882be:	2001      	movls	r0, #1
   882c0:	2000      	movhi	r0, #0
   882c2:	f85d fb08 	ldr.w	pc, [sp], #8
   882c6:	bf00      	nop

000882c8 <__aeabi_dcmpge>:
   882c8:	f84d ed08 	str.w	lr, [sp, #-8]!
   882cc:	f7ff ffce 	bl	8826c <__aeabi_cdrcmple>
   882d0:	bf94      	ite	ls
   882d2:	2001      	movls	r0, #1
   882d4:	2000      	movhi	r0, #0
   882d6:	f85d fb08 	ldr.w	pc, [sp], #8
   882da:	bf00      	nop

000882dc <__aeabi_dcmpgt>:
   882dc:	f84d ed08 	str.w	lr, [sp, #-8]!
   882e0:	f7ff ffc4 	bl	8826c <__aeabi_cdrcmple>
   882e4:	bf34      	ite	cc
   882e6:	2001      	movcc	r0, #1
   882e8:	2000      	movcs	r0, #0
   882ea:	f85d fb08 	ldr.w	pc, [sp], #8
   882ee:	bf00      	nop

000882f0 <__aeabi_d2iz>:
   882f0:	ea4f 0241 	mov.w	r2, r1, lsl #1
   882f4:	f512 1200 	adds.w	r2, r2, #2097152	; 0x200000
   882f8:	d215      	bcs.n	88326 <__aeabi_d2iz+0x36>
   882fa:	d511      	bpl.n	88320 <__aeabi_d2iz+0x30>
   882fc:	f46f 7378 	mvn.w	r3, #992	; 0x3e0
   88300:	ebb3 5262 	subs.w	r2, r3, r2, asr #21
   88304:	d912      	bls.n	8832c <__aeabi_d2iz+0x3c>
   88306:	ea4f 23c1 	mov.w	r3, r1, lsl #11
   8830a:	f043 4300 	orr.w	r3, r3, #2147483648	; 0x80000000
   8830e:	ea43 5350 	orr.w	r3, r3, r0, lsr #21
   88312:	f011 4f00 	tst.w	r1, #2147483648	; 0x80000000
   88316:	fa23 f002 	lsr.w	r0, r3, r2
   8831a:	bf18      	it	ne
   8831c:	4240      	negne	r0, r0
   8831e:	4770      	bx	lr
   88320:	f04f 0000 	mov.w	r0, #0
   88324:	4770      	bx	lr
   88326:	ea50 3001 	orrs.w	r0, r0, r1, lsl #12
   8832a:	d105      	bne.n	88338 <__aeabi_d2iz+0x48>
   8832c:	f011 4000 	ands.w	r0, r1, #2147483648	; 0x80000000
   88330:	bf08      	it	eq
   88332:	f06f 4000 	mvneq.w	r0, #2147483648	; 0x80000000
   88336:	4770      	bx	lr
   88338:	f04f 0000 	mov.w	r0, #0
   8833c:	4770      	bx	lr
   8833e:	bf00      	nop

00088340 <__aeabi_d2uiz>:
   88340:	004a      	lsls	r2, r1, #1
   88342:	d211      	bcs.n	88368 <__aeabi_d2uiz+0x28>
   88344:	f512 1200 	adds.w	r2, r2, #2097152	; 0x200000
   88348:	d211      	bcs.n	8836e <__aeabi_d2uiz+0x2e>
   8834a:	d50d      	bpl.n	88368 <__aeabi_d2uiz+0x28>
   8834c:	f46f 7378 	mvn.w	r3, #992	; 0x3e0
   88350:	ebb3 5262 	subs.w	r2, r3, r2, asr #21
   88354:	d40e      	bmi.n	88374 <__aeabi_d2uiz+0x34>
   88356:	ea4f 23c1 	mov.w	r3, r1, lsl #11
   8835a:	f043 4300 	orr.w	r3, r3, #2147483648	; 0x80000000
   8835e:	ea43 5350 	orr.w	r3, r3, r0, lsr #21
   88362:	fa23 f002 	lsr.w	r0, r3, r2
   88366:	4770      	bx	lr
   88368:	f04f 0000 	mov.w	r0, #0
   8836c:	4770      	bx	lr
   8836e:	ea50 3001 	orrs.w	r0, r0, r1, lsl #12
   88372:	d102      	bne.n	8837a <__aeabi_d2uiz+0x3a>
   88374:	f04f 30ff 	mov.w	r0, #4294967295
   88378:	4770      	bx	lr
   8837a:	f04f 0000 	mov.w	r0, #0
   8837e:	4770      	bx	lr

00088380 <__aeabi_uldivmod>:
   88380:	b953      	cbnz	r3, 88398 <__aeabi_uldivmod+0x18>
   88382:	b94a      	cbnz	r2, 88398 <__aeabi_uldivmod+0x18>
   88384:	2900      	cmp	r1, #0
   88386:	bf08      	it	eq
   88388:	2800      	cmpeq	r0, #0
   8838a:	bf1c      	itt	ne
   8838c:	f04f 31ff 	movne.w	r1, #4294967295
   88390:	f04f 30ff 	movne.w	r0, #4294967295
   88394:	f000 b83c 	b.w	88410 <__aeabi_idiv0>
   88398:	b082      	sub	sp, #8
   8839a:	46ec      	mov	ip, sp
   8839c:	e92d 5000 	stmdb	sp!, {ip, lr}
   883a0:	f000 f81e 	bl	883e0 <__gnu_uldivmod_helper>
   883a4:	f8dd e004 	ldr.w	lr, [sp, #4]
   883a8:	b002      	add	sp, #8
   883aa:	bc0c      	pop	{r2, r3}
   883ac:	4770      	bx	lr
   883ae:	bf00      	nop

000883b0 <__gnu_ldivmod_helper>:
   883b0:	e92d 41f0 	stmdb	sp!, {r4, r5, r6, r7, r8, lr}
   883b4:	9c06      	ldr	r4, [sp, #24]
   883b6:	4690      	mov	r8, r2
   883b8:	4606      	mov	r6, r0
   883ba:	460f      	mov	r7, r1
   883bc:	461d      	mov	r5, r3
   883be:	f000 f829 	bl	88414 <__divdi3>
   883c2:	fb08 fc01 	mul.w	ip, r8, r1
   883c6:	fba8 2300 	umull	r2, r3, r8, r0
   883ca:	fb00 c505 	mla	r5, r0, r5, ip
   883ce:	1ab2      	subs	r2, r6, r2
   883d0:	442b      	add	r3, r5
   883d2:	eb67 0303 	sbc.w	r3, r7, r3
   883d6:	4686      	mov	lr, r0
   883d8:	e9c4 2300 	strd	r2, r3, [r4]
   883dc:	e8bd 81f0 	ldmia.w	sp!, {r4, r5, r6, r7, r8, pc}

000883e0 <__gnu_uldivmod_helper>:
   883e0:	e92d 43f8 	stmdb	sp!, {r3, r4, r5, r6, r7, r8, r9, lr}
   883e4:	9e08      	ldr	r6, [sp, #32]
   883e6:	4617      	mov	r7, r2
   883e8:	4680      	mov	r8, r0
   883ea:	4689      	mov	r9, r1
   883ec:	461d      	mov	r5, r3
   883ee:	f000 f967 	bl	886c0 <__udivdi3>
   883f2:	fb00 f305 	mul.w	r3, r0, r5
   883f6:	fba0 4507 	umull	r4, r5, r0, r7
   883fa:	fb07 3701 	mla	r7, r7, r1, r3
   883fe:	ebb8 0404 	subs.w	r4, r8, r4
   88402:	443d      	add	r5, r7
   88404:	eb69 0505 	sbc.w	r5, r9, r5
   88408:	e9c6 4500 	strd	r4, r5, [r6]
   8840c:	e8bd 83f8 	ldmia.w	sp!, {r3, r4, r5, r6, r7, r8, r9, pc}

00088410 <__aeabi_idiv0>:
   88410:	4770      	bx	lr
   88412:	bf00      	nop

00088414 <__divdi3>:
   88414:	2900      	cmp	r1, #0
   88416:	e92d 43f0 	stmdb	sp!, {r4, r5, r6, r7, r8, r9, lr}
   8841a:	f2c0 80a8 	blt.w	8856e <__divdi3+0x15a>
   8841e:	2600      	movs	r6, #0
   88420:	2b00      	cmp	r3, #0
   88422:	f2c0 809e 	blt.w	88562 <__divdi3+0x14e>
   88426:	4681      	mov	r9, r0
   88428:	468e      	mov	lr, r1
   8842a:	4690      	mov	r8, r2
   8842c:	469c      	mov	ip, r3
   8842e:	4617      	mov	r7, r2
   88430:	4604      	mov	r4, r0
   88432:	460d      	mov	r5, r1
   88434:	2b00      	cmp	r3, #0
   88436:	d13d      	bne.n	884b4 <__divdi3+0xa0>
   88438:	428a      	cmp	r2, r1
   8843a:	d959      	bls.n	884f0 <__divdi3+0xdc>
   8843c:	fab2 f382 	clz	r3, r2
   88440:	b13b      	cbz	r3, 88452 <__divdi3+0x3e>
   88442:	f1c3 0220 	rsb	r2, r3, #32
   88446:	409d      	lsls	r5, r3
   88448:	fa20 f202 	lsr.w	r2, r0, r2
   8844c:	409f      	lsls	r7, r3
   8844e:	4315      	orrs	r5, r2
   88450:	409c      	lsls	r4, r3
   88452:	0c39      	lsrs	r1, r7, #16
   88454:	fbb5 f0f1 	udiv	r0, r5, r1
   88458:	fa1f fe87 	uxth.w	lr, r7
   8845c:	fb01 5510 	mls	r5, r1, r0, r5
   88460:	fb0e f300 	mul.w	r3, lr, r0
   88464:	0c22      	lsrs	r2, r4, #16
   88466:	ea42 4505 	orr.w	r5, r2, r5, lsl #16
   8846a:	42ab      	cmp	r3, r5
   8846c:	d909      	bls.n	88482 <__divdi3+0x6e>
   8846e:	19ed      	adds	r5, r5, r7
   88470:	f100 32ff 	add.w	r2, r0, #4294967295
   88474:	f080 810b 	bcs.w	8868e <__divdi3+0x27a>
   88478:	42ab      	cmp	r3, r5
   8847a:	f240 8108 	bls.w	8868e <__divdi3+0x27a>
   8847e:	3802      	subs	r0, #2
   88480:	443d      	add	r5, r7
   88482:	1aed      	subs	r5, r5, r3
   88484:	fbb5 f3f1 	udiv	r3, r5, r1
   88488:	fb01 5513 	mls	r5, r1, r3, r5
   8848c:	fb0e fe03 	mul.w	lr, lr, r3
   88490:	b2a4      	uxth	r4, r4
   88492:	ea44 4505 	orr.w	r5, r4, r5, lsl #16
   88496:	45ae      	cmp	lr, r5
   88498:	d908      	bls.n	884ac <__divdi3+0x98>
   8849a:	19ed      	adds	r5, r5, r7
   8849c:	f103 32ff 	add.w	r2, r3, #4294967295
   884a0:	f080 80f7 	bcs.w	88692 <__divdi3+0x27e>
   884a4:	45ae      	cmp	lr, r5
   884a6:	f240 80f4 	bls.w	88692 <__divdi3+0x27e>
   884aa:	3b02      	subs	r3, #2
   884ac:	ea43 4300 	orr.w	r3, r3, r0, lsl #16
   884b0:	2200      	movs	r2, #0
   884b2:	e003      	b.n	884bc <__divdi3+0xa8>
   884b4:	428b      	cmp	r3, r1
   884b6:	d90f      	bls.n	884d8 <__divdi3+0xc4>
   884b8:	2200      	movs	r2, #0
   884ba:	4613      	mov	r3, r2
   884bc:	1c34      	adds	r4, r6, #0
   884be:	bf18      	it	ne
   884c0:	2401      	movne	r4, #1
   884c2:	4260      	negs	r0, r4
   884c4:	f04f 0500 	mov.w	r5, #0
   884c8:	eb65 0145 	sbc.w	r1, r5, r5, lsl #1
   884cc:	4058      	eors	r0, r3
   884ce:	4051      	eors	r1, r2
   884d0:	1900      	adds	r0, r0, r4
   884d2:	4169      	adcs	r1, r5
   884d4:	e8bd 83f0 	ldmia.w	sp!, {r4, r5, r6, r7, r8, r9, pc}
   884d8:	fab3 f283 	clz	r2, r3
   884dc:	2a00      	cmp	r2, #0
   884de:	f040 8089 	bne.w	885f4 <__divdi3+0x1e0>
   884e2:	428b      	cmp	r3, r1
   884e4:	d302      	bcc.n	884ec <__divdi3+0xd8>
   884e6:	4580      	cmp	r8, r0
   884e8:	f200 80e2 	bhi.w	886b0 <__divdi3+0x29c>
   884ec:	2301      	movs	r3, #1
   884ee:	e7e5      	b.n	884bc <__divdi3+0xa8>
   884f0:	b912      	cbnz	r2, 884f8 <__divdi3+0xe4>
   884f2:	2301      	movs	r3, #1
   884f4:	fbb3 f7f2 	udiv	r7, r3, r2
   884f8:	fab7 f887 	clz	r8, r7
   884fc:	f1b8 0f00 	cmp.w	r8, #0
   88500:	d13b      	bne.n	8857a <__divdi3+0x166>
   88502:	1bed      	subs	r5, r5, r7
   88504:	ea4f 4c17 	mov.w	ip, r7, lsr #16
   88508:	fa1f fe87 	uxth.w	lr, r7
   8850c:	2201      	movs	r2, #1
   8850e:	fbb5 f0fc 	udiv	r0, r5, ip
   88512:	fb0c 5510 	mls	r5, ip, r0, r5
   88516:	fb0e f300 	mul.w	r3, lr, r0
   8851a:	0c21      	lsrs	r1, r4, #16
   8851c:	ea41 4505 	orr.w	r5, r1, r5, lsl #16
   88520:	42ab      	cmp	r3, r5
   88522:	d907      	bls.n	88534 <__divdi3+0x120>
   88524:	19ed      	adds	r5, r5, r7
   88526:	f100 31ff 	add.w	r1, r0, #4294967295
   8852a:	d202      	bcs.n	88532 <__divdi3+0x11e>
   8852c:	42ab      	cmp	r3, r5
   8852e:	f200 80c3 	bhi.w	886b8 <__divdi3+0x2a4>
   88532:	4608      	mov	r0, r1
   88534:	1aed      	subs	r5, r5, r3
   88536:	fbb5 f3fc 	udiv	r3, r5, ip
   8853a:	fb0c 5513 	mls	r5, ip, r3, r5
   8853e:	fb0e fe03 	mul.w	lr, lr, r3
   88542:	b2a4      	uxth	r4, r4
   88544:	ea44 4505 	orr.w	r5, r4, r5, lsl #16
   88548:	45ae      	cmp	lr, r5
   8854a:	d907      	bls.n	8855c <__divdi3+0x148>
   8854c:	19ed      	adds	r5, r5, r7
   8854e:	f103 31ff 	add.w	r1, r3, #4294967295
   88552:	d202      	bcs.n	8855a <__divdi3+0x146>
   88554:	45ae      	cmp	lr, r5
   88556:	f200 80ad 	bhi.w	886b4 <__divdi3+0x2a0>
   8855a:	460b      	mov	r3, r1
   8855c:	ea43 4300 	orr.w	r3, r3, r0, lsl #16
   88560:	e7ac      	b.n	884bc <__divdi3+0xa8>
   88562:	4252      	negs	r2, r2
   88564:	ea6f 0606 	mvn.w	r6, r6
   88568:	eb63 0343 	sbc.w	r3, r3, r3, lsl #1
   8856c:	e75b      	b.n	88426 <__divdi3+0x12>
   8856e:	4240      	negs	r0, r0
   88570:	eb61 0141 	sbc.w	r1, r1, r1, lsl #1
   88574:	f04f 36ff 	mov.w	r6, #4294967295
   88578:	e752      	b.n	88420 <__divdi3+0xc>
   8857a:	fa07 f708 	lsl.w	r7, r7, r8
   8857e:	f1c8 0220 	rsb	r2, r8, #32
   88582:	fa25 f302 	lsr.w	r3, r5, r2
   88586:	ea4f 4c17 	mov.w	ip, r7, lsr #16
   8858a:	fbb3 f1fc 	udiv	r1, r3, ip
   8858e:	fa1f fe87 	uxth.w	lr, r7
   88592:	fb0c 3311 	mls	r3, ip, r1, r3
   88596:	fa24 f202 	lsr.w	r2, r4, r2
   8859a:	fa05 f508 	lsl.w	r5, r5, r8
   8859e:	fb0e f901 	mul.w	r9, lr, r1
   885a2:	432a      	orrs	r2, r5
   885a4:	0c10      	lsrs	r0, r2, #16
   885a6:	ea40 4303 	orr.w	r3, r0, r3, lsl #16
   885aa:	4599      	cmp	r9, r3
   885ac:	fa04 f408 	lsl.w	r4, r4, r8
   885b0:	d907      	bls.n	885c2 <__divdi3+0x1ae>
   885b2:	19db      	adds	r3, r3, r7
   885b4:	f101 30ff 	add.w	r0, r1, #4294967295
   885b8:	d278      	bcs.n	886ac <__divdi3+0x298>
   885ba:	4599      	cmp	r9, r3
   885bc:	d976      	bls.n	886ac <__divdi3+0x298>
   885be:	3902      	subs	r1, #2
   885c0:	443b      	add	r3, r7
   885c2:	ebc9 0303 	rsb	r3, r9, r3
   885c6:	fbb3 f0fc 	udiv	r0, r3, ip
   885ca:	fb0c 3310 	mls	r3, ip, r0, r3
   885ce:	fb0e f500 	mul.w	r5, lr, r0
   885d2:	b292      	uxth	r2, r2
   885d4:	ea42 4303 	orr.w	r3, r2, r3, lsl #16
   885d8:	429d      	cmp	r5, r3
   885da:	d907      	bls.n	885ec <__divdi3+0x1d8>
   885dc:	19db      	adds	r3, r3, r7
   885de:	f100 32ff 	add.w	r2, r0, #4294967295
   885e2:	d25f      	bcs.n	886a4 <__divdi3+0x290>
   885e4:	429d      	cmp	r5, r3
   885e6:	d95d      	bls.n	886a4 <__divdi3+0x290>
   885e8:	3802      	subs	r0, #2
   885ea:	443b      	add	r3, r7
   885ec:	1b5d      	subs	r5, r3, r5
   885ee:	ea40 4201 	orr.w	r2, r0, r1, lsl #16
   885f2:	e78c      	b.n	8850e <__divdi3+0xfa>
   885f4:	f1c2 0320 	rsb	r3, r2, #32
   885f8:	fa28 f103 	lsr.w	r1, r8, r3
   885fc:	fa0c fc02 	lsl.w	ip, ip, r2
   88600:	ea41 0c0c 	orr.w	ip, r1, ip
   88604:	ea4f 401c 	mov.w	r0, ip, lsr #16
   88608:	fa2e f103 	lsr.w	r1, lr, r3
   8860c:	fbb1 f5f0 	udiv	r5, r1, r0
   88610:	fa1f f78c 	uxth.w	r7, ip
   88614:	fb00 1115 	mls	r1, r0, r5, r1
   88618:	fa29 f303 	lsr.w	r3, r9, r3
   8861c:	fa0e fe02 	lsl.w	lr, lr, r2
   88620:	fb07 f905 	mul.w	r9, r7, r5
   88624:	ea43 0e0e 	orr.w	lr, r3, lr
   88628:	ea4f 431e 	mov.w	r3, lr, lsr #16
   8862c:	ea43 4101 	orr.w	r1, r3, r1, lsl #16
   88630:	4589      	cmp	r9, r1
   88632:	fa08 f802 	lsl.w	r8, r8, r2
   88636:	d908      	bls.n	8864a <__divdi3+0x236>
   88638:	eb11 010c 	adds.w	r1, r1, ip
   8863c:	f105 33ff 	add.w	r3, r5, #4294967295
   88640:	d232      	bcs.n	886a8 <__divdi3+0x294>
   88642:	4589      	cmp	r9, r1
   88644:	d930      	bls.n	886a8 <__divdi3+0x294>
   88646:	3d02      	subs	r5, #2
   88648:	4461      	add	r1, ip
   8864a:	ebc9 0101 	rsb	r1, r9, r1
   8864e:	fbb1 f3f0 	udiv	r3, r1, r0
   88652:	fb00 1113 	mls	r1, r0, r3, r1
   88656:	fb07 f703 	mul.w	r7, r7, r3
   8865a:	fa1f fe8e 	uxth.w	lr, lr
   8865e:	ea4e 4e01 	orr.w	lr, lr, r1, lsl #16
   88662:	4577      	cmp	r7, lr
   88664:	d908      	bls.n	88678 <__divdi3+0x264>
   88666:	eb1e 0e0c 	adds.w	lr, lr, ip
   8866a:	f103 31ff 	add.w	r1, r3, #4294967295
   8866e:	d217      	bcs.n	886a0 <__divdi3+0x28c>
   88670:	4577      	cmp	r7, lr
   88672:	d915      	bls.n	886a0 <__divdi3+0x28c>
   88674:	3b02      	subs	r3, #2
   88676:	44e6      	add	lr, ip
   88678:	ea43 4305 	orr.w	r3, r3, r5, lsl #16
   8867c:	fba3 8908 	umull	r8, r9, r3, r8
   88680:	ebc7 0e0e 	rsb	lr, r7, lr
   88684:	45ce      	cmp	lr, r9
   88686:	d309      	bcc.n	8869c <__divdi3+0x288>
   88688:	d005      	beq.n	88696 <__divdi3+0x282>
   8868a:	2200      	movs	r2, #0
   8868c:	e716      	b.n	884bc <__divdi3+0xa8>
   8868e:	4610      	mov	r0, r2
   88690:	e6f7      	b.n	88482 <__divdi3+0x6e>
   88692:	4613      	mov	r3, r2
   88694:	e70a      	b.n	884ac <__divdi3+0x98>
   88696:	4094      	lsls	r4, r2
   88698:	4544      	cmp	r4, r8
   8869a:	d2f6      	bcs.n	8868a <__divdi3+0x276>
   8869c:	3b01      	subs	r3, #1
   8869e:	e7f4      	b.n	8868a <__divdi3+0x276>
   886a0:	460b      	mov	r3, r1
   886a2:	e7e9      	b.n	88678 <__divdi3+0x264>
   886a4:	4610      	mov	r0, r2
   886a6:	e7a1      	b.n	885ec <__divdi3+0x1d8>
   886a8:	461d      	mov	r5, r3
   886aa:	e7ce      	b.n	8864a <__divdi3+0x236>
   886ac:	4601      	mov	r1, r0
   886ae:	e788      	b.n	885c2 <__divdi3+0x1ae>
   886b0:	4613      	mov	r3, r2
   886b2:	e703      	b.n	884bc <__divdi3+0xa8>
   886b4:	3b02      	subs	r3, #2
   886b6:	e751      	b.n	8855c <__divdi3+0x148>
   886b8:	3802      	subs	r0, #2
   886ba:	443d      	add	r5, r7
   886bc:	e73a      	b.n	88534 <__divdi3+0x120>
   886be:	bf00      	nop

000886c0 <__udivdi3>:
   886c0:	e92d 43f0 	stmdb	sp!, {r4, r5, r6, r7, r8, r9, lr}
   886c4:	2b00      	cmp	r3, #0
   886c6:	d144      	bne.n	88752 <__udivdi3+0x92>
   886c8:	428a      	cmp	r2, r1
   886ca:	4615      	mov	r5, r2
   886cc:	4604      	mov	r4, r0
   886ce:	d94f      	bls.n	88770 <__udivdi3+0xb0>
   886d0:	fab2 f782 	clz	r7, r2
   886d4:	460e      	mov	r6, r1
   886d6:	b14f      	cbz	r7, 886ec <__udivdi3+0x2c>
   886d8:	f1c7 0320 	rsb	r3, r7, #32
   886dc:	40b9      	lsls	r1, r7
   886de:	fa20 f603 	lsr.w	r6, r0, r3
   886e2:	fa02 f507 	lsl.w	r5, r2, r7
   886e6:	430e      	orrs	r6, r1
   886e8:	fa00 f407 	lsl.w	r4, r0, r7
   886ec:	0c2f      	lsrs	r7, r5, #16
   886ee:	fbb6 f0f7 	udiv	r0, r6, r7
   886f2:	fa1f fe85 	uxth.w	lr, r5
   886f6:	fb07 6210 	mls	r2, r7, r0, r6
   886fa:	fb0e f100 	mul.w	r1, lr, r0
   886fe:	0c26      	lsrs	r6, r4, #16
   88700:	ea46 4302 	orr.w	r3, r6, r2, lsl #16
   88704:	4299      	cmp	r1, r3
   88706:	d909      	bls.n	8871c <__udivdi3+0x5c>
   88708:	195b      	adds	r3, r3, r5
   8870a:	f100 32ff 	add.w	r2, r0, #4294967295
   8870e:	f080 80ee 	bcs.w	888ee <__udivdi3+0x22e>
   88712:	4299      	cmp	r1, r3
   88714:	f240 80eb 	bls.w	888ee <__udivdi3+0x22e>
   88718:	3802      	subs	r0, #2
   8871a:	442b      	add	r3, r5
   8871c:	1a59      	subs	r1, r3, r1
   8871e:	fbb1 f3f7 	udiv	r3, r1, r7
   88722:	fb07 1113 	mls	r1, r7, r3, r1
   88726:	fb0e fe03 	mul.w	lr, lr, r3
   8872a:	b2a4      	uxth	r4, r4
   8872c:	ea44 4101 	orr.w	r1, r4, r1, lsl #16
   88730:	458e      	cmp	lr, r1
   88732:	d908      	bls.n	88746 <__udivdi3+0x86>
   88734:	1949      	adds	r1, r1, r5
   88736:	f103 32ff 	add.w	r2, r3, #4294967295
   8873a:	f080 80da 	bcs.w	888f2 <__udivdi3+0x232>
   8873e:	458e      	cmp	lr, r1
   88740:	f240 80d7 	bls.w	888f2 <__udivdi3+0x232>
   88744:	3b02      	subs	r3, #2
   88746:	ea43 4000 	orr.w	r0, r3, r0, lsl #16
   8874a:	2600      	movs	r6, #0
   8874c:	4631      	mov	r1, r6
   8874e:	e8bd 83f0 	ldmia.w	sp!, {r4, r5, r6, r7, r8, r9, pc}
   88752:	428b      	cmp	r3, r1
   88754:	d847      	bhi.n	887e6 <__udivdi3+0x126>
   88756:	fab3 f683 	clz	r6, r3
   8875a:	2e00      	cmp	r6, #0
   8875c:	d148      	bne.n	887f0 <__udivdi3+0x130>
   8875e:	428b      	cmp	r3, r1
   88760:	d302      	bcc.n	88768 <__udivdi3+0xa8>
   88762:	4282      	cmp	r2, r0
   88764:	f200 80cf 	bhi.w	88906 <__udivdi3+0x246>
   88768:	2001      	movs	r0, #1
   8876a:	4631      	mov	r1, r6
   8876c:	e8bd 83f0 	ldmia.w	sp!, {r4, r5, r6, r7, r8, r9, pc}
   88770:	b912      	cbnz	r2, 88778 <__udivdi3+0xb8>
   88772:	2501      	movs	r5, #1
   88774:	fbb5 f5f2 	udiv	r5, r5, r2
   88778:	fab5 fc85 	clz	ip, r5
   8877c:	f1bc 0f00 	cmp.w	ip, #0
   88780:	d178      	bne.n	88874 <__udivdi3+0x1b4>
   88782:	1b49      	subs	r1, r1, r5
   88784:	0c2f      	lsrs	r7, r5, #16
   88786:	fa1f fe85 	uxth.w	lr, r5
   8878a:	2601      	movs	r6, #1
   8878c:	fbb1 f0f7 	udiv	r0, r1, r7
   88790:	fb07 1110 	mls	r1, r7, r0, r1
   88794:	fb0e f200 	mul.w	r2, lr, r0
   88798:	0c23      	lsrs	r3, r4, #16
   8879a:	ea43 4101 	orr.w	r1, r3, r1, lsl #16
   8879e:	428a      	cmp	r2, r1
   887a0:	d907      	bls.n	887b2 <__udivdi3+0xf2>
   887a2:	1949      	adds	r1, r1, r5
   887a4:	f100 33ff 	add.w	r3, r0, #4294967295
   887a8:	d202      	bcs.n	887b0 <__udivdi3+0xf0>
   887aa:	428a      	cmp	r2, r1
   887ac:	f200 80bc 	bhi.w	88928 <__udivdi3+0x268>
   887b0:	4618      	mov	r0, r3
   887b2:	1a89      	subs	r1, r1, r2
   887b4:	fbb1 f3f7 	udiv	r3, r1, r7
   887b8:	fb07 1113 	mls	r1, r7, r3, r1
   887bc:	fb0e fe03 	mul.w	lr, lr, r3
   887c0:	b2a4      	uxth	r4, r4
   887c2:	ea44 4201 	orr.w	r2, r4, r1, lsl #16
   887c6:	4596      	cmp	lr, r2
   887c8:	d908      	bls.n	887dc <__udivdi3+0x11c>
   887ca:	1952      	adds	r2, r2, r5
   887cc:	f103 31ff 	add.w	r1, r3, #4294967295
   887d0:	f080 8091 	bcs.w	888f6 <__udivdi3+0x236>
   887d4:	4596      	cmp	lr, r2
   887d6:	f240 808e 	bls.w	888f6 <__udivdi3+0x236>
   887da:	3b02      	subs	r3, #2
   887dc:	ea43 4000 	orr.w	r0, r3, r0, lsl #16
   887e0:	4631      	mov	r1, r6
   887e2:	e8bd 83f0 	ldmia.w	sp!, {r4, r5, r6, r7, r8, r9, pc}
   887e6:	2600      	movs	r6, #0
   887e8:	4630      	mov	r0, r6
   887ea:	4631      	mov	r1, r6
   887ec:	e8bd 83f0 	ldmia.w	sp!, {r4, r5, r6, r7, r8, r9, pc}
   887f0:	f1c6 0420 	rsb	r4, r6, #32
   887f4:	fa22 f504 	lsr.w	r5, r2, r4
   887f8:	40b3      	lsls	r3, r6
   887fa:	432b      	orrs	r3, r5
   887fc:	fa21 f704 	lsr.w	r7, r1, r4
   88800:	ea4f 4813 	mov.w	r8, r3, lsr #16
   88804:	fbb7 fcf8 	udiv	ip, r7, r8
   88808:	fa1f f983 	uxth.w	r9, r3
   8880c:	fb08 771c 	mls	r7, r8, ip, r7
   88810:	fa20 fe04 	lsr.w	lr, r0, r4
   88814:	fa01 f506 	lsl.w	r5, r1, r6
   88818:	fb09 f40c 	mul.w	r4, r9, ip
   8881c:	ea4e 0505 	orr.w	r5, lr, r5
   88820:	ea4f 4e15 	mov.w	lr, r5, lsr #16
   88824:	ea4e 4707 	orr.w	r7, lr, r7, lsl #16
   88828:	42bc      	cmp	r4, r7
   8882a:	fa02 f206 	lsl.w	r2, r2, r6
   8882e:	d904      	bls.n	8883a <__udivdi3+0x17a>
   88830:	18ff      	adds	r7, r7, r3
   88832:	f10c 31ff 	add.w	r1, ip, #4294967295
   88836:	d368      	bcc.n	8890a <__udivdi3+0x24a>
   88838:	468c      	mov	ip, r1
   8883a:	1b3f      	subs	r7, r7, r4
   8883c:	fbb7 f4f8 	udiv	r4, r7, r8
   88840:	fb08 7714 	mls	r7, r8, r4, r7
   88844:	fb09 f904 	mul.w	r9, r9, r4
   88848:	b2ad      	uxth	r5, r5
   8884a:	ea45 4107 	orr.w	r1, r5, r7, lsl #16
   8884e:	4589      	cmp	r9, r1
   88850:	d904      	bls.n	8885c <__udivdi3+0x19c>
   88852:	18c9      	adds	r1, r1, r3
   88854:	f104 35ff 	add.w	r5, r4, #4294967295
   88858:	d35d      	bcc.n	88916 <__udivdi3+0x256>
   8885a:	462c      	mov	r4, r5
   8885c:	ea44 440c 	orr.w	r4, r4, ip, lsl #16
   88860:	fba4 2302 	umull	r2, r3, r4, r2
   88864:	ebc9 0101 	rsb	r1, r9, r1
   88868:	4299      	cmp	r1, r3
   8886a:	d349      	bcc.n	88900 <__udivdi3+0x240>
   8886c:	d045      	beq.n	888fa <__udivdi3+0x23a>
   8886e:	4620      	mov	r0, r4
   88870:	2600      	movs	r6, #0
   88872:	e76b      	b.n	8874c <__udivdi3+0x8c>
   88874:	f1cc 0420 	rsb	r4, ip, #32
   88878:	fa05 f50c 	lsl.w	r5, r5, ip
   8887c:	fa21 f304 	lsr.w	r3, r1, r4
   88880:	0c2a      	lsrs	r2, r5, #16
   88882:	fbb3 f6f2 	udiv	r6, r3, r2
   88886:	fa1f fe85 	uxth.w	lr, r5
   8888a:	fb02 3816 	mls	r8, r2, r6, r3
   8888e:	fa20 f704 	lsr.w	r7, r0, r4
   88892:	fa01 f10c 	lsl.w	r1, r1, ip
   88896:	fb0e f906 	mul.w	r9, lr, r6
   8889a:	430f      	orrs	r7, r1
   8889c:	0c3c      	lsrs	r4, r7, #16
   8889e:	ea44 4308 	orr.w	r3, r4, r8, lsl #16
   888a2:	4599      	cmp	r9, r3
   888a4:	fa00 f40c 	lsl.w	r4, r0, ip
   888a8:	d907      	bls.n	888ba <__udivdi3+0x1fa>
   888aa:	195b      	adds	r3, r3, r5
   888ac:	f106 31ff 	add.w	r1, r6, #4294967295
   888b0:	d238      	bcs.n	88924 <__udivdi3+0x264>
   888b2:	4599      	cmp	r9, r3
   888b4:	d936      	bls.n	88924 <__udivdi3+0x264>
   888b6:	3e02      	subs	r6, #2
   888b8:	442b      	add	r3, r5
   888ba:	ebc9 0303 	rsb	r3, r9, r3
   888be:	fbb3 f0f2 	udiv	r0, r3, r2
   888c2:	fb02 3310 	mls	r3, r2, r0, r3
   888c6:	fb0e f100 	mul.w	r1, lr, r0
   888ca:	b2bf      	uxth	r7, r7
   888cc:	ea47 4303 	orr.w	r3, r7, r3, lsl #16
   888d0:	4299      	cmp	r1, r3
   888d2:	d907      	bls.n	888e4 <__udivdi3+0x224>
   888d4:	195b      	adds	r3, r3, r5
   888d6:	f100 37ff 	add.w	r7, r0, #4294967295
   888da:	d221      	bcs.n	88920 <__udivdi3+0x260>
   888dc:	4299      	cmp	r1, r3
   888de:	d91f      	bls.n	88920 <__udivdi3+0x260>
   888e0:	3802      	subs	r0, #2
   888e2:	442b      	add	r3, r5
   888e4:	4617      	mov	r7, r2
   888e6:	1a59      	subs	r1, r3, r1
   888e8:	ea40 4606 	orr.w	r6, r0, r6, lsl #16
   888ec:	e74e      	b.n	8878c <__udivdi3+0xcc>
   888ee:	4610      	mov	r0, r2
   888f0:	e714      	b.n	8871c <__udivdi3+0x5c>
   888f2:	4613      	mov	r3, r2
   888f4:	e727      	b.n	88746 <__udivdi3+0x86>
   888f6:	460b      	mov	r3, r1
   888f8:	e770      	b.n	887dc <__udivdi3+0x11c>
   888fa:	40b0      	lsls	r0, r6
   888fc:	4290      	cmp	r0, r2
   888fe:	d2b6      	bcs.n	8886e <__udivdi3+0x1ae>
   88900:	1e60      	subs	r0, r4, #1
   88902:	2600      	movs	r6, #0
   88904:	e722      	b.n	8874c <__udivdi3+0x8c>
   88906:	4630      	mov	r0, r6
   88908:	e720      	b.n	8874c <__udivdi3+0x8c>
   8890a:	42bc      	cmp	r4, r7
   8890c:	d994      	bls.n	88838 <__udivdi3+0x178>
   8890e:	f1ac 0c02 	sub.w	ip, ip, #2
   88912:	441f      	add	r7, r3
   88914:	e791      	b.n	8883a <__udivdi3+0x17a>
   88916:	4589      	cmp	r9, r1
   88918:	d99f      	bls.n	8885a <__udivdi3+0x19a>
   8891a:	3c02      	subs	r4, #2
   8891c:	4419      	add	r1, r3
   8891e:	e79d      	b.n	8885c <__udivdi3+0x19c>
   88920:	4638      	mov	r0, r7
   88922:	e7df      	b.n	888e4 <__udivdi3+0x224>
   88924:	460e      	mov	r6, r1
   88926:	e7c8      	b.n	888ba <__udivdi3+0x1fa>
   88928:	3802      	subs	r0, #2
   8892a:	4429      	add	r1, r5
   8892c:	e741      	b.n	887b2 <__udivdi3+0xf2>
   8892e:	bf00      	nop
   88930:	09097325 	.word	0x09097325
   88934:	25096325 	.word	0x25096325
   88938:	75250975 	.word	0x75250975
   8893c:	0d752509 	.word	0x0d752509
   88940:	4449000a 	.word	0x4449000a
   88944:	454c      	.short	0x454c
   88946:	00          	.byte	0x00
   88947:	54          	.byte	0x54
   88948:	5320726d 	.word	0x5320726d
   8894c:	00006376 	.word	0x00006376
   88950:	00000001 	.word	0x00000001
   88954:	00000002 	.word	0x00000002
   88958:	00000004 	.word	0x00000004
   8895c:	00000008 	.word	0x00000008
   88960:	00000010 	.word	0x00000010
   88964:	00000020 	.word	0x00000020
   88968:	00000040 	.word	0x00000040
   8896c:	00000080 	.word	0x00000080
   88970:	00000100 	.word	0x00000100
   88974:	00000200 	.word	0x00000200
   88978:	00000400 	.word	0x00000400
   8897c:	006d6f43 	.word	0x006d6f43
   88980:	00676552 	.word	0x00676552
   88984:	00000043 	.word	0x00000043

00088988 <_global_impure_ptr>:
   88988:	20070108 00000000                       ... ....

00088990 <tinytens>:
   88990:	97d889bc 3c9cd2b2 d5a8a733 3949f623     .......<3...#.I9
   889a0:	44f4a73d 32a50ffd cf8c979d 255bba08     =..D...2......[%
   889b0:	64ac6f43 11680628                       Co.d(.h.

000889b8 <fpinan.5307>:
   889b8:	00000034 fffffbce 000003cb 00000001     4...............
   889c8:	00000000 0000666e 74696e69 00000079     ....nf..inity...
   889d8:	00006e61                                an..

000889dc <fpi.5271>:
   889dc:	00000035 fffffbce 000003cb 00000001     5...............
   889ec:	00000000 33323130 37363534 62613938     ....0123456789ab
   889fc:	66656463 6a696867 6e6d6c6b 7271706f     cdefghijklmnopqr
   88a0c:	76757473 7a797877 00000000              stuvwxyz....

00088a18 <zeroes.6869>:
   88a18:	30303030 30303030 30303030 30303030     0000000000000000
   88a28:	33323130 37363534 42413938 46454443     0123456789ABCDEF
   88a38:	00000000 33323130 37363534 62613938     ....0123456789ab
   88a48:	66656463 00000000 6c756e28 0000296c     cdef....(null)..

00088a58 <blanks.6868>:
   88a58:	20202020 20202020 20202020 20202020                     

00088a68 <_ctype_>:
   88a68:	20202000 20202020 28282020 20282828     .         ((((( 
   88a78:	20202020 20202020 20202020 20202020                     
   88a88:	10108820 10101010 10101010 10101010      ...............
   88a98:	04040410 04040404 10040404 10101010     ................
   88aa8:	41411010 41414141 01010101 01010101     ..AAAAAA........
   88ab8:	01010101 01010101 01010101 10101010     ................
   88ac8:	42421010 42424242 02020202 02020202     ..BBBBBB........
   88ad8:	02020202 02020202 02020202 10101010     ................
   88ae8:	00000020 00000000 00000000 00000000      ...............
	...

00088b6c <__hexdig>:
	...
   88b9c:	13121110 17161514 00001918 00000000     ................
   88bac:	1c1b1a00 001f1e1d 00000000 00000000     ................
	...
   88bcc:	1c1b1a00 001f1e1d 00000000 00000000     ................
	...
   88c6c:	49534f50 00000058 0000002e              POSIX.......

00088c78 <__mprec_tens>:
   88c78:	00000000 3ff00000 00000000 40240000     .......?......$@
   88c88:	00000000 40590000 00000000 408f4000     ......Y@.....@.@
   88c98:	00000000 40c38800 00000000 40f86a00     .......@.....j.@
   88ca8:	00000000 412e8480 00000000 416312d0     .......A......cA
   88cb8:	00000000 4197d784 00000000 41cdcd65     .......A....e..A
   88cc8:	20000000 4202a05f e8000000 42374876     ... _..B....vH7B
   88cd8:	a2000000 426d1a94 e5400000 42a2309c     ......mB..@..0.B
   88ce8:	1e900000 42d6bcc4 26340000 430c6bf5     .......B..4&.k.C
   88cf8:	37e08000 4341c379 85d8a000 43763457     ...7y.AC....W4vC
   88d08:	674ec800 43abc16d 60913d00 43e158e4     ..Ngm..C.=.`.X.C
   88d18:	78b58c40 4415af1d d6e2ef50 444b1ae4     @..x...DP.....KD
   88d28:	064dd592 4480f0cf c7e14af6 44b52d02     ..M....D.J...-.D
   88d38:	79d99db4 44ea7843                       ...yCx.D

00088d40 <p05.5302>:
   88d40:	00000005 00000019 0000007d 00000000     ........}.......

00088d50 <__mprec_bigtens>:
   88d50:	37e08000 4341c379 b5056e17 4693b8b5     ...7y.AC.n.....F
   88d60:	e93ff9f5 4d384f03 f9301d32 5a827748     ..?..O8M2.0.Hw.Z
   88d70:	7f73bf3c 75154fdd                       <.s..O.u

00088d78 <_init>:
   88d78:	b5f8      	push	{r3, r4, r5, r6, r7, lr}
   88d7a:	bf00      	nop
   88d7c:	bcf8      	pop	{r3, r4, r5, r6, r7}
   88d7e:	bc08      	pop	{r3}
   88d80:	469e      	mov	lr, r3
   88d82:	4770      	bx	lr

00088d84 <__init_array_start>:
   88d84:	00084ff5 	.word	0x00084ff5

00088d88 <__frame_dummy_init_array_entry>:
   88d88:	00080119                                ....

00088d8c <_fini>:
   88d8c:	b5f8      	push	{r3, r4, r5, r6, r7, lr}
   88d8e:	bf00      	nop
   88d90:	bcf8      	pop	{r3, r4, r5, r6, r7}
   88d92:	bc08      	pop	{r3}
   88d94:	469e      	mov	lr, r3
   88d96:	4770      	bx	lr

00088d98 <__fini_array_start>:
   88d98:	000800f5 	.word	0x000800f5

Disassembly of section .relocate:

20070000 <SystemInit>:
20070000:	4a1a      	ldr	r2, [pc, #104]	; (2007006c <SystemInit+0x6c>)
20070002:	f44f 6380 	mov.w	r3, #1024	; 0x400
20070006:	6013      	str	r3, [r2, #0]
20070008:	f8c2 3200 	str.w	r3, [r2, #512]	; 0x200
2007000c:	4b18      	ldr	r3, [pc, #96]	; (20070070 <SystemInit+0x70>)
2007000e:	6a1a      	ldr	r2, [r3, #32]
20070010:	01d1      	lsls	r1, r2, #7
20070012:	d502      	bpl.n	2007001a <SystemInit+0x1a>
20070014:	4a17      	ldr	r2, [pc, #92]	; (20070074 <SystemInit+0x74>)
20070016:	621a      	str	r2, [r3, #32]
20070018:	e005      	b.n	20070026 <SystemInit+0x26>
2007001a:	4a17      	ldr	r2, [pc, #92]	; (20070078 <SystemInit+0x78>)
2007001c:	621a      	str	r2, [r3, #32]
2007001e:	6e9a      	ldr	r2, [r3, #104]	; 0x68
20070020:	07d2      	lsls	r2, r2, #31
20070022:	d5fc      	bpl.n	2007001e <SystemInit+0x1e>
20070024:	e7f6      	b.n	20070014 <SystemInit+0x14>
20070026:	6e9a      	ldr	r2, [r3, #104]	; 0x68
20070028:	4911      	ldr	r1, [pc, #68]	; (20070070 <SystemInit+0x70>)
2007002a:	03d0      	lsls	r0, r2, #15
2007002c:	d5fb      	bpl.n	20070026 <SystemInit+0x26>
2007002e:	6b0a      	ldr	r2, [r1, #48]	; 0x30
20070030:	f022 0203 	bic.w	r2, r2, #3
20070034:	f042 0201 	orr.w	r2, r2, #1
20070038:	630a      	str	r2, [r1, #48]	; 0x30
2007003a:	6e9a      	ldr	r2, [r3, #104]	; 0x68
2007003c:	0712      	lsls	r2, r2, #28
2007003e:	d5fc      	bpl.n	2007003a <SystemInit+0x3a>
20070040:	490e      	ldr	r1, [pc, #56]	; (2007007c <SystemInit+0x7c>)
20070042:	4a0b      	ldr	r2, [pc, #44]	; (20070070 <SystemInit+0x70>)
20070044:	6291      	str	r1, [r2, #40]	; 0x28
20070046:	6e9a      	ldr	r2, [r3, #104]	; 0x68
20070048:	0790      	lsls	r0, r2, #30
2007004a:	d5fc      	bpl.n	20070046 <SystemInit+0x46>
2007004c:	4a08      	ldr	r2, [pc, #32]	; (20070070 <SystemInit+0x70>)
2007004e:	2111      	movs	r1, #17
20070050:	6311      	str	r1, [r2, #48]	; 0x30
20070052:	6e9a      	ldr	r2, [r3, #104]	; 0x68
20070054:	0711      	lsls	r1, r2, #28
20070056:	d5fc      	bpl.n	20070052 <SystemInit+0x52>
20070058:	4a05      	ldr	r2, [pc, #20]	; (20070070 <SystemInit+0x70>)
2007005a:	2112      	movs	r1, #18
2007005c:	6311      	str	r1, [r2, #48]	; 0x30
2007005e:	6e9a      	ldr	r2, [r3, #104]	; 0x68
20070060:	0712      	lsls	r2, r2, #28
20070062:	d5fc      	bpl.n	2007005e <SystemInit+0x5e>
20070064:	4a06      	ldr	r2, [pc, #24]	; (20070080 <SystemInit+0x80>)
20070066:	4b07      	ldr	r3, [pc, #28]	; (20070084 <SystemInit+0x84>)
20070068:	601a      	str	r2, [r3, #0]
2007006a:	4770      	bx	lr
2007006c:	400e0a00 	.word	0x400e0a00
20070070:	400e0600 	.word	0x400e0600
20070074:	01370809 	.word	0x01370809
20070078:	00370809 	.word	0x00370809
2007007c:	200d3f01 	.word	0x200d3f01
20070080:	0501bd00 	.word	0x0501bd00
20070084:	200700fc 	.word	0x200700fc

20070088 <system_init_flash>:
20070088:	4b11      	ldr	r3, [pc, #68]	; (200700d0 <system_init_flash+0x48>)
2007008a:	4a12      	ldr	r2, [pc, #72]	; (200700d4 <system_init_flash+0x4c>)
2007008c:	4298      	cmp	r0, r3
2007008e:	4b12      	ldr	r3, [pc, #72]	; (200700d8 <system_init_flash+0x50>)
20070090:	d801      	bhi.n	20070096 <system_init_flash+0xe>
20070092:	2100      	movs	r1, #0
20070094:	e018      	b.n	200700c8 <system_init_flash+0x40>
20070096:	4911      	ldr	r1, [pc, #68]	; (200700dc <system_init_flash+0x54>)
20070098:	4288      	cmp	r0, r1
2007009a:	d802      	bhi.n	200700a2 <system_init_flash+0x1a>
2007009c:	f44f 7180 	mov.w	r1, #256	; 0x100
200700a0:	e012      	b.n	200700c8 <system_init_flash+0x40>
200700a2:	490f      	ldr	r1, [pc, #60]	; (200700e0 <system_init_flash+0x58>)
200700a4:	4288      	cmp	r0, r1
200700a6:	d802      	bhi.n	200700ae <system_init_flash+0x26>
200700a8:	f44f 7100 	mov.w	r1, #512	; 0x200
200700ac:	e00c      	b.n	200700c8 <system_init_flash+0x40>
200700ae:	490d      	ldr	r1, [pc, #52]	; (200700e4 <system_init_flash+0x5c>)
200700b0:	4288      	cmp	r0, r1
200700b2:	d802      	bhi.n	200700ba <system_init_flash+0x32>
200700b4:	f44f 7140 	mov.w	r1, #768	; 0x300
200700b8:	e006      	b.n	200700c8 <system_init_flash+0x40>
200700ba:	490b      	ldr	r1, [pc, #44]	; (200700e8 <system_init_flash+0x60>)
200700bc:	4288      	cmp	r0, r1
200700be:	bf94      	ite	ls
200700c0:	f44f 6180 	movls.w	r1, #1024	; 0x400
200700c4:	f44f 61a0 	movhi.w	r1, #1280	; 0x500
200700c8:	6011      	str	r1, [r2, #0]
200700ca:	6019      	str	r1, [r3, #0]
200700cc:	4770      	bx	lr
200700ce:	bf00      	nop
200700d0:	0121eabf 	.word	0x0121eabf
200700d4:	400e0a00 	.word	0x400e0a00
200700d8:	400e0c00 	.word	0x400e0c00
200700dc:	02faf07f 	.word	0x02faf07f
200700e0:	03d08fff 	.word	0x03d08fff
200700e4:	04c4b3ff 	.word	0x04c4b3ff
200700e8:	055d4a7f 	.word	0x055d4a7f

200700ec <uxCriticalNesting>:
200700ec:	aaaaaaaa                                ....

200700f0 <xFreeBytesRemaining>:
200700f0:	0000a000                                ....

200700f4 <xNextTaskUnblockTime>:
200700f4:	ffffffff                                ....

200700f8 <g_interrupt_enabled>:
200700f8:	00000001                                ....

200700fc <SystemCoreClock>:
200700fc:	003d0900                                ..=.

20070100 <semph>:
20070100:	00000001 00000000                       ........

20070108 <impure_data>:
20070108:	00000000 200703f4 2007045c 200704c4     ....... \.. ... 
	...
2007013c:	00088984 00000000 00000000 00000000     ................
	...
200701b0:	00000001 00000000 abcd330e e66d1234     .........3..4.m.
200701c0:	0005deec 0000000b 00000000 00000000     ................
	...

20070530 <_impure_ptr>:
20070530:	20070108                                ... 

20070534 <__ctype_ptr__>:
20070534:	00088a68                                h...

20070538 <lconv>:
20070538:	00088c74 00088a38 00088a38 00088a38     t...8...8...8...
20070548:	00088a38 00088a38 00088a38 00088a38     8...8...8...8...
20070558:	00088a38 00088a38 ffffffff ffffffff     8...8...........
20070568:	ffffffff 0000ffff                       ........

20070570 <lc_ctype_charset>:
20070570:	49435341 00000049 00000000 00000000     ASCII...........
	...

20070590 <__mb_cur_max>:
20070590:	00000001                                ....

20070594 <__malloc_av_>:
	...
2007059c:	20070594 20070594 2007059c 2007059c     ... ... ... ... 
200705ac:	200705a4 200705a4 200705ac 200705ac     ... ... ... ... 
200705bc:	200705b4 200705b4 200705bc 200705bc     ... ... ... ... 
200705cc:	200705c4 200705c4 200705cc 200705cc     ... ... ... ... 
200705dc:	200705d4 200705d4 200705dc 200705dc     ... ... ... ... 
200705ec:	200705e4 200705e4 200705ec 200705ec     ... ... ... ... 
200705fc:	200705f4 200705f4 200705fc 200705fc     ... ... ... ... 
2007060c:	20070604 20070604 2007060c 2007060c     ... ... ... ... 
2007061c:	20070614 20070614 2007061c 2007061c     ... ... ... ... 
2007062c:	20070624 20070624 2007062c 2007062c     $.. $.. ,.. ,.. 
2007063c:	20070634 20070634 2007063c 2007063c     4.. 4.. <.. <.. 
2007064c:	20070644 20070644 2007064c 2007064c     D.. D.. L.. L.. 
2007065c:	20070654 20070654 2007065c 2007065c     T.. T.. \.. \.. 
2007066c:	20070664 20070664 2007066c 2007066c     d.. d.. l.. l.. 
2007067c:	20070674 20070674 2007067c 2007067c     t.. t.. |.. |.. 
2007068c:	20070684 20070684 2007068c 2007068c     ... ... ... ... 
2007069c:	20070694 20070694 2007069c 2007069c     ... ... ... ... 
200706ac:	200706a4 200706a4 200706ac 200706ac     ... ... ... ... 
200706bc:	200706b4 200706b4 200706bc 200706bc     ... ... ... ... 
200706cc:	200706c4 200706c4 200706cc 200706cc     ... ... ... ... 
200706dc:	200706d4 200706d4 200706dc 200706dc     ... ... ... ... 
200706ec:	200706e4 200706e4 200706ec 200706ec     ... ... ... ... 
200706fc:	200706f4 200706f4 200706fc 200706fc     ... ... ... ... 
2007070c:	20070704 20070704 2007070c 2007070c     ... ... ... ... 
2007071c:	20070714 20070714 2007071c 2007071c     ... ... ... ... 
2007072c:	20070724 20070724 2007072c 2007072c     $.. $.. ,.. ,.. 
2007073c:	20070734 20070734 2007073c 2007073c     4.. 4.. <.. <.. 
2007074c:	20070744 20070744 2007074c 2007074c     D.. D.. L.. L.. 
2007075c:	20070754 20070754 2007075c 2007075c     T.. T.. \.. \.. 
2007076c:	20070764 20070764 2007076c 2007076c     d.. d.. l.. l.. 
2007077c:	20070774 20070774 2007077c 2007077c     t.. t.. |.. |.. 
2007078c:	20070784 20070784 2007078c 2007078c     ... ... ... ... 
2007079c:	20070794 20070794 2007079c 2007079c     ... ... ... ... 
200707ac:	200707a4 200707a4 200707ac 200707ac     ... ... ... ... 
200707bc:	200707b4 200707b4 200707bc 200707bc     ... ... ... ... 
200707cc:	200707c4 200707c4 200707cc 200707cc     ... ... ... ... 
200707dc:	200707d4 200707d4 200707dc 200707dc     ... ... ... ... 
200707ec:	200707e4 200707e4 200707ec 200707ec     ... ... ... ... 
200707fc:	200707f4 200707f4 200707fc 200707fc     ... ... ... ... 
2007080c:	20070804 20070804 2007080c 2007080c     ... ... ... ... 
2007081c:	20070814 20070814 2007081c 2007081c     ... ... ... ... 
2007082c:	20070824 20070824 2007082c 2007082c     $.. $.. ,.. ,.. 
2007083c:	20070834 20070834 2007083c 2007083c     4.. 4.. <.. <.. 
2007084c:	20070844 20070844 2007084c 2007084c     D.. D.. L.. L.. 
2007085c:	20070854 20070854 2007085c 2007085c     T.. T.. \.. \.. 
2007086c:	20070864 20070864 2007086c 2007086c     d.. d.. l.. l.. 
2007087c:	20070874 20070874 2007087c 2007087c     t.. t.. |.. |.. 
2007088c:	20070884 20070884 2007088c 2007088c     ... ... ... ... 
2007089c:	20070894 20070894 2007089c 2007089c     ... ... ... ... 
200708ac:	200708a4 200708a4 200708ac 200708ac     ... ... ... ... 
200708bc:	200708b4 200708b4 200708bc 200708bc     ... ... ... ... 
200708cc:	200708c4 200708c4 200708cc 200708cc     ... ... ... ... 
200708dc:	200708d4 200708d4 200708dc 200708dc     ... ... ... ... 
200708ec:	200708e4 200708e4 200708ec 200708ec     ... ... ... ... 
200708fc:	200708f4 200708f4 200708fc 200708fc     ... ... ... ... 
2007090c:	20070904 20070904 2007090c 2007090c     ... ... ... ... 
2007091c:	20070914 20070914 2007091c 2007091c     ... ... ... ... 
2007092c:	20070924 20070924 2007092c 2007092c     $.. $.. ,.. ,.. 
2007093c:	20070934 20070934 2007093c 2007093c     4.. 4.. <.. <.. 
2007094c:	20070944 20070944 2007094c 2007094c     D.. D.. L.. L.. 
2007095c:	20070954 20070954 2007095c 2007095c     T.. T.. \.. \.. 
2007096c:	20070964 20070964 2007096c 2007096c     d.. d.. l.. l.. 
2007097c:	20070974 20070974 2007097c 2007097c     t.. t.. |.. |.. 
2007098c:	20070984 20070984 2007098c 2007098c     ... ... ... ... 

2007099c <__malloc_trim_threshold>:
2007099c:	00020000                                ....

200709a0 <__malloc_sbrk_base>:
200709a0:	ffffffff                                ....

200709a4 <__wctomb>:
200709a4:	000877c1                                .w..
